 Torque

 Timestamp is 5577a0d8 (Tue Jun 09 22:28:40 2015)

 Preferred load address is 00400000

 Start         Length     Name                   Class
 0001:00000000 00236ce0H .text                   CODE
 0001:00236ce0 00009932H .text$x                 CODE
 0001:00240620 0000cf11H .text$yc                CODE
 0001:0024d540 0000154aH .text$yd                CODE
 0002:00000000 00000370H .idata$5                DATA
 0002:00000370 00032becH .rdata                  DATA
 0002:00032f5c 0000004dH .rdata$debug            DATA
 0002:00032fac 0000aae8H .rdata$r                DATA
 0002:0003da94 00000004H .rtc$IAA                DATA
 0002:0003da98 00000004H .rtc$IZZ                DATA
 0002:0003da9c 00000004H .rtc$TAA                DATA
 0002:0003daa0 00000004H .rtc$TZZ                DATA
 0002:0003daa4 00009ec0H .xdata$x                DATA
 0002:00047964 00000078H .idata$2                DATA
 0002:000479dc 00000014H .idata$3                DATA
 0002:000479f0 00000370H .idata$4                DATA
 0002:00047d60 00000dd8H .idata$6                DATA
 0002:00048b38 00000000H .edata                  DATA
 0003:00000000 00000004H .CRT$XCA                DATA
 0003:00000004 00000004H .CRT$XCAA               DATA
 0003:00000008 000013b8H .CRT$XCU                DATA
 0003:000013c0 00000004H .CRT$XCZ                DATA
 0003:000013c4 00000004H .CRT$XIA                DATA
 0003:000013c8 00000010H .CRT$XIC                DATA
 0003:000013d8 00000004H .CRT$XIY                DATA
 0003:000013dc 00000004H .CRT$XIZ                DATA
 0003:000013e0 00000004H .CRT$XPA                DATA
 0003:000013e4 00000004H .CRT$XPX                DATA
 0003:000013e8 00000004H .CRT$XPZ                DATA
 0003:000013ec 00000004H .CRT$XTA                DATA
 0003:000013f0 00000004H .CRT$XTB                DATA
 0003:000013f4 00000004H .CRT$XTZ                DATA
 0003:00001400 00018ef8H .data                   DATA
 0003:0001a300 000ae114H .bss                    DATA
 0004:00000000 00000144H .rsrc$01                DATA
 0004:00000150 000056a0H .rsrc$02                DATA

  Address         Publics by Value              Rva+Base     Lib:Object

 0000:00000000       ___safe_se_handler_table   00000000     <absolute>
 0000:00000000       ___safe_se_handler_count   00000000     <absolute>
 0000:00000000       __except_list              00000000     <absolute>
 0001:00000000       ??1AbstractPolyList@@UAE@XZ 00401000 f   abstractPolyList.obj
 0001:00000010       ?getMapping@AbstractPolyList@@UAE_NPAVMatrixF@@PAVBox3F@@@Z 00401010 f   abstractPolyList.obj
 0001:00000020       ?setInterestNormal@AbstractPolyList@@QAEXABVPoint3F@@@Z 00401020 f   abstractPolyList.obj
 0001:00000050       ?mDot@@YAMABVPoint3F@@0@Z  00401050 f i abstractPolyList.obj
 0001:00000070       ??0Point3F@@QAE@XZ         00401070 f i abstractPolyList.obj
 0001:00000080       ??0Point3F@@QAE@ABV0@@Z    00401080 f i abstractPolyList.obj
 0001:000000a0       ??0PlaneF@@QAE@XZ          004010a0 f i abstractPolyList.obj
 0001:000000b0       ??_GAbstractPolyList@@UAEPAXI@Z 004010b0 f i abstractPolyList.obj
 0001:000000b0       ??_EAbstractPolyList@@UAEPAXI@Z 004010b0 f i abstractPolyList.obj
 0001:000000e0       ?addBox@AbstractPolyList@@QAEXABVBox3F@@@Z 004010e0 f   abstractPolyList.obj
 0001:00000270       ?isInterestedInPlane@AbstractPolyList@@UAE_NABVPlaneF@@@Z 00401270 f   abstractPolyList.obj
 0001:000002e0       ?isInterestedInPlane@AbstractPolyList@@UAE_NI@Z 004012e0 f   abstractPolyList.obj
 0001:00000330       ??BPoint3F@@QAEPAMXZ       00401330 f i boxConvex.obj
 0001:00000340       ?begin@?$Vector@VPoint3F@@@@QAEPAVPoint3F@@XZ 00401340 f i boxConvex.obj
 0001:00000350       ?size@?$Vector@VPoint3F@@@@QBEHXZ 00401350 f i boxConvex.obj
 0001:00000360       ?last@?$Vector@VPoint3F@@@@QAEAAVPoint3F@@XZ 00401360 f i boxConvex.obj
 0001:00000370       ?m_matF_x_point3F@@YAXPBM0PAM@Z 00401370 f i boxConvex.obj
 0001:000003d0       ?end@?$Vector@UEdge@ConvexFeature@@@@QAEPAUEdge@ConvexFeature@@XZ 004013d0 f i boxConvex.obj
 0001:000003e0       ?last@?$Vector@UEdge@ConvexFeature@@@@QAEAAUEdge@ConvexFeature@@XZ 004013e0 f i boxConvex.obj
 0001:000003f0       ?end@?$Vector@UFace@ConvexFeature@@@@QAEPAUFace@ConvexFeature@@XZ 004013f0 f i boxConvex.obj
 0001:00000400       ?resize@?$Vector@VPoint3F@@@@IAE_NI@Z 00401400 f i boxConvex.obj
 0001:00000420       ?resize@?$Vector@UEdge@ConvexFeature@@@@IAE_NI@Z 00401420 f i boxConvex.obj
 0001:00000440       ?resize@?$Vector@UFace@ConvexFeature@@@@IAE_NI@Z 00401440 f i boxConvex.obj
 0001:00000460       ??0Point3F@@QAE@MMM@Z      00401460 f i boxConvex.obj
 0001:00000480       ?neg@Point3F@@QAEXXZ       00401480 f i boxConvex.obj
 0001:000004a0       ?normalize@Point3F@@QAEXXZ 004014a0 f i boxConvex.obj
 0001:000004b0       ??HPoint3F@@QBE?AV0@ABV0@@Z 004014b0 f i boxConvex.obj
 0001:000004e0       ?set@PlaneF@@QAEXABVPoint3F@@0@Z 004014e0 f i boxConvex.obj
 0001:00000530       ??BMatrixF@@QAEPAMXZ       00401530 f i boxConvex.obj
 0001:00000540       ??BMatrixF@@QBEPAMXZ       00401540 f i boxConvex.obj
 0001:00000550       ?mul@MatrixF@@QAEAAV1@ABV1@@Z 00401550 f i boxConvex.obj
 0001:00000590       ?mulP@MatrixF@@QBEXABVPoint3F@@PAV2@@Z 00401590 f i boxConvex.obj
 0001:000005b0       ?getColumn@MatrixF@@QBEXHPAVPoint3F@@@Z 004015b0 f i boxConvex.obj
 0001:000005d0       ?setColumn@MatrixF@@QAEXHABVPoint3F@@@Z 004015d0 f i boxConvex.obj
 0001:000005f0       ?setTransform@AbstractPolyList@@QAEXPBVMatrixF@@ABVPoint3F@@@Z 004015f0 f i boxConvex.obj
 0001:00000670       ?setObject@AbstractPolyList@@QAEXPAVSceneObject@@@Z 00401670 f i boxConvex.obj
 0001:00000680       ?getObject@Convex@@QAEPAVSceneObject@@XZ 00401680 f i boxConvex.obj
 0001:00000690       ?support@BoxConvex@@UBE?AVPoint3F@@ABV2@@Z 00401690 f   boxConvex.obj
 0001:00000710       ?getVertex@BoxConvex@@AAE?AVPoint3F@@H@Z 00401710 f   boxConvex.obj
 0001:00000770       ?isOnPlane@@YA_NVPoint3F@@AAVPlaneF@@@Z 00401770 f i boxConvex.obj
 0001:000007c0       ?getPolyList@BoxConvex@@UAEXPAVAbstractPolyList@@@Z 004017c0 f   boxConvex.obj
 0001:00000a30       ?getTransform@OrthoBoxConvex@@UBEABVMatrixF@@XZ 00401a30 f   boxConvex.obj
 0001:00000a60       ?increment@?$Vector@VPoint3F@@@@QAEXI@Z 00401a60 f i boxConvex.obj
 0001:00000a90       ?increment@?$Vector@UEdge@ConvexFeature@@@@QAEXI@Z 00401a90 f i boxConvex.obj
 0001:00000ac0       ?increment@?$Vector@UFace@ConvexFeature@@@@QAEXI@Z 00401ac0 f i boxConvex.obj
 0001:00000af0       ?emitEdge@BoxConvex@@AAEXHHABVMatrixF@@PAVConvexFeature@@@Z 00401af0 f   boxConvex.obj
 0001:00000c80       ?emitFace@BoxConvex@@AAEXHABVMatrixF@@PAVConvexFeature@@@Z 00401c80 f   boxConvex.obj
 0001:00000ff0       ?getFeatures@BoxConvex@@UAEXABVMatrixF@@ABVPoint3F@@PAVConvexFeature@@@Z 00401ff0 f   boxConvex.obj
 0001:00001330       ?memcpy@ClippedPolyList@@AAEXPAI0I@Z 00402330 f   clippedPolyList.obj
 0001:00001360       ??1?$Vector@UPoly@ClippedPolyList@@@@QAE@XZ 00402360 f i clippedPolyList.obj
 0001:00001370       ?begin@?$Vector@UPoly@ClippedPolyList@@@@QAEPAUPoly@ClippedPolyList@@XZ 00402370 f i clippedPolyList.obj
 0001:00001380       ?end@?$Vector@UPoly@ClippedPolyList@@@@QAEPAUPoly@ClippedPolyList@@XZ 00402380 f i clippedPolyList.obj
 0001:00001390       ?size@?$Vector@UPoly@ClippedPolyList@@@@QBEHXZ 00402390 f i clippedPolyList.obj
 0001:000013a0       ?decrement@?$Vector@UPoly@ClippedPolyList@@@@QAEXI@Z 004023a0 f i clippedPolyList.obj
 0001:000013c0       ?clear@?$Vector@UPoly@ClippedPolyList@@@@QAEXXZ 004023c0 f i clippedPolyList.obj
 0001:000013d0       ?last@?$Vector@UPoly@ClippedPolyList@@@@QAEAAUPoly@ClippedPolyList@@XZ 004023d0 f i clippedPolyList.obj
 0001:000013e0       ??1?$Vector@UVertex@ClippedPolyList@@@@QAE@XZ 004023e0 f i clippedPolyList.obj
 0001:000013f0       ?size@?$Vector@UVertex@ClippedPolyList@@@@QBEHXZ 004023f0 f i clippedPolyList.obj
 0001:00001400       ??A?$Vector@UVertex@ClippedPolyList@@@@QAEAAUVertex@ClippedPolyList@@I@Z 00402400 f i clippedPolyList.obj
 0001:00001410       ?address@?$Vector@UVertex@ClippedPolyList@@@@QBEPAUVertex@ClippedPolyList@@XZ 00402410 f i clippedPolyList.obj
 0001:00001420       ?clear@?$Vector@UVertex@ClippedPolyList@@@@QAEXXZ 00402420 f i clippedPolyList.obj
 0001:00001430       ?last@?$Vector@UVertex@ClippedPolyList@@@@QAEAAUVertex@ClippedPolyList@@XZ 00402430 f i clippedPolyList.obj
 0001:00001440       ??1?$Vector@I@@QAE@XZ      00402440 f i clippedPolyList.obj
 0001:00001450       ?size@?$Vector@I@@QBEHXZ   00402450 f i clippedPolyList.obj
 0001:00001460       ??A?$Vector@I@@QAEAAII@Z   00402460 f i clippedPolyList.obj
 0001:00001470       ?clear@?$Vector@I@@QAEXXZ  00402470 f i clippedPolyList.obj
 0001:00001480       ??1?$Vector@VPlaneF@@@@QAE@XZ 00402480 f i clippedPolyList.obj
 0001:00001490       _sqrtf                     00402490 f i clippedPolyList.obj
 0001:000014a0       ?size@?$Vector@VPlaneF@@@@QBEHXZ 004024a0 f i clippedPolyList.obj
 0001:000014b0       ??A?$Vector@VPlaneF@@@@QAEAAVPlaneF@@I@Z 004024b0 f i clippedPolyList.obj
 0001:000014c0       ?address@?$Vector@VPlaneF@@@@QBEPAVPlaneF@@XZ 004024c0 f i clippedPolyList.obj
 0001:000014d0       ?clear@?$Vector@VPlaneF@@@@QAEXXZ 004024d0 f i clippedPolyList.obj
 0001:000014e0       ?last@?$Vector@VPlaneF@@@@QAEAAVPlaneF@@XZ 004024e0 f i clippedPolyList.obj
 0001:000014f0       ?resize@?$Vector@UPoly@ClippedPolyList@@@@IAE_NI@Z 004024f0 f i clippedPolyList.obj
 0001:00001510       ?reserve@?$Vector@UPoly@ClippedPolyList@@@@QAEXI@Z 00402510 f i clippedPolyList.obj
 0001:00001540       ?resize@?$Vector@UVertex@ClippedPolyList@@@@IAE_NI@Z 00402540 f i clippedPolyList.obj
 0001:00001560       ?reserve@?$Vector@UVertex@ClippedPolyList@@@@QAEXI@Z 00402560 f i clippedPolyList.obj
 0001:00001590       ?resize@?$Vector@I@@IAE_NI@Z 00402590 f i clippedPolyList.obj
 0001:000015b0       ?increment@?$Vector@I@@QAEXI@Z 004025b0 f i clippedPolyList.obj
 0001:000015e0       ?resize@?$Vector@VPlaneF@@@@IAE_NI@Z 004025e0 f i clippedPolyList.obj
 0001:00001600       ?reserve@?$Vector@VPlaneF@@@@QAEXI@Z 00402600 f i clippedPolyList.obj
 0001:00001630       ?sqrt@@YAMM@Z              00402630 f i clippedPolyList.obj
 0001:00001640       ?mSqrt@@YAMM@Z             00402640 f i clippedPolyList.obj
 0001:00001650       ?set@Point3F@@QAEXMMM@Z    00402650 f i clippedPolyList.obj
 0001:00001670       ??GPoint3F@@QBE?AV0@ABV0@@Z 00402670 f i clippedPolyList.obj
 0001:000016a0       ?distToPlane@PlaneF@@QBEMABVPoint3F@@@Z 004026a0 f i clippedPolyList.obj
 0001:000016c0       ?set@PlaneF@@QAEXABVPoint3F@@00@Z 004026c0 f i clippedPolyList.obj
 0001:000017d0       ?identity@MatrixF@@QAEAAV1@XZ 004027d0 f i clippedPolyList.obj
 0001:00001810       ?mulP@MatrixF@@QBEXAAVPoint3F@@@Z 00402810 f i clippedPolyList.obj
 0001:00001890       ?doConstruct@AbstractPolyList@@QAEXXZ 00402890 f i clippedPolyList.obj
 0001:00001960       ??1ClippedPolyList@@UAE@XZ 00402960 f   clippedPolyList.obj
 0001:00001a00       ?clear@ClippedPolyList@@QAEXXZ 00402a00 f   clippedPolyList.obj
 0001:00001a20       ?isEmpty@ClippedPolyList@@UBE_NXZ 00402a20 f   clippedPolyList.obj
 0001:00001a30       ?plane@ClippedPolyList@@UAEXIII@Z 00402a30 f   clippedPolyList.obj
 0001:00001a80       ?plane@ClippedPolyList@@UAEXABVPlaneF@@@Z 00402a80 f   clippedPolyList.obj
 0001:00001ab0       ?plane@ClippedPolyList@@UAEXI@Z 00402ab0 f   clippedPolyList.obj
 0001:00001af0       ?getIndexedPlane@ClippedPolyList@@MAEABVPlaneF@@I@Z 00402af0 f   clippedPolyList.obj
 0001:00001b10       ?render@ClippedPolyList@@QAEXXZ 00402b10 f   clippedPolyList.obj
 0001:00001c50       ??0?$Vector@UPoly@ClippedPolyList@@@@QAE@I@Z 00402c50 f i clippedPolyList.obj
 0001:00001ca0       ?increment@?$Vector@UPoly@ClippedPolyList@@@@QAEXI@Z 00402ca0 f i clippedPolyList.obj
 0001:00001cd0       ??0?$Vector@UVertex@ClippedPolyList@@@@QAE@I@Z 00402cd0 f i clippedPolyList.obj
 0001:00001d20       ?increment@?$Vector@UVertex@ClippedPolyList@@@@QAEXI@Z 00402d20 f i clippedPolyList.obj
 0001:00001d50       ?push_back@?$Vector@I@@QAEXABI@Z 00402d50 f i clippedPolyList.obj
 0001:00001d90       ?reserve@?$Vector@I@@QAEXI@Z 00402d90 f i clippedPolyList.obj
 0001:00001dc0       ?setSize@?$Vector@I@@QAEII@Z 00402dc0 f i clippedPolyList.obj
 0001:00001df0       ??0?$Vector@VPlaneF@@@@QAE@I@Z 00402df0 f i clippedPolyList.obj
 0001:00001e40       ?increment@?$Vector@VPlaneF@@@@QAEXI@Z 00402e40 f i clippedPolyList.obj
 0001:00001e70       ??0MatrixF@@QAE@_N@Z       00402e70 f i clippedPolyList.obj
 0001:00001ec0       ??0PlaneTransformer@@QAE@XZ 00402ec0 f i clippedPolyList.obj
 0001:00001ed0       ??_EClippedPolyList@@UAEPAXI@Z 00402ed0 f i clippedPolyList.obj
 0001:00001ed0       ??_GClippedPolyList@@UAEPAXI@Z 00402ed0 f i clippedPolyList.obj
 0001:00001ef0       ?addPoint@ClippedPolyList@@UAEIABVPoint3F@@@Z 00402ef0 f   clippedPolyList.obj
 0001:000020a0       ?addPlane@ClippedPolyList@@UAEIABVPlaneF@@@Z 004030a0 f   clippedPolyList.obj
 0001:00002100       ?begin@ClippedPolyList@@UAEXII@Z 00403100 f   clippedPolyList.obj
 0001:00002160       ?vertex@ClippedPolyList@@UAEXI@Z 00403160 f   clippedPolyList.obj
 0001:000021a0       ?end@ClippedPolyList@@UAEXXZ 004031a0 f   clippedPolyList.obj
 0001:00002630       ??0?$Vector@I@@QAE@I@Z     00403630 f i clippedPolyList.obj
 0001:00002680       ??0AbstractPolyList@@QAE@XZ 00403680 f i clippedPolyList.obj
 0001:000026a0       ??0ClippedPolyList@@QAE@XZ 004036a0 f   clippedPolyList.obj
 0001:00002790       ?isEmpty@ConcretePolyList@@UBE_NXZ 00403790 f   concretePolyList.obj
 0001:000027a0       ??1?$Vector@UPoly@ConcretePolyList@@@@QAE@XZ 004037a0 f i concretePolyList.obj
 0001:000027b0       ?begin@?$Vector@UPoly@ConcretePolyList@@@@QAEPAUPoly@ConcretePolyList@@XZ 004037b0 f i concretePolyList.obj
 0001:000027c0       ?end@?$Vector@UPoly@ConcretePolyList@@@@QAEPAUPoly@ConcretePolyList@@XZ 004037c0 f i concretePolyList.obj
 0001:000027d0       ?clear@?$Vector@UPoly@ConcretePolyList@@@@QAEXXZ 004037d0 f i concretePolyList.obj
 0001:000027e0       ?last@?$Vector@UPoly@ConcretePolyList@@@@QAEAAUPoly@ConcretePolyList@@XZ 004037e0 f i concretePolyList.obj
 0001:000027f0       ??1?$Vector@VPoint3F@@@@QAE@XZ 004037f0 f i concretePolyList.obj
 0001:00002800       ??A?$Vector@VPoint3F@@@@QAEAAVPoint3F@@I@Z 00403800 f i concretePolyList.obj
 0001:00002810       ?address@?$Vector@VPoint3F@@@@QBEPAVPoint3F@@XZ 00403810 f i concretePolyList.obj
 0001:00002820       ?clear@?$Vector@VPoint3F@@@@QAEXXZ 00403820 f i concretePolyList.obj
 0001:00002830       ?resize@?$Vector@UPoly@ConcretePolyList@@@@IAE_NI@Z 00403830 f i concretePolyList.obj
 0001:00002850       ?reserve@?$Vector@UPoly@ConcretePolyList@@@@QAEXI@Z 00403850 f i concretePolyList.obj
 0001:00002880       ?reserve@?$Vector@VPoint3F@@@@QAEXI@Z 00403880 f i concretePolyList.obj
 0001:000028b0       ??1ConcretePolyList@@UAE@XZ 004038b0 f   concretePolyList.obj
 0001:00002940       ?clear@ConcretePolyList@@QAEXXZ 00403940 f   concretePolyList.obj
 0001:00002960       ?plane@ConcretePolyList@@UAEXIII@Z 00403960 f   concretePolyList.obj
 0001:000029b0       ?plane@ConcretePolyList@@UAEXABVPlaneF@@@Z 004039b0 f   concretePolyList.obj
 0001:000029e0       ?plane@ConcretePolyList@@UAEXI@Z 004039e0 f   concretePolyList.obj
 0001:00002a20       ?getIndexedPlane@ConcretePolyList@@MAEABVPlaneF@@I@Z 00403a20 f   concretePolyList.obj
 0001:00002a40       ?end@ConcretePolyList@@UAEXXZ 00403a40 f   concretePolyList.obj
 0001:00002a60       ?render@ConcretePolyList@@QAEXXZ 00403a60 f   concretePolyList.obj
 0001:00002ba0       ??0?$Vector@UPoly@ConcretePolyList@@@@QAE@I@Z 00403ba0 f i concretePolyList.obj
 0001:00002bf0       ?increment@?$Vector@UPoly@ConcretePolyList@@@@QAEXI@Z 00403bf0 f i concretePolyList.obj
 0001:00002c20       ??0?$Vector@VPoint3F@@@@QAE@I@Z 00403c20 f i concretePolyList.obj
 0001:00002c70       ??_GConcretePolyList@@UAEPAXI@Z 00403c70 f i concretePolyList.obj
 0001:00002c70       ??_EConcretePolyList@@UAEPAXI@Z 00403c70 f i concretePolyList.obj
 0001:00002c90       ?addPoint@ConcretePolyList@@UAEIABVPoint3F@@@Z 00403c90 f   concretePolyList.obj
 0001:00002d10       ?addPlane@ConcretePolyList@@UAEIABVPlaneF@@@Z 00403d10 f   concretePolyList.obj
 0001:00002d70       ?begin@ConcretePolyList@@UAEXII@Z 00403d70 f   concretePolyList.obj
 0001:00002dd0       ?vertex@ConcretePolyList@@UAEXI@Z 00403dd0 f   concretePolyList.obj
 0001:00002e10       ??0ConcretePolyList@@QAE@XZ 00403e10 f   concretePolyList.obj
 0001:00002ee0       ?swap@CollisionState@@UAEXXZ 00403ee0 f   convex.obj
 0001:00002ef0       ?set@CollisionState@@UAEXPAVConvex@@0ABVMatrixF@@1@Z 00403ef0 f   convex.obj
 0001:00002f00       ?distance@CollisionState@@UAEMABVMatrixF@@0MPBV2@1@Z 00403f00 f   convex.obj
 0001:00002f10       ?render@CollisionState@@QAEXXZ 00403f10 f   convex.obj
 0001:00002f20       ??0CollisionStateList@@QAE@XZ 00403f20 f   convex.obj
 0001:00002f30       ?linkAfter@CollisionStateList@@QAEXPAU1@@Z 00403f30 f   convex.obj
 0001:00002f50       ?unlink@CollisionStateList@@QAEXXZ 00403f50 f   convex.obj
 0001:00002f70       ?free@CollisionStateList@@QAEXXZ 00403f70 f   convex.obj
 0001:00002fa0       ??0CollisionWorkingList@@QAE@XZ 00403fa0 f   convex.obj
 0001:00002fb0       ?wLinkAfter@CollisionWorkingList@@QAEXPAU1@@Z 00403fb0 f   convex.obj
 0001:00002fd0       ?rLinkAfter@CollisionWorkingList@@QAEXPAU1@@Z 00403fd0 f   convex.obj
 0001:00002ff0       ?unlink@CollisionWorkingList@@QAEXXZ 00403ff0 f   convex.obj
 0001:00003020       ?free@CollisionWorkingList@@QAEXXZ 00404020 f   convex.obj
 0001:00003070       ??0Convex@@QAE@XZ          00404070 f   convex.obj
 0001:000030b0       ?collectGarbage@Convex@@QAEXXZ 004040b0 f   convex.obj
 0001:000030f0       ?nukeList@Convex@@QAEXXZ   004040f0 f   convex.obj
 0001:00003120       ?linkAfter@Convex@@AAEXPAV1@@Z 00404120 f   convex.obj
 0001:00003140       ?unlink@Convex@@AAEXXZ     00404140 f   convex.obj
 0001:00003160       ?getFeatures@Convex@@UAEXABVMatrixF@@ABVPoint3F@@PAVConvexFeature@@@Z 00404160 f   convex.obj
 0001:00003170       _fabsf                     00404170 f i convex.obj
 0001:00003180       ?render@Convex@@QAEXXZ     00404180 f   convex.obj
 0001:000031a0       ?fabs@@YAMM@Z              004041a0 f i convex.obj
 0001:000031b0       ?getPolyList@Convex@@UAEXPAVAbstractPolyList@@@Z 004041b0 f   convex.obj
 0001:000031c0       ?m_matF_x_vectorF@@YAXPBM0PAM@Z 004041c0 f i convex.obj
 0001:00003220       ?mFabs@@YAMM@Z             00404220 f i convex.obj
 0001:00003230       ?mAbs@@YAHH@Z              00404230 f i convex.obj
 0001:00003240       ??BPoint3F@@QBEPAMXZ       00404240 f i convex.obj
 0001:00003250       ?end@?$Vector@VPoint3F@@@@QAEPAVPoint3F@@XZ 00404250 f i convex.obj
 0001:00003260       ??1?$Vector@PAVSceneObject@@@@QAE@XZ 00404260 f i convex.obj
 0001:00003270       ?size@?$Vector@PAVSceneObject@@@@QBEHXZ 00404270 f i convex.obj
 0001:00003280       ??A?$Vector@PAVSceneObject@@@@QAEAAPAVSceneObject@@I@Z 00404280 f i convex.obj
 0001:00003290       ??1?$Vector@UEdge@ConvexFeature@@@@QAE@XZ 00404290 f i convex.obj
 0001:000032a0       ?begin@?$Vector@UEdge@ConvexFeature@@@@QAEPAUEdge@ConvexFeature@@XZ 004042a0 f i convex.obj
 0001:000032b0       ??1?$Vector@UFace@ConvexFeature@@@@QAE@XZ 004042b0 f i convex.obj
 0001:000032c0       ?begin@?$Vector@UFace@ConvexFeature@@@@QAEPAUFace@ConvexFeature@@XZ 004042c0 f i convex.obj
 0001:000032d0       ??$constructInPlace@UCollisionStateList@@@@YAPAUCollisionStateList@@PAU0@@Z 004042d0 f i convex.obj
 0001:00003300       ??$constructInPlace@UCollisionWorkingList@@@@YAPAUCollisionWorkingList@@PAU0@@Z 00404300 f i convex.obj
 0001:00003330       ?resize@?$Vector@PAVSceneObject@@@@IAE_NI@Z 00404330 f i convex.obj
 0001:00003350       ?setMin@Point3F@@QAEXABV1@@Z 00404350 f i convex.obj
 0001:000033a0       ?setMax@Point3F@@QAEXABV1@@Z 004043a0 f i convex.obj
 0001:000033f0       ?convolve@Point3F@@QAEXABV1@@Z 004043f0 f i convex.obj
 0001:00003410       ?lenSquared@Point3F@@QBEMXZ 00404410 f i convex.obj
 0001:00003430       ??YPoint3F@@QAEAAV0@ABV0@@Z 00404430 f i convex.obj
 0001:00003460       ??ZPoint3F@@QAEAAV0@ABV0@@Z 00404460 f i convex.obj
 0001:00003490       ??DPoint3F@@QBE?AV0@M@Z    00404490 f i convex.obj
 0001:000034c0       ??XPoint3F@@QAEAAV0@M@Z    004044c0 f i convex.obj
 0001:000034f0       ??GPoint3F@@QBE?AV0@XZ     004044f0 f i convex.obj
 0001:00003510       ?mCross@@YAXABVPoint3F@@0PAV1@@Z 00404510 f i convex.obj
 0001:00003550       ?isOverlapped@Box3F@@QBE_NABV1@@Z 00404550 f i convex.obj
 0001:000035b0       ?inverse@MatrixF@@QAEAAV1@XZ 004045b0 f i convex.obj
 0001:000035d0       ?affineInverse@MatrixF@@QAEAAV1@XZ 004045d0 f i convex.obj
 0001:000035f0       ?scale@MatrixF@@QAEAAV1@ABVPoint3F@@@Z 004045f0 f i convex.obj
 0001:00003610       ?mulV@MatrixF@@QBEXABVPoint3F@@PAV2@@Z 00404610 f i convex.obj
 0001:00003670       ?mul@MatrixF@@QBEXAAVBox3F@@@Z 00404670 f i convex.obj
 0001:00003690       ?isCollisionEnabled@SceneObject@@QBE_NXZ 00404690 f i convex.obj
 0001:000036a0       ?getTransform@SceneObject@@QBEABVMatrixF@@XZ 004046a0 f i convex.obj
 0001:000036b0       ?getScale@SceneObject@@QBEABVPoint3F@@XZ 004046b0 f i convex.obj
 0001:000036c0       ?getObjBox@SceneObject@@QBEABVBox3F@@XZ 004046c0 f i convex.obj
 0001:000036d0       ?getWorldBox@SceneObject@@QBEABVBox3F@@XZ 004046d0 f i convex.obj
 0001:000036e0       ?getContainer@SceneObject@@QAEPAVContainer@@XZ 004046e0 f i convex.obj
 0001:000036f0       ?isEmpty@CollisionStateList@@QAE_NXZ 004046f0 f i convex.obj
 0001:00003700       ??_H@YGXPAXIHP6EPAX0@Z@Z   00404700 f i convex.obj
 0001:00003730       ??0CollisionState@@QAE@XZ  00404730 f   convex.obj
 0001:00003750       ??1CollisionState@@UAE@XZ  00404750 f   convex.obj
 0001:000037c0       ?isInside@@YA_NABVPoint3F@@000@Z 004047c0 f i convex.obj
 0001:00003850       ?alloc@CollisionStateList@@SAPAU1@XZ 00404850 f   convex.obj
 0001:000038a0       ?alloc@CollisionWorkingList@@SAPAU1@XZ 004048a0 f   convex.obj
 0001:00003910       ??1Convex@@UAE@XZ          00404910 f   convex.obj
 0001:00003a00       ?registerObject@Convex@@QAEXPAV1@@Z 00404a00 f   convex.obj
 0001:00003a20       ?support@Convex@@UBE?AVPoint3F@@ABV2@@Z 00404a20 f   convex.obj
 0001:00003a40       ?getTransform@Convex@@UBEABVMatrixF@@XZ 00404a40 f   convex.obj
 0001:00003a50       ?getScale@Convex@@UBEABVPoint3F@@XZ 00404a50 f   convex.obj
 0001:00003a60       ??0Box3F@@QAE@ABV0@@Z      00404a60 f i convex.obj
 0001:00003a90       ?getBoundingBox@Convex@@UBE?AVBox3F@@ABVMatrixF@@ABVPoint3F@@@Z 00404a90 f   convex.obj
 0001:00003b50       ?addToWorkingList@Convex@@QAEXPAV1@@Z 00404b50 f   convex.obj
 0001:00003b90       ??1SimpleQueryList@@QAE@XZ 00404b90 f i convex.obj
 0001:00003ba0       ?updateStateList@Convex@@QAEXABVMatrixF@@ABVPoint3F@@PBV3@@Z 00404ba0 f   convex.obj
 0001:00003ef0       ??1ConvexFeature@@QAE@XZ   00404ef0 f i convex.obj
 0001:00003f50       ?sqrDistanceEdges@@YAMABVPoint3F@@000PAV1@1@Z 00404f50 f   convex.obj
 0001:00004200       ??A?$Vector@VPoint3F@@@@QAEAAVPoint3F@@H@Z 00405200 f i convex.obj
 0001:00004210       ?reserve@?$Vector@PAVSceneObject@@@@QAEXI@Z 00405210 f i convex.obj
 0001:00004240       ?reserve@?$Vector@UEdge@ConvexFeature@@@@QAEXI@Z 00405240 f i convex.obj
 0001:00004270       ?reserve@?$Vector@UFace@ConvexFeature@@@@QAEXI@Z 00405270 f i convex.obj
 0001:000042a0       ??_ECollisionState@@UAEPAXI@Z 004052a0 f i convex.obj
 0001:000042a0       ??_GCollisionState@@UAEPAXI@Z 004052a0 f i convex.obj
 0001:000042c0       ?testVertex@ConvexFeature@@QAEXABVPoint3F@@PAUCollisionList@@_NM@Z 004052c0 f   convex.obj
 0001:00004440       ?inVolume@ConvexFeature@@QAE_NABVPoint3F@@@Z 00405440 f   convex.obj
 0001:000044b0       ??_GConvex@@UAEPAXI@Z      004054b0 f i convex.obj
 0001:000044b0       ??_EConvex@@UAEPAXI@Z      004054b0 f i convex.obj
 0001:000044d0       ?getBoundingBox@Convex@@UBE?AVBox3F@@XZ 004054d0 f   convex.obj
 0001:00004510       ?findClosestState@Convex@@QAEPAUCollisionState@@ABVMatrixF@@ABVPoint3F@@M@Z 00405510 f   convex.obj
 0001:000048a0       ??0?$Vector@PAVSceneObject@@@@QAE@I@Z 004058a0 f i convex.obj
 0001:000048f0       ??0?$Vector@UEdge@ConvexFeature@@@@QAE@I@Z 004058f0 f i convex.obj
 0001:00004940       ??0?$Vector@UFace@ConvexFeature@@@@QAE@I@Z 00405940 f i convex.obj
 0001:00004990       ??0SimpleQueryList@@QAE@XZ 00405990 f i convex.obj
 0001:000049a0       ??0ConvexFeature@@QAE@XZ   004059a0 f i convex.obj
 0001:00004a80       ?testEdge@ConvexFeature@@QAEXPAV1@ABVPoint3F@@1PAUCollisionList@@M@Z 00405a80 f   convex.obj
 0001:00004be0       ?updateWorkingList@Convex@@QAEXABVBox3F@@I@Z 00405be0 f   convex.obj
 0001:00004d70       ?collide@ConvexFeature@@QAE_NAAV1@PAUCollisionList@@M@Z 00405d70 f   convex.obj
 0001:00004e50       ?getCollisionInfo@Convex@@QAE_NABVMatrixF@@ABVPoint3F@@PAUCollisionList@@M@Z 00405e50 f   convex.obj
 0001:000050f0       ?wireCube@DepthSortList@@QAEXABVPoint3F@@0@Z 004060f0 f   depthSortList.obj
 0001:000051b0       ?clearSort@DepthSortList@@QAEXXZ 004061b0 f   depthSortList.obj
 0001:000051d0       ??A?$Vector@UPoly@ClippedPolyList@@@@QAEAAUPoly@ClippedPolyList@@I@Z 004061d0 f i depthSortList.obj
 0001:000051e0       ??0?$Vector@I@@QAE@PBDI@Z  004061e0 f i depthSortList.obj
 0001:000051f0       ?address@?$Vector@I@@QBEPAIXZ 004061f0 f i depthSortList.obj
 0001:00005200       ??1?$Vector@UPolyExtents@DepthSortList@@@@QAE@XZ 00406200 f i depthSortList.obj
 0001:00005210       ??A?$Vector@UPolyExtents@DepthSortList@@@@QAEAAUPolyExtents@DepthSortList@@I@Z 00406210 f i depthSortList.obj
 0001:00005220       ?clear@?$Vector@UPolyExtents@DepthSortList@@@@QAEXXZ 00406220 f i depthSortList.obj
 0001:00005230       ?last@?$Vector@UPolyExtents@DepthSortList@@@@QAEAAUPolyExtents@DepthSortList@@XZ 00406230 f i depthSortList.obj
 0001:00005240       ??0Point2F@@QAE@XZ         00406240 f i depthSortList.obj
 0001:00005250       ?resize@?$Vector@UPolyExtents@DepthSortList@@@@IAE_NI@Z 00406250 f i depthSortList.obj
 0001:00005270       ?reserve@?$Vector@UPolyExtents@DepthSortList@@@@QAEXI@Z 00406270 f i depthSortList.obj
 0001:000052a0       ?set@Point2F@@QAEXMM@Z     004062a0 f i depthSortList.obj
 0001:000052b0       ?set@PlaneF@@QAEXMMM@Z     004062b0 f i depthSortList.obj
 0001:000052d0       ?setBaseTransform@AbstractPolyList@@QAEXABVMatrixF@@@Z 004062d0 f i depthSortList.obj
 0001:000052f0       ?getExtents@DepthSortList@@QAEAAUPolyExtents@1@I@Z 004062f0 f i depthSortList.obj
 0001:00005310       ?getOrderedPoly@DepthSortList@@QAEXIPAPAUPoly@ClippedPolyList@@PAPAUPolyExtents@1@@Z 00406310 f i depthSortList.obj
 0001:00005350       ?set@ColorF@@QAEXMMMM@Z    00406350 f i depthSortList.obj
 0001:00005370       ??0ColorF@@QAE@MMMM@Z      00406370 f i depthSortList.obj
 0001:00005390       ??1DepthSortList@@UAE@XZ   00406390 f   depthSortList.obj
 0001:00005400       ?clear@DepthSortList@@QAEXXZ 00406400 f   depthSortList.obj
 0001:00005430       ?getMapping@DepthSortList@@UAE_NPAVMatrixF@@PAVBox3F@@@Z 00406430 f   depthSortList.obj
 0001:000054a0       ?compareYExtents@@YAHPBX0@Z 004064a0 f   depthSortList.obj
 0001:000054f0       ?sortByYExtents@DepthSortList@@QAEXXZ 004064f0 f   depthSortList.obj
 0001:00005520       ?setBase@DepthSortList@@QAEXH@Z 00406520 f   depthSortList.obj
 0001:00005590       ??0Poly@ClippedPolyList@@QAE@XZ 00406590 f i depthSortList.obj
 0001:000055a0       ?overlap@DepthSortList@@QAE_NPAUPoly@ClippedPolyList@@0@Z 004065a0 f   depthSortList.obj
 0001:00005d60       ??0Vertex@ClippedPolyList@@QAE@XZ 00406d60 f i depthSortList.obj
 0001:00005d70       ??A?$Vector@UPoly@ClippedPolyList@@@@QAEAAUPoly@ClippedPolyList@@H@Z 00406d70 f i depthSortList.obj
 0001:00005d80       ??A?$Vector@I@@QAEAAIH@Z   00406d80 f i depthSortList.obj
 0001:00005d90       ?setSize@?$Vector@UPoly@ClippedPolyList@@@@QAEII@Z 00406d90 f i depthSortList.obj
 0001:00005dc0       ?push_back@?$Vector@UVertex@ClippedPolyList@@@@QAEXABUVertex@ClippedPolyList@@@Z 00406dc0 f i depthSortList.obj
 0001:00005e10       ?setSize@?$Vector@UVertex@ClippedPolyList@@@@QAEII@Z 00406e10 f i depthSortList.obj
 0001:00005e40       ?insert@?$Vector@I@@QAEXI@Z 00406e40 f i depthSortList.obj
 0001:00005e90       ??0?$Vector@UPolyExtents@DepthSortList@@@@QAE@I@Z 00406e90 f i depthSortList.obj
 0001:00005ee0       ?increment@?$Vector@UPolyExtents@DepthSortList@@@@QAEXI@Z 00406ee0 f i depthSortList.obj
 0001:00005f10       ??0DepthSortList@@QAE@XZ   00406f10 f   depthSortList.obj
 0001:00005f70       ??_EDepthSortList@@UAEPAXI@Z 00406f70 f i depthSortList.obj
 0001:00005f70       ??_GDepthSortList@@UAEPAXI@Z 00406f70 f i depthSortList.obj
 0001:00005f90       ?render@DepthSortList@@QAEXXZ 00406f90 f   depthSortList.obj
 0001:00006120       ?setExtents@DepthSortList@@QAEXAAUPoly@ClippedPolyList@@AAUPolyExtents@1@@Z 00407120 f   depthSortList.obj
 0001:00006240       ?set@DepthSortList@@QAEXABVMatrixF@@AAVPoint3F@@@Z 00407240 f   depthSortList.obj
 0001:00006480       ?splitPoly@DepthSortList@@QAE_NABUPoly@ClippedPolyList@@AAVPoint3F@@MAAU23@2@Z 00407480 f   depthSortList.obj
 0001:00006b10       ?push_back@?$Vector@UPoly@ClippedPolyList@@@@QAEXABUPoly@ClippedPolyList@@@Z 00407b10 f i depthSortList.obj
 0001:00006b60       ?push_back@?$Vector@VPoint3F@@@@QAEXABVPoint3F@@@Z 00407b60 f i depthSortList.obj
 0001:00006bb0       ?end@DepthSortList@@UAEXXZ 00407bb0 f   depthSortList.obj
 0001:00006cd0       ?handleOverlap@DepthSortList@@QAEXPAUPoly@ClippedPolyList@@AAVPoint3F@@MAAHAA_N@Z 00407cd0 f   depthSortList.obj
 0001:00007320       ?cookieCutter@DepthSortList@@QAEXAAUPoly@ClippedPolyList@@0AAV?$Vector@UPoly@ClippedPolyList@@@@1AAV?$Vector@VPoint3F@@@@@Z 00408320 f   depthSortList.obj
 0001:00007670       ?sortNext@DepthSortList@@QAE_NXZ 00408670 f   depthSortList.obj
 0001:000079d0       ?sort@DepthSortList@@QAEXXZ 004089d0 f   depthSortList.obj
 0001:00007a10       ?depthPartition@DepthSortList@@QAEXPBVPoint3F@@IAAV?$Vector@UPoly@ClippedPolyList@@@@AAV?$Vector@VPoint3F@@@@@Z 00408a10 f   depthSortList.obj
 0001:00007c80       ?isEmpty@EarlyOutPolyList@@UBE_NXZ 00408c80 f   earlyOutPolyList.obj
 0001:00007c90       ?memcpy@EarlyOutPolyList@@AAEXPAI0I@Z 00408c90 f   earlyOutPolyList.obj
 0001:00007cc0       ??1?$Vector@UPoly@EarlyOutPolyList@@@@QAE@XZ 00408cc0 f i earlyOutPolyList.obj
 0001:00007cd0       ?decrement@?$Vector@UPoly@EarlyOutPolyList@@@@QAEXI@Z 00408cd0 f i earlyOutPolyList.obj
 0001:00007cf0       ?clear@?$Vector@UPoly@EarlyOutPolyList@@@@QAEXXZ 00408cf0 f i earlyOutPolyList.obj
 0001:00007d00       ?last@?$Vector@UPoly@EarlyOutPolyList@@@@QAEAAUPoly@EarlyOutPolyList@@XZ 00408d00 f i earlyOutPolyList.obj
 0001:00007d10       ??1?$Vector@UVertex@EarlyOutPolyList@@@@QAE@XZ 00408d10 f i earlyOutPolyList.obj
 0001:00007d20       ?size@?$Vector@UVertex@EarlyOutPolyList@@@@QBEHXZ 00408d20 f i earlyOutPolyList.obj
 0001:00007d30       ??A?$Vector@UVertex@EarlyOutPolyList@@@@QAEAAUVertex@EarlyOutPolyList@@I@Z 00408d30 f i earlyOutPolyList.obj
 0001:00007d40       ?clear@?$Vector@UVertex@EarlyOutPolyList@@@@QAEXXZ 00408d40 f i earlyOutPolyList.obj
 0001:00007d50       ?last@?$Vector@UVertex@EarlyOutPolyList@@@@QAEAAUVertex@EarlyOutPolyList@@XZ 00408d50 f i earlyOutPolyList.obj
 0001:00007d60       ?resize@?$Vector@UPoly@EarlyOutPolyList@@@@IAE_NI@Z 00408d60 f i earlyOutPolyList.obj
 0001:00007d80       ?reserve@?$Vector@UPoly@EarlyOutPolyList@@@@QAEXI@Z 00408d80 f i earlyOutPolyList.obj
 0001:00007db0       ?resize@?$Vector@UVertex@EarlyOutPolyList@@@@IAE_NI@Z 00408db0 f i earlyOutPolyList.obj
 0001:00007dd0       ?reserve@?$Vector@UVertex@EarlyOutPolyList@@@@QAEXI@Z 00408dd0 f i earlyOutPolyList.obj
 0001:00007e00       ??1EarlyOutPolyList@@UAE@XZ 00408e00 f   earlyOutPolyList.obj
 0001:00007ea0       ?clear@EarlyOutPolyList@@QAEXXZ 00408ea0 f   earlyOutPolyList.obj
 0001:00007ed0       ?plane@EarlyOutPolyList@@UAEXIII@Z 00408ed0 f   earlyOutPolyList.obj
 0001:00007f30       ?plane@EarlyOutPolyList@@UAEXABVPlaneF@@@Z 00408f30 f   earlyOutPolyList.obj
 0001:00007f60       ?plane@EarlyOutPolyList@@UAEXI@Z 00408f60 f   earlyOutPolyList.obj
 0001:00007fb0       ?getIndexedPlane@EarlyOutPolyList@@MAEABVPlaneF@@I@Z 00408fb0 f   earlyOutPolyList.obj
 0001:00007fd0       ??0?$Vector@UPoly@EarlyOutPolyList@@@@QAE@I@Z 00408fd0 f i earlyOutPolyList.obj
 0001:00008020       ?increment@?$Vector@UPoly@EarlyOutPolyList@@@@QAEXI@Z 00409020 f i earlyOutPolyList.obj
 0001:00008050       ??0?$Vector@UVertex@EarlyOutPolyList@@@@QAE@I@Z 00409050 f i earlyOutPolyList.obj
 0001:000080a0       ?increment@?$Vector@UVertex@EarlyOutPolyList@@@@QAEXI@Z 004090a0 f i earlyOutPolyList.obj
 0001:000080d0       ??_GEarlyOutPolyList@@UAEPAXI@Z 004090d0 f i earlyOutPolyList.obj
 0001:000080d0       ??_EEarlyOutPolyList@@UAEPAXI@Z 004090d0 f i earlyOutPolyList.obj
 0001:000080f0       ?addPoint@EarlyOutPolyList@@UAEIABVPoint3F@@@Z 004090f0 f   earlyOutPolyList.obj
 0001:000081e0       ?addPlane@EarlyOutPolyList@@UAEIABVPlaneF@@@Z 004091e0 f   earlyOutPolyList.obj
 0001:00008240       ?begin@EarlyOutPolyList@@UAEXII@Z 00409240 f   earlyOutPolyList.obj
 0001:000082b0       ?vertex@EarlyOutPolyList@@UAEXI@Z 004092b0 f   earlyOutPolyList.obj
 0001:00008300       ?end@EarlyOutPolyList@@UAEXXZ 00409300 f   earlyOutPolyList.obj
 0001:000087c0       ??0EarlyOutPolyList@@QAE@XZ 004097c0 f   earlyOutPolyList.obj
 0001:000088c0       ?isEmpty@ExtrudedPolyList@@UBE_NXZ 004098c0 f   extrudedPolyList.obj
 0001:000088e0       ?setCollisionList@ExtrudedPolyList@@QAEXPAUCollisionList@@@Z 004098e0 f   extrudedPolyList.obj
 0001:00008910       ?adjustCollisionTime@ExtrudedPolyList@@QAEXXZ 00409910 f   extrudedPolyList.obj
 0001:00008980       ?plane@ExtrudedPolyList@@UAEXABVPlaneF@@@Z 00409980 f   extrudedPolyList.obj
 0001:000089a0       ??1?$Vector@UVertex@ExtrudedPolyList@@@@QAE@XZ 004099a0 f i extrudedPolyList.obj
 0001:000089b0       ?size@?$Vector@UVertex@ExtrudedPolyList@@@@QBEHXZ 004099b0 f i extrudedPolyList.obj
 0001:000089c0       ??A?$Vector@UVertex@ExtrudedPolyList@@@@QAEAAUVertex@ExtrudedPolyList@@I@Z 004099c0 f i extrudedPolyList.obj
 0001:000089d0       ?clear@?$Vector@UVertex@ExtrudedPolyList@@@@QAEXXZ 004099d0 f i extrudedPolyList.obj
 0001:000089e0       ?last@?$Vector@UVertex@ExtrudedPolyList@@@@QAEAAUVertex@ExtrudedPolyList@@XZ 004099e0 f i extrudedPolyList.obj
 0001:000089f0       ??1?$Vector@UExtrudedFace@ExtrudedPolyList@@@@QAE@XZ 004099f0 f i extrudedPolyList.obj
 0001:00008a00       ?begin@?$Vector@UExtrudedFace@ExtrudedPolyList@@@@QAEPAUExtrudedFace@ExtrudedPolyList@@XZ 00409a00 f i extrudedPolyList.obj
 0001:00008a10       ?end@?$Vector@UExtrudedFace@ExtrudedPolyList@@@@QAEPAUExtrudedFace@ExtrudedPolyList@@XZ 00409a10 f i extrudedPolyList.obj
 0001:00008a20       ??A?$Vector@UExtrudedFace@ExtrudedPolyList@@@@QAEAAUExtrudedFace@ExtrudedPolyList@@I@Z 00409a20 f i extrudedPolyList.obj
 0001:00008a30       ?end@?$Vector@VPlaneF@@@@QAEPAVPlaneF@@XZ 00409a30 f i extrudedPolyList.obj
 0001:00008a40       ??A?$Vector@VPlaneF@@@@QBEABVPlaneF@@I@Z 00409a40 f i extrudedPolyList.obj
 0001:00008a50       ??A?$Vector@VPoint3F@@@@QBEABVPoint3F@@I@Z 00409a50 f i extrudedPolyList.obj
 0001:00008a60       ?size@?$Vector@UEdge@Polyhedron@@@@QBEHXZ 00409a60 f i extrudedPolyList.obj
 0001:00008a70       ??A?$Vector@UEdge@Polyhedron@@@@QBEABUEdge@Polyhedron@@I@Z 00409a70 f i extrudedPolyList.obj
 0001:00008a80       ?resize@?$Vector@UVertex@ExtrudedPolyList@@@@IAE_NI@Z 00409a80 f i extrudedPolyList.obj
 0001:00008aa0       ?resize@?$Vector@UExtrudedFace@ExtrudedPolyList@@@@IAE_NI@Z 00409aa0 f i extrudedPolyList.obj
 0001:00008ac0       ?reserve@?$Vector@UExtrudedFace@ExtrudedPolyList@@@@QAEXI@Z 00409ac0 f i extrudedPolyList.obj
 0001:00008af0       ?isZero@Point3F@@QBE_NXZ   00409af0 f i extrudedPolyList.obj
 0001:00008b40       ?invert@PlaneF@@QAEXXZ     00409b40 f i extrudedPolyList.obj
 0001:00008b60       ?clearInterestNormal@AbstractPolyList@@QAEXXZ 00409b60 f i extrudedPolyList.obj
 0001:00008b70       ??0Poly@ExtrudedPolyList@@QAE@XZ 00409b70 f i extrudedPolyList.obj
 0001:00008b80       ??1ExtrudedPolyList@@UAE@XZ 00409b80 f   extrudedPolyList.obj
 0001:00008c20       ?begin@ExtrudedPolyList@@UAEXII@Z 00409c20 f   extrudedPolyList.obj
 0001:00008c40       ?plane@ExtrudedPolyList@@UAEXIII@Z 00409c40 f   extrudedPolyList.obj
 0001:00008c80       ?plane@ExtrudedPolyList@@UAEXI@Z 00409c80 f   extrudedPolyList.obj
 0001:00008cb0       ?getIndexedPlane@ExtrudedPolyList@@MAEABVPlaneF@@I@Z 00409cb0 f   extrudedPolyList.obj
 0001:00008cd0       ?render@ExtrudedPolyList@@QAEXXZ 00409cd0 f   extrudedPolyList.obj
 0001:00008d80       ?setVelocity@ExtrudedPolyList@@QAEXABVPoint3F@@@Z 00409d80 f   extrudedPolyList.obj
 0001:00008e30       ?reserve@?$Vector@UVertex@ExtrudedPolyList@@@@QAEXI@Z 00409e30 f i extrudedPolyList.obj
 0001:00008e60       ?setSize@?$Vector@UVertex@ExtrudedPolyList@@@@QAEII@Z 00409e60 f i extrudedPolyList.obj
 0001:00008e90       ?increment@?$Vector@UVertex@ExtrudedPolyList@@@@QAEXI@Z 00409e90 f i extrudedPolyList.obj
 0001:00008ec0       ??0?$Vector@UExtrudedFace@ExtrudedPolyList@@@@QAE@I@Z 00409ec0 f i extrudedPolyList.obj
 0001:00008f10       ?setSize@?$Vector@UExtrudedFace@ExtrudedPolyList@@@@QAEII@Z 00409f10 f i extrudedPolyList.obj
 0001:00008f40       ??_EExtrudedPolyList@@UAEPAXI@Z 00409f40 f i extrudedPolyList.obj
 0001:00008f40       ??_GExtrudedPolyList@@UAEPAXI@Z 00409f40 f i extrudedPolyList.obj
 0001:00008f60       ?extrude@ExtrudedPolyList@@QAEXABUPolyhedron@@ABVPoint3F@@@Z 00409f60 f   extrudedPolyList.obj
 0001:00009250       ?addPoint@ExtrudedPolyList@@UAEIABVPoint3F@@@Z 0040a250 f   extrudedPolyList.obj
 0001:00009330       ?addPlane@ExtrudedPolyList@@UAEIABVPlaneF@@@Z 0040a330 f   extrudedPolyList.obj
 0001:00009390       ?vertex@ExtrudedPolyList@@UAEXI@Z 0040a390 f   extrudedPolyList.obj
 0001:000093d0       ?testPoly@ExtrudedPolyList@@AAE_NAAUExtrudedFace@1@@Z 0040a3d0 f   extrudedPolyList.obj
 0001:00009ba0       ??0?$Vector@UVertex@ExtrudedPolyList@@@@QAE@I@Z 0040aba0 f i extrudedPolyList.obj
 0001:00009bf0       ??0ExtrudedPolyList@@QAE@XZ 0040abf0 f   extrudedPolyList.obj
 0001:00009d70       ?end@ExtrudedPolyList@@UAEXXZ 0040ad70 f   extrudedPolyList.obj
 0001:0000a120       ??1GjkCollisionState@@UAE@XZ 0040b120 f   gjk.obj
 0001:0000a130       ?valid@GjkCollisionState@@QAE_NH@Z 0040b130 f i gjk.obj
 0001:0000a1a0       ?nextBit@GjkCollisionState@@QAEXXZ 0040b1a0 f i gjk.obj
 0001:0000a1f0       ?len@Point3F@@QBEMXZ       0040b1f0 f i gjk.obj
 0001:0000a220       ??8Point3F@@QBE_NABV0@@Z   0040b220 f i gjk.obj
 0001:0000a260       ??0GjkCollisionState@@QAE@XZ 0040b260 f   gjk.obj
 0001:0000a280       ??_GGjkCollisionState@@UAEPAXI@Z 0040b280 f i gjk.obj
 0001:0000a280       ??_EGjkCollisionState@@UAEPAXI@Z 0040b280 f i gjk.obj
 0001:0000a2a0       ?swap@GjkCollisionState@@UAEXXZ 0040b2a0 f   gjk.obj
 0001:0000a2e0       ?compute_det@GjkCollisionState@@QAEXXZ 0040b2e0 f   gjk.obj
 0001:0000a7d0       ?compute_vector@GjkCollisionState@@QAEXHAAVPoint3F@@@Z 0040b7d0 f i gjk.obj
 0001:0000a940       ?closest@GjkCollisionState@@QAE_NAAVPoint3F@@@Z 0040b940 f i gjk.obj
 0001:0000a9f0       ?degenerate@GjkCollisionState@@QAE_NABVPoint3F@@@Z 0040b9f0 f i gjk.obj
 0001:0000aa60       ?reset@GjkCollisionState@@QAEXABVMatrixF@@0@Z 0040ba60 f   gjk.obj
 0001:0000abb0       ?getClosestPoints@GjkCollisionState@@QAEXAAVPoint3F@@0@Z 0040bbb0 f   gjk.obj
 0001:0000ae60       ?renderCross@@YAXVPoint3F@@@Z 0040be60 f i gjk.obj
 0001:0000af70       ?render@GjkCollisionState@@QAEXXZ 0040bf70 f   gjk.obj
 0001:0000b2a0       ?set@GjkCollisionState@@UAEXPAVConvex@@0ABVMatrixF@@1@Z 0040c2a0 f   gjk.obj
 0001:0000b2f0       ?getCollisionInfo@GjkCollisionState@@QAEXABVMatrixF@@PAUCollision@@@Z 0040c2f0 f   gjk.obj
 0001:0000b470       ?intersect@GjkCollisionState@@QAE_NABVMatrixF@@0@Z 0040c470 f   gjk.obj
 0001:0000b850       ?distance@GjkCollisionState@@UAEMABVMatrixF@@0MPBV2@1@Z 0040c850 f   gjk.obj
 0001:0000bcf0       ?isEmpty@PlaneExtractorPolyList@@UBE_NXZ 0040ccf0 f   planeExtractor.obj
 0001:0000bd00       ?vertex@PlaneExtractorPolyList@@UAEXI@Z 0040cd00 f   planeExtractor.obj
 0001:0000bd10       ?render@PlaneExtractorPolyList@@QAEXXZ 0040cd10 f   planeExtractor.obj
 0001:0000bd20       ?begin@?$Vector@VPlaneF@@@@QAEPAVPlaneF@@XZ 0040cd20 f i planeExtractor.obj
 0001:0000bd30       ?decrement@?$Vector@VPlaneF@@@@QAEXI@Z 0040cd30 f i planeExtractor.obj
 0001:0000bd50       ??1PlaneExtractorPolyList@@UAE@XZ 0040cd50 f   planeExtractor.obj
 0001:0000bdc0       ?clear@PlaneExtractorPolyList@@QAEXXZ 0040cdc0 f   planeExtractor.obj
 0001:0000bdd0       ?plane@PlaneExtractorPolyList@@UAEXIII@Z 0040cdd0 f   planeExtractor.obj
 0001:0000be20       ?plane@PlaneExtractorPolyList@@UAEXABVPlaneF@@@Z 0040ce20 f   planeExtractor.obj
 0001:0000be50       ?plane@PlaneExtractorPolyList@@UAEXI@Z 0040ce50 f   planeExtractor.obj
 0001:0000be90       ?getIndexedPlane@PlaneExtractorPolyList@@MAEABVPlaneF@@I@Z 0040ce90 f   planeExtractor.obj
 0001:0000beb0       ?end@PlaneExtractorPolyList@@UAEXXZ 0040ceb0 f   planeExtractor.obj
 0001:0000bf30       ??_EPlaneExtractorPolyList@@UAEPAXI@Z 0040cf30 f i planeExtractor.obj
 0001:0000bf30       ??_GPlaneExtractorPolyList@@UAEPAXI@Z 0040cf30 f i planeExtractor.obj
 0001:0000bf50       ?addPoint@PlaneExtractorPolyList@@UAEIABVPoint3F@@@Z 0040cf50 f   planeExtractor.obj
 0001:0000bfd0       ?addPlane@PlaneExtractorPolyList@@UAEIABVPlaneF@@@Z 0040cfd0 f   planeExtractor.obj
 0001:0000c030       ?begin@PlaneExtractorPolyList@@UAEXII@Z 0040d030 f   planeExtractor.obj
 0001:0000c060       ??0PlaneExtractorPolyList@@QAE@XZ 0040d060 f   planeExtractor.obj
 0001:0000c0d0       ?begin@?$Vector@UEdge@Polyhedron@@@@QAEPAUEdge@Polyhedron@@XZ 0040d0d0 f i polyhedron.obj
 0001:0000c0e0       ??A?$Vector@UEdge@Polyhedron@@@@QAEAAUEdge@Polyhedron@@I@Z 0040d0e0 f i polyhedron.obj
 0001:0000c0f0       ?resize@?$Vector@UEdge@Polyhedron@@@@IAE_NI@Z 0040d0f0 f i polyhedron.obj
 0001:0000c110       ??_0Point3F@@QAEAAV0@M@Z   0040d110 f i polyhedron.obj
 0001:0000c140       ?len_x@Box3F@@QBEMXZ       0040d140 f i polyhedron.obj
 0001:0000c150       ?len_y@Box3F@@QBEMXZ       0040d150 f i polyhedron.obj
 0001:0000c160       ?len_z@Box3F@@QBEMXZ       0040d160 f i polyhedron.obj
 0001:0000c170       ??A?$Vector@VPlaneF@@@@QAEAAVPlaneF@@H@Z 0040d170 f i polyhedron.obj
 0001:0000c180       ??A?$Vector@UEdge@Polyhedron@@@@QAEAAUEdge@Polyhedron@@H@Z 0040d180 f i polyhedron.obj
 0001:0000c190       ?setSize@?$Vector@VPoint3F@@@@QAEII@Z 0040d190 f i polyhedron.obj
 0001:0000c1c0       ?setSize@?$Vector@VPlaneF@@@@QAEII@Z 0040d1c0 f i polyhedron.obj
 0001:0000c1f0       ?setSize@?$Vector@UEdge@Polyhedron@@@@QAEII@Z 0040d1f0 f i polyhedron.obj
 0001:0000c220       ?buildBox@Polyhedron@@QAEXABVMatrixF@@ABVBox3F@@@Z 0040d220 f   polyhedron.obj
 0001:0000c7a0       ?render@Polyhedron@@QAEXXZ 0040d7a0 f   polyhedron.obj
 0001:0000cb50       ?render@Polyhedron@@QAEXABVPoint3F@@M@Z 0040db50 f   polyhedron.obj
 0001:0000cef0       ??1?$Vector@UEdge@Polytope@@@@QAE@XZ 0040def0 f i polytope.obj
 0001:0000cf00       ?begin@?$Vector@UEdge@Polytope@@@@QAEPAUEdge@Polytope@@XZ 0040df00 f i polytope.obj
 0001:0000cf10       ?end@?$Vector@UEdge@Polytope@@@@QAEPAUEdge@Polytope@@XZ 0040df10 f i polytope.obj
 0001:0000cf20       ?size@?$Vector@UEdge@Polytope@@@@QBEHXZ 0040df20 f i polytope.obj
 0001:0000cf30       ??A?$Vector@UEdge@Polytope@@@@QAEAAUEdge@Polytope@@I@Z 0040df30 f i polytope.obj
 0001:0000cf40       ?clear@?$Vector@UEdge@Polytope@@@@QAEXXZ 0040df40 f i polytope.obj
 0001:0000cf50       ?last@?$Vector@UEdge@Polytope@@@@QAEAAUEdge@Polytope@@XZ 0040df50 f i polytope.obj
 0001:0000cf60       ??1?$Vector@UFace@Polytope@@@@QAE@XZ 0040df60 f i polytope.obj
 0001:0000cf70       ?size@?$Vector@UFace@Polytope@@@@QBEHXZ 0040df70 f i polytope.obj
 0001:0000cf80       ??A?$Vector@UFace@Polytope@@@@QAEAAUFace@Polytope@@I@Z 0040df80 f i polytope.obj
 0001:0000cf90       ?clear@?$Vector@UFace@Polytope@@@@QAEXXZ 0040df90 f i polytope.obj
 0001:0000cfa0       ?last@?$Vector@UFace@Polytope@@@@QAEAAUFace@Polytope@@XZ 0040dfa0 f i polytope.obj
 0001:0000cfb0       ??1?$Vector@UVertex@Polytope@@@@QAE@XZ 0040dfb0 f i polytope.obj
 0001:0000cfc0       ?end@?$Vector@UVertex@Polytope@@@@QAEPAUVertex@Polytope@@XZ 0040dfc0 f i polytope.obj
 0001:0000cfd0       ?size@?$Vector@UVertex@Polytope@@@@QBEHXZ 0040dfd0 f i polytope.obj
 0001:0000cfe0       ??A?$Vector@UVertex@Polytope@@@@QAEAAUVertex@Polytope@@I@Z 0040dfe0 f i polytope.obj
 0001:0000cff0       ?address@?$Vector@UVertex@Polytope@@@@QBEPAUVertex@Polytope@@XZ 0040dff0 f i polytope.obj
 0001:0000d000       ?clear@?$Vector@UVertex@Polytope@@@@QAEXXZ 0040e000 f i polytope.obj
 0001:0000d010       ?last@?$Vector@UVertex@Polytope@@@@QAEAAUVertex@Polytope@@XZ 0040e010 f i polytope.obj
 0001:0000d020       ??1?$Vector@UVolume@Polytope@@@@QAE@XZ 0040e020 f i polytope.obj
 0001:0000d030       ?begin@?$Vector@UVolume@Polytope@@@@QAEPAUVolume@Polytope@@XZ 0040e030 f i polytope.obj
 0001:0000d040       ?end@?$Vector@UVolume@Polytope@@@@QAEPAUVolume@Polytope@@XZ 0040e040 f i polytope.obj
 0001:0000d050       ?size@?$Vector@UVolume@Polytope@@@@QBEHXZ 0040e050 f i polytope.obj
 0001:0000d060       ??A?$Vector@UVolume@Polytope@@@@QAEAAUVolume@Polytope@@I@Z 0040e060 f i polytope.obj
 0001:0000d070       ?clear@?$Vector@UVolume@Polytope@@@@QAEXXZ 0040e070 f i polytope.obj
 0001:0000d080       ?last@?$Vector@UVolume@Polytope@@@@QAEAAUVolume@Polytope@@XZ 0040e080 f i polytope.obj
 0001:0000d090       ??1?$Vector@UStackElement@Polytope@@@@QAE@XZ 0040e090 f i polytope.obj
 0001:0000d0a0       ?empty@?$Vector@UStackElement@Polytope@@@@QBE_NXZ 0040e0a0 f i polytope.obj
 0001:0000d0b0       ?last@?$Vector@UStackElement@Polytope@@@@QAEAAUStackElement@Polytope@@XZ 0040e0b0 f i polytope.obj
 0001:0000d0c0       ?resize@?$Vector@UEdge@Polytope@@@@IAE_NI@Z 0040e0c0 f i polytope.obj
 0001:0000d0e0       ?resize@?$Vector@UFace@Polytope@@@@IAE_NI@Z 0040e0e0 f i polytope.obj
 0001:0000d100       ?resize@?$Vector@UVertex@Polytope@@@@IAE_NI@Z 0040e100 f i polytope.obj
 0001:0000d120       ?resize@?$Vector@UVolume@Polytope@@@@IAE_NI@Z 0040e120 f i polytope.obj
 0001:0000d140       ?resize@?$Vector@UStackElement@Polytope@@@@IAE_NI@Z 0040e140 f i polytope.obj
 0001:0000d160       ?decrement@?$Vector@UStackElement@Polytope@@@@QAEXI@Z 0040e160 f i polytope.obj
 0001:0000d180       ??0Face@Polytope@@QAE@XZ   0040e180 f i polytope.obj
 0001:0000d190       ??A?$Vector@UEdge@Polytope@@@@QAEAAUEdge@Polytope@@H@Z 0040e190 f i polytope.obj
 0001:0000d1a0       ??A?$Vector@UFace@Polytope@@@@QAEAAUFace@Polytope@@H@Z 0040e1a0 f i polytope.obj
 0001:0000d1b0       ??A?$Vector@UVertex@Polytope@@@@QAEAAUVertex@Polytope@@H@Z 0040e1b0 f i polytope.obj
 0001:0000d1c0       ??A?$Vector@UVolume@Polytope@@@@QAEAAUVolume@Polytope@@H@Z 0040e1c0 f i polytope.obj
 0001:0000d1d0       ?reserve@?$Vector@UEdge@Polytope@@@@QAEXI@Z 0040e1d0 f i polytope.obj
 0001:0000d200       ?setSize@?$Vector@UEdge@Polytope@@@@QAEII@Z 0040e200 f i polytope.obj
 0001:0000d230       ?increment@?$Vector@UEdge@Polytope@@@@QAEXI@Z 0040e230 f i polytope.obj
 0001:0000d260       ?reserve@?$Vector@UFace@Polytope@@@@QAEXI@Z 0040e260 f i polytope.obj
 0001:0000d290       ?setSize@?$Vector@UFace@Polytope@@@@QAEII@Z 0040e290 f i polytope.obj
 0001:0000d2c0       ?increment@?$Vector@UFace@Polytope@@@@QAEXI@Z 0040e2c0 f i polytope.obj
 0001:0000d2f0       ?reserve@?$Vector@UVertex@Polytope@@@@QAEXI@Z 0040e2f0 f i polytope.obj
 0001:0000d320       ?setSize@?$Vector@UVertex@Polytope@@@@QAEII@Z 0040e320 f i polytope.obj
 0001:0000d350       ?increment@?$Vector@UVertex@Polytope@@@@QAEXI@Z 0040e350 f i polytope.obj
 0001:0000d380       ?reserve@?$Vector@UVolume@Polytope@@@@QAEXI@Z 0040e380 f i polytope.obj
 0001:0000d3b0       ?setSize@?$Vector@UVolume@Polytope@@@@QAEII@Z 0040e3b0 f i polytope.obj
 0001:0000d3e0       ?increment@?$Vector@UVolume@Polytope@@@@QAEXI@Z 0040e3e0 f i polytope.obj
 0001:0000d410       ?pop_back@?$Vector@UStackElement@Polytope@@@@QAEXXZ 0040e410 f i polytope.obj
 0001:0000d430       ?reserve@?$Vector@UStackElement@Polytope@@@@QAEXI@Z 0040e430 f i polytope.obj
 0001:0000d460       ?increment@?$Vector@UStackElement@Polytope@@@@QAEXI@Z 0040e460 f i polytope.obj
 0001:0000d490       ?buildBox@Polytope@@QAEXABVMatrixF@@ABVBox3F@@@Z 0040e490 f   polytope.obj
 0001:0000db10       ?intersect@Polytope@@AAE_NABVPlaneF@@ABVPoint3F@@1@Z 0040eb10 f   polytope.obj
 0001:0000dc00       ?render@Polytope@@QAEXXZ   0040ec00 f   polytope.obj
 0001:0000dcc0       ?findCollision@Polytope@@QAE_NABVPoint3F@@PAUCollision@1@@Z 0040ecc0 f   polytope.obj
 0001:0000df50       ??0?$Vector@UEdge@Polytope@@@@QAE@I@Z 0040ef50 f i polytope.obj
 0001:0000dfa0       ?push_back@?$Vector@UEdge@Polytope@@@@QAEXABUEdge@Polytope@@@Z 0040efa0 f i polytope.obj
 0001:0000e000       ??0?$Vector@UFace@Polytope@@@@QAE@I@Z 0040f000 f i polytope.obj
 0001:0000e050       ?push_back@?$Vector@UFace@Polytope@@@@QAEXABUFace@Polytope@@@Z 0040f050 f i polytope.obj
 0001:0000e0b0       ??0?$Vector@UVertex@Polytope@@@@QAE@I@Z 0040f0b0 f i polytope.obj
 0001:0000e100       ??0?$Vector@UVolume@Polytope@@@@QAE@I@Z 0040f100 f i polytope.obj
 0001:0000e150       ??0?$Vector@UStackElement@Polytope@@@@QAE@I@Z 0040f150 f i polytope.obj
 0001:0000e1a0       ?push_back@?$Vector@UStackElement@Polytope@@@@QAEXABUStackElement@Polytope@@@Z 0040f1a0 f i polytope.obj
 0001:0000e1e0       ??0Polytope@@QAE@XZ        0040f1e0 f   polytope.obj
 0001:0000e320       ?intersect@Polytope@@QAEXPAVSimObject@@PBUBSPNode@@@Z 0040f320 f   polytope.obj
 0001:0000e8d0       ?extrudeFace@Polytope@@QAEXHABVPoint3F@@PAV1@@Z 0040f8d0 f   polytope.obj
 0001:0000ed10       ?consoleStringToNumber@@YANPBD0I@Z 0040fd10 f   compiledEval.obj
 0001:0000ed90       ?validateBufferSize@StringStack@@QAEXI@Z 0040fd90 f i compiledEval.obj
 0001:0000edc0       ?validateArgBufferSize@StringStack@@QAEXI@Z 0040fdc0 f i compiledEval.obj
 0001:0000ee00       ?getMin@@YAIII@Z           0040fe00 f i compiledEval.obj
 0001:0000ee10       ??0StringStack@@QAE@XZ     0040fe10 f i compiledEval.obj
 0001:0000ee90       ?setIntValue@StringStack@@QAEXI@Z 0040fe90 f i compiledEval.obj
 0001:0000eef0       ?setFloatValue@StringStack@@QAEXN@Z 0040fef0 f i compiledEval.obj
 0001:0000ef60       ?getReturnBuffer@StringStack@@QAEPADI@Z 0040ff60 f i compiledEval.obj
 0001:0000efe0       ?getArgBuffer@StringStack@@QAEPADI@Z 0040ffe0 f i compiledEval.obj
 0001:0000f040       ?clearFunctionOffset@StringStack@@QAEXXZ 00410040 f i compiledEval.obj
 0001:0000f050       ?setStringValue@StringStack@@QAEXPBD@Z 00410050 f i compiledEval.obj
 0001:0000f0c0       ?getSTValue@StringStack@@QAEPBDXZ 004100c0 f i compiledEval.obj
 0001:0000f0e0       ?getIntValue@StringStack@@QAEIXZ 004100e0 f i compiledEval.obj
 0001:0000f100       ?getFloatValue@StringStack@@QAENXZ 00410100 f i compiledEval.obj
 0001:0000f110       ?getStringValue@StringStack@@QAEPBDXZ 00410110 f i compiledEval.obj
 0001:0000f120       ?advance@StringStack@@QAEXXZ 00410120 f i compiledEval.obj
 0001:0000f160       ?advanceChar@StringStack@@QAEXD@Z 00410160 f i compiledEval.obj
 0001:0000f1d0       ?push@StringStack@@QAEXXZ  004101d0 f i compiledEval.obj
 0001:0000f1e0       ?setLen@StringStack@@QAEXI@Z 004101e0 f i compiledEval.obj
 0001:0000f1f0       ?rewind@StringStack@@QAEXXZ 004101f0 f i compiledEval.obj
 0001:0000f230       ?rewindTerminate@StringStack@@QAEXXZ 00410230 f i compiledEval.obj
 0001:0000f270       ?compare@StringStack@@QAEIXZ 00410270 f i compiledEval.obj
 0001:0000f2c0       ?pushFrame@StringStack@@QAEXXZ 004102c0 f i compiledEval.obj
 0001:0000f310       ??0BitSet32@@QAE@I@Z       00410310 f i compiledEval.obj
 0001:0000f320       ?getArgcArgv@StringStack@@QAEXPBDPAIPAPAPBD@Z 00410320 f   compiledEval.obj
 0001:0000f3c0       ?set@BitSet32@@QAEXI@Z     004103c0 f i compiledEval.obj
 0001:0000f3d0       ?clear@BitSet32@@QAEXI@Z   004103d0 f i compiledEval.obj
 0001:0000f3e0       ?getReturnBuffer@Con@@YAPADI@Z 004103e0 f   compiledEval.obj
 0001:0000f3f0       ?getArgBuffer@Con@@YAPADI@Z 004103f0 f   compiledEval.obj
 0001:0000f400       ?test@BitSet32@@QBE_NI@Z   00410400 f i compiledEval.obj
 0001:0000f410       ?getFloatArg@Con@@YAPADN@Z 00410410 f   compiledEval.obj
 0001:0000f490       ?getIntArg@Con@@YAPADH@Z   00410490 f   compiledEval.obj
 0001:0000f500       ?setStringVariable@ExprEvalState@@QAEXPBD@Z 00410500 f i compiledEval.obj
 0001:0000f510       ?getIntValue@Entry@Dictionary@@QAEIXZ 00410510 f i compiledEval.obj
 0001:0000f540       ?getFloatValue@Entry@Dictionary@@QAEMXZ 00410540 f i compiledEval.obj
 0001:0000f570       ?getStringValue@Entry@Dictionary@@QAEPBDXZ 00410570 f i compiledEval.obj
 0001:0000f5d0       ?setIntValue@Entry@Dictionary@@QAEXI@Z 004105d0 f i compiledEval.obj
 0001:0000f670       ?setFloatValue@Entry@Dictionary@@QAEXM@Z 00410670 f i compiledEval.obj
 0001:0000f700       ?U32toSTE@@YAPBDI@Z        00410700 f i compiledEval.obj
 0001:0000f710       ?getClassName@AbstractClassRep@@QBEPBDXZ 00410710 f i compiledEval.obj
 0001:0000f720       ?getClassName@ConsoleObject@@QBEPBDXZ 00410720 f i compiledEval.obj
 0001:0000f730       ?create@ConsoleObject@@SAPAV1@PBD@Z 00410730 f i compiledEval.obj
 0001:0000f740       ?getId@SimObject@@QBEIXZ   00410740 f i compiledEval.obj
 0001:0000f750       ?getName@SimObject@@QBEPBDXZ 00410750 f i compiledEval.obj
 0001:0000f760       ?getGroup@SimObject@@QBEPAVSimGroup@@XZ 00410760 f i compiledEval.obj
 0001:0000f770       ?isProperlyAdded@SimObject@@QBE_NXZ 00410770 f i compiledEval.obj
 0001:0000f780       ?getNamespace@SimObject@@QAEPAVNamespace@@XZ 00410780 f i compiledEval.obj
 0001:0000f790       ?setModDynamicFields@SimObject@@QAEX_N@Z 00410790 f i compiledEval.obj
 0001:0000f7c0       ?setModStaticFields@SimObject@@QAEX_N@Z 004107c0 f i compiledEval.obj
 0001:0000f7e0       ?size@?$Vector@PAVDictionary@@@@QBEHXZ 004107e0 f i compiledEval.obj
 0001:0000f7f0       ?last@?$Vector@PAVDictionary@@@@QAEAAPAVDictionary@@XZ 004107f0 f i compiledEval.obj
 0001:0000f800       ??$findObject@VSimObject@@@Sim@@YA_NPBDAAPAVSimObject@@@Z 00410800 f i compiledEval.obj
 0001:0000f820       ??$findObject@VSimGroup@@@Sim@@YA_NPBDAAPAVSimGroup@@@Z 00410820 f i compiledEval.obj
 0001:0000f860       ??$findObject@VSimGroup@@@Sim@@YA_NIAAPAVSimGroup@@@Z 00410860 f i compiledEval.obj
 0001:0000f8a0       ??$findObject@VSimSet@@@Sim@@YA_NIAAPAVSimSet@@@Z 004108a0 f i compiledEval.obj
 0001:0000f950       ?setCurVarName@ExprEvalState@@QAEXPBD@Z 00410950 f i compiledEval.obj
 0001:0000f9a0       ?setCurVarNameCreate@ExprEvalState@@QAEXPBD@Z 004109a0 f i compiledEval.obj
 0001:0000fa00       ?getIntVariable@ExprEvalState@@QAEHXZ 00410a00 f i compiledEval.obj
 0001:0000fa40       ?getFloatVariable@ExprEvalState@@QAENXZ 00410a40 f i compiledEval.obj
 0001:0000fa80       ?getStringVariable@ExprEvalState@@QAEPBDXZ 00410a80 f i compiledEval.obj
 0001:0000faa0       ?setIntVariable@ExprEvalState@@QAEXH@Z 00410aa0 f i compiledEval.obj
 0001:0000fab0       ?setFloatVariable@ExprEvalState@@QAEXN@Z 00410ab0 f i compiledEval.obj
 0001:0000fad0       ?getFunctionArgs@CodeBlock@@QAEXQADI@Z 00410ad0 f   compiledEval.obj
 0001:0000fb60       ?exec@CodeBlock@@QAEPBDIPBDPAVNamespace@@IPAPBD_N0@Z 00410b60 f   compiledEval.obj
 0001:00011500       ?getCurrentCodeBlockName@CodeBlock@@SAQBDXZ 00412500 f   compiler.obj
 0001:00011510       ?find@CodeBlock@@SAPAV1@PBD@Z 00412510 f   compiler.obj
 0001:00011530       ??0CodeBlock@@QAE@XZ       00412530 f   compiler.obj
 0001:00011570       ?addToCodeList@CodeBlock@@QAEXXZ 00412570 f   compiler.obj
 0001:000115c0       ?clearAllBreaks@CodeBlock@@QAEXXZ 004125c0 f   compiler.obj
 0001:00011600       ?clearBreakpoint@CodeBlock@@QAEXI@Z 00412600 f   compiler.obj
 0001:00011650       ?setAllBreaks@CodeBlock@@QAEXXZ 00412650 f   compiler.obj
 0001:00011680       ?getMax@@YAHHH@Z           00412680 f i compiler.obj
 0001:00011690       ?setBreakpoint@CodeBlock@@QAEXI@Z 00412690 f   compiler.obj
 0001:000116e0       ?findBreakLine@CodeBlock@@QAEXIAAI0@Z 004126e0 f   compiler.obj
 0001:00011780       ?convertHostToLEndian@@YAII@Z 00412780 f i compiler.obj
 0001:00011790       ?convertLEndianToHost@@YAII@Z 00412790 f i compiler.obj
 0001:000117a0       ?getFileLine@CodeBlock@@QAEPBDI@Z 004127a0 f   compiler.obj
 0001:000117f0       ?removeFromCodeList@CodeBlock@@QAEXXZ 004127f0 f   compiler.obj
 0001:00011820       ?calcBreakList@CodeBlock@@QAEXXZ 00412820 f   compiler.obj
 0001:00011910       ?getNext@StmtNode@@QAEPAU1@XZ 00412910 f i compiler.obj
 0001:00011920       ?read@Stream@@QAE_NIPAX@Z  00412920 f i compiler.obj
 0001:00011930       ?write@Stream@@QAE_NIPBX@Z 00412930 f i compiler.obj
 0001:00011940       ?write@Stream@@QAE_NE@Z    00412940 f i compiler.obj
 0001:00011950       ?write@Stream@@QAE_NN@Z    00412950 f i compiler.obj
 0001:00011960       ?write@Stream@@QAE_NI@Z    00412960 f i compiler.obj
 0001:00011980       ?read@Stream@@QAE_NPAE@Z   00412980 f i compiler.obj
 0001:00011990       ?read@Stream@@QAE_NPAN@Z   00412990 f i compiler.obj
 0001:000119a0       ?read@Stream@@QAE_NPAI@Z   004129a0 f i compiler.obj
 0001:000119c0       ?incRefCount@CodeBlock@@QAEXXZ 004129c0 f   compiler.obj
 0001:000119d0       ?addBreakCount@StmtNode@@QAEXXZ 004129d0 f   compiler.obj
 0001:000119e0       ?addBreakLine@StmtNode@@QAEXI@Z 004129e0 f   compiler.obj
 0001:00011a20       ?add@CompilerStringTable@@QAEIPBD_N1@Z 00412a20 f   compiler.obj
 0001:00011b00       ?addIntString@CompilerStringTable@@QAEII@Z 00412b00 f   compiler.obj
 0001:00011b30       ?addFloatString@CompilerStringTable@@QAEIN@Z 00412b30 f   compiler.obj
 0001:00011b70       ?reset@CompilerStringTable@@QAEXXZ 00412b70 f   compiler.obj
 0001:00011b80       ?build@CompilerStringTable@@QAEPADXZ 00412b80 f   compiler.obj
 0001:00011bc0       ?write@CompilerStringTable@@QAEXAAVStream@@@Z 00412bc0 f   compiler.obj
 0001:00011c00       ?add@CompilerFloatTable@@QAEIN@Z 00412c00 f   compiler.obj
 0001:00011c60       ?reset@CompilerFloatTable@@QAEXXZ 00412c60 f   compiler.obj
 0001:00011c70       ?build@CompilerFloatTable@@QAEPANXZ 00412c70 f   compiler.obj
 0001:00011cb0       ?write@CompilerFloatTable@@QAEXAAVStream@@@Z 00412cb0 f   compiler.obj
 0001:00011d30       ?reset@CompilerIdentTable@@QAEXXZ 00412d30 f   compiler.obj
 0001:00011d40       ?add@CompilerIdentTable@@QAEXPBDI@Z 00412d40 f   compiler.obj
 0001:00011da0       ?write@CompilerIdentTable@@QAEXAAVStream@@@Z 00412da0 f   compiler.obj
 0001:00011e40       ??0StmtNode@@QAE@XZ        00412e40 f   compiler.obj
 0001:00011e70       ?setPackage@StmtNode@@UAEXPBD@Z 00412e70 f   compiler.obj
 0001:00011e80       ?precompileBlock@@YAIPAUStmtNode@@I@Z 00412e80 f   compiler.obj
 0001:00011eb0       ?compileBlock@@YAIPAUStmtNode@@PAIIII@Z 00412eb0 f   compiler.obj
 0001:00011ef0       ?append@StmtNode@@QAEXPAU1@@Z 00412ef0 f   compiler.obj
 0001:00011f20       ?compileX@ExprNode@@QAEIPAIIW4TypeReq@@@Z 00412f20 f   compiler.obj
 0001:00011f80       ?setPackage@FunctionDeclStmtNode@@UAEXPBD@Z 00412f80 f   compiler.obj
 0001:00012000       ?precompileStmt@BreakStmtNode@@UAEII@Z 00413000 f   compiler.obj
 0001:00012040       ?compileStmt@BreakStmtNode@@UAEIPAIIII@Z 00413040 f   compiler.obj
 0001:000120a0       ?precompileStmt@ContinueStmtNode@@UAEII@Z 004130a0 f   compiler.obj
 0001:000120e0       ?compileStmt@ContinueStmtNode@@UAEIPAIIII@Z 004130e0 f   compiler.obj
 0001:00012140       ?precompileStmt@ExprNode@@UAEII@Z 00413140 f   compiler.obj
 0001:00012160       ?compileStmt@ExprNode@@UAEIPAIIII@Z 00413160 f   compiler.obj
 0001:000121b0       ?precompileStmt@ReturnStmtNode@@UAEII@Z 004131b0 f   compiler.obj
 0001:000121e0       ?compileStmt@ReturnStmtNode@@UAEIPAIIII@Z 004131e0 f   compiler.obj
 0001:00012250       ?precompileStmt@IfStmtNode@@UAEII@Z 00413250 f   compiler.obj
 0001:00012300       ?compileStmt@IfStmtNode@@UAEIPAIIII@Z 00413300 f   compiler.obj
 0001:000123f0       ?precompileStmt@LoopStmtNode@@UAEII@Z 004133f0 f   compiler.obj
 0001:000124c0       ?compileStmt@LoopStmtNode@@UAEIPAIIII@Z 004134c0 f   compiler.obj
 0001:000125b0       ?precompile@ConditionalExprNode@@UAEIW4TypeReq@@@Z 004135b0 f   compiler.obj
 0001:00012610       ?compile@ConditionalExprNode@@UAEIPAIIW4TypeReq@@@Z 00413610 f   compiler.obj
 0001:00012680       ?getPreferredType@ConditionalExprNode@@UAE?AW4TypeReq@@XZ 00413680 f   compiler.obj
 0001:00012690       ?precompile@FloatBinaryExprNode@@UAEIW4TypeReq@@@Z 00413690 f   compiler.obj
 0001:000126c0       ?compile@FloatBinaryExprNode@@UAEIPAIIW4TypeReq@@@Z 004136c0 f   compiler.obj
 0001:00012780       ?getPreferredType@FloatBinaryExprNode@@UAE?AW4TypeReq@@XZ 00413780 f   compiler.obj
 0001:00012790       ?getSubTypeOperand@IntBinaryExprNode@@QAEXXZ 00413790 f   compiler.obj
 0001:000129b0       ?precompile@IntBinaryExprNode@@UAEIW4TypeReq@@@Z 004139b0 f   compiler.obj
 0001:00012a00       ?compile@IntBinaryExprNode@@UAEIPAIIW4TypeReq@@@Z 00413a00 f   compiler.obj
 0001:00012ad0       ?getPreferredType@IntBinaryExprNode@@UAE?AW4TypeReq@@XZ 00413ad0 f   compiler.obj
 0001:00012ae0       ?precompile@StreqExprNode@@UAEIW4TypeReq@@@Z 00413ae0 f   compiler.obj
 0001:00012b20       ?compile@StreqExprNode@@UAEIPAIIW4TypeReq@@@Z 00413b20 f   compiler.obj
 0001:00012bc0       ?getPreferredType@StreqExprNode@@UAE?AW4TypeReq@@XZ 00413bc0 f   compiler.obj
 0001:00012bd0       ?precompile@StrcatExprNode@@UAEIW4TypeReq@@@Z 00413bd0 f   compiler.obj
 0001:00012c10       ?compile@StrcatExprNode@@UAEIPAIIW4TypeReq@@@Z 00413c10 f   compiler.obj
 0001:00012c90       ?getPreferredType@StrcatExprNode@@UAE?AW4TypeReq@@XZ 00413c90 f   compiler.obj
 0001:00012ca0       ?precompile@CommaCatExprNode@@UAEIW4TypeReq@@@Z 00413ca0 f   compiler.obj
 0001:00012cd0       ?compile@CommaCatExprNode@@UAEIPAIIW4TypeReq@@@Z 00413cd0 f   compiler.obj
 0001:00012d60       ?getPreferredType@CommaCatExprNode@@UAE?AW4TypeReq@@XZ 00413d60 f   compiler.obj
 0001:00012d70       ?precompile@IntUnaryExprNode@@UAEIW4TypeReq@@@Z 00413d70 f   compiler.obj
 0001:00012dc0       ?compile@IntUnaryExprNode@@UAEIPAIIW4TypeReq@@@Z 00413dc0 f   compiler.obj
 0001:00012e60       ?getPreferredType@IntUnaryExprNode@@UAE?AW4TypeReq@@XZ 00413e60 f   compiler.obj
 0001:00012e70       ?precompile@FloatUnaryExprNode@@UAEIW4TypeReq@@@Z 00413e70 f   compiler.obj
 0001:00012e90       ?compile@FloatUnaryExprNode@@UAEIPAIIW4TypeReq@@@Z 00413e90 f   compiler.obj
 0001:00012f00       ?getPreferredType@FloatUnaryExprNode@@UAE?AW4TypeReq@@XZ 00413f00 f   compiler.obj
 0001:00012f10       ?precompile@VarNode@@UAEIW4TypeReq@@@Z 00413f10 f   compiler.obj
 0001:00012f60       ?compile@VarNode@@UAEIPAIIW4TypeReq@@@Z 00413f60 f   compiler.obj
 0001:00013010       ?getPreferredType@VarNode@@UAE?AW4TypeReq@@XZ 00414010 f   compiler.obj
 0001:00013020       ?precompile@IntNode@@UAEIW4TypeReq@@@Z 00414020 f   compiler.obj
 0001:000130a0       ?compile@IntNode@@UAEIPAIIW4TypeReq@@@Z 004140a0 f   compiler.obj
 0001:00013100       ?getPreferredType@IntNode@@UAE?AW4TypeReq@@XZ 00414100 f   compiler.obj
 0001:00013110       ?precompile@FloatNode@@UAEIW4TypeReq@@@Z 00414110 f   compiler.obj
 0001:00013190       ?compile@FloatNode@@UAEIPAIIW4TypeReq@@@Z 00414190 f   compiler.obj
 0001:00013200       ?getPreferredType@FloatNode@@UAE?AW4TypeReq@@XZ 00414200 f   compiler.obj
 0001:00013210       ?precompile@StrConstNode@@UAEIW4TypeReq@@@Z 00414210 f   compiler.obj
 0001:00013290       ?compile@StrConstNode@@UAEIPAIIW4TypeReq@@@Z 00414290 f   compiler.obj
 0001:00013300       ?getPreferredType@StrConstNode@@UAE?AW4TypeReq@@XZ 00414300 f   compiler.obj
 0001:00013310       ?precompile@ConstantNode@@UAEIW4TypeReq@@@Z 00414310 f   compiler.obj
 0001:00013390       ?compile@ConstantNode@@UAEIPAIIW4TypeReq@@@Z 00414390 f   compiler.obj
 0001:00013410       ?getPreferredType@ConstantNode@@UAE?AW4TypeReq@@XZ 00414410 f   compiler.obj
 0001:00013420       ?precompile@AssignExprNode@@UAEIW4TypeReq@@@Z 00414420 f   compiler.obj
 0001:000134c0       ?compile@AssignExprNode@@UAEIPAIIW4TypeReq@@@Z 004144c0 f   compiler.obj
 0001:000135a0       ?getPreferredType@AssignExprNode@@UAE?AW4TypeReq@@XZ 004145a0 f   compiler.obj
 0001:00013690       ?precompile@AssignOpExprNode@@UAEIW4TypeReq@@@Z 00414690 f   compiler.obj
 0001:00013700       ?compile@AssignOpExprNode@@UAEIPAIIW4TypeReq@@@Z 00414700 f   compiler.obj
 0001:000137d0       ?getPreferredType@AssignOpExprNode@@UAE?AW4TypeReq@@XZ 004147d0 f   compiler.obj
 0001:000137f0       ?precompileStmt@TTagSetStmtNode@@UAEII@Z 004147f0 f   compiler.obj
 0001:00013800       ?compileStmt@TTagSetStmtNode@@UAEIPAIIII@Z 00414800 f   compiler.obj
 0001:00013810       ?precompile@TTagDerefNode@@UAEIW4TypeReq@@@Z 00414810 f   compiler.obj
 0001:00013820       ?compile@TTagDerefNode@@UAEIPAIIW4TypeReq@@@Z 00414820 f   compiler.obj
 0001:00013830       ?getPreferredType@TTagDerefNode@@UAE?AW4TypeReq@@XZ 00414830 f   compiler.obj
 0001:00013840       ?precompile@TTagExprNode@@UAEIW4TypeReq@@@Z 00414840 f   compiler.obj
 0001:00013850       ?compile@TTagExprNode@@UAEIPAIIW4TypeReq@@@Z 00414850 f   compiler.obj
 0001:00013860       ?getPreferredType@TTagExprNode@@UAE?AW4TypeReq@@XZ 00414860 f   compiler.obj
 0001:00013870       ?precompile@FuncCallExprNode@@UAEIW4TypeReq@@@Z 00414870 f   compiler.obj
 0001:000138e0       ?compile@FuncCallExprNode@@UAEIPAIIW4TypeReq@@@Z 004148e0 f   compiler.obj
 0001:000139c0       ?getPreferredType@FuncCallExprNode@@UAE?AW4TypeReq@@XZ 004149c0 f   compiler.obj
 0001:000139d0       ?precompile@SlotAccessNode@@UAEIW4TypeReq@@@Z 004149d0 f   compiler.obj
 0001:00013a30       ?compile@SlotAccessNode@@UAEIPAIIW4TypeReq@@@Z 00414a30 f   compiler.obj
 0001:00013b00       ?getPreferredType@SlotAccessNode@@UAE?AW4TypeReq@@XZ 00414b00 f   compiler.obj
 0001:00013b10       ?precompile@SlotAssignNode@@UAEIW4TypeReq@@@Z 00414b10 f   compiler.obj
 0001:00013b90       ?compile@SlotAssignNode@@UAEIPAIIW4TypeReq@@@Z 00414b90 f   compiler.obj
 0001:00013c90       ?getPreferredType@SlotAssignNode@@UAE?AW4TypeReq@@XZ 00414c90 f   compiler.obj
 0001:00013ca0       ?precompile@SlotAssignOpNode@@UAEIW4TypeReq@@@Z 00414ca0 f   compiler.obj
 0001:00013d20       ?compile@SlotAssignOpNode@@UAEIPAIIW4TypeReq@@@Z 00414d20 f   compiler.obj
 0001:00013df0       ?getPreferredType@SlotAssignOpNode@@UAE?AW4TypeReq@@XZ 00414df0 f   compiler.obj
 0001:00013e10       ?precompileSubObject@ObjectDeclNode@@QAEI_N@Z 00414e10 f   compiler.obj
 0001:00013ec0       ?precompile@ObjectDeclNode@@UAEIW4TypeReq@@@Z 00414ec0 f   compiler.obj
 0001:00013ee0       ?compileSubObject@ObjectDeclNode@@QAEIPAII_N@Z 00414ee0 f   compiler.obj
 0001:00014000       ?compile@ObjectDeclNode@@UAEIPAIIW4TypeReq@@@Z 00415000 f   compiler.obj
 0001:00014070       ?getPreferredType@ObjectDeclNode@@UAE?AW4TypeReq@@XZ 00415070 f   compiler.obj
 0001:00014080       ?precompileStmt@FunctionDeclStmtNode@@UAEII@Z 00415080 f   compiler.obj
 0001:00014140       ?compileStmt@FunctionDeclStmtNode@@UAEIPAIIII@Z 00415140 f   compiler.obj
 0001:00014210       ??0BreakStmtNode@@QAE@XZ   00415210 f i compiler.obj
 0001:00014240       ??0ContinueStmtNode@@QAE@XZ 00415240 f i compiler.obj
 0001:00014270       ??0ReturnStmtNode@@QAE@XZ  00415270 f i compiler.obj
 0001:000142a0       ??0IfStmtNode@@QAE@XZ      004152a0 f i compiler.obj
 0001:000142d0       ??0LoopStmtNode@@QAE@XZ    004152d0 f i compiler.obj
 0001:00014300       ??0TTagSetStmtNode@@QAE@XZ 00415300 f i compiler.obj
 0001:00014330       ??0FunctionDeclStmtNode@@QAE@XZ 00415330 f i compiler.obj
 0001:00014360       ??0ExprNode@@QAE@XZ        00415360 f i compiler.obj
 0001:000143b0       ??1CodeBlock@@QAE@XZ       004153b0 f   compiler.obj
 0001:00014420       ?read@CodeBlock@@QAE_NPBDAAVStream@@@Z 00415420 f   compiler.obj
 0001:00014740       ?compile@CodeBlock@@QAE_NPBD00@Z 00415740 f   compiler.obj
 0001:00014aa0       ??_GCodeBlock@@QAEPAXI@Z   00415aa0 f i compiler.obj
 0001:00014ac0       ?decRefCount@CodeBlock@@QAEXXZ 00415ac0 f   compiler.obj
 0001:00014ae0       ??$constructInPlace@UBreakStmtNode@@@@YAPAUBreakStmtNode@@PAU0@@Z 00415ae0 f i compiler.obj
 0001:00014b20       ??$constructInPlace@UContinueStmtNode@@@@YAPAUContinueStmtNode@@PAU0@@Z 00415b20 f i compiler.obj
 0001:00014b60       ??$constructInPlace@UReturnStmtNode@@@@YAPAUReturnStmtNode@@PAU0@@Z 00415b60 f i compiler.obj
 0001:00014ba0       ??$constructInPlace@UIfStmtNode@@@@YAPAUIfStmtNode@@PAU0@@Z 00415ba0 f i compiler.obj
 0001:00014be0       ??$constructInPlace@ULoopStmtNode@@@@YAPAULoopStmtNode@@PAU0@@Z 00415be0 f i compiler.obj
 0001:00014c20       ??$constructInPlace@UTTagSetStmtNode@@@@YAPAUTTagSetStmtNode@@PAU0@@Z 00415c20 f i compiler.obj
 0001:00014c60       ??$constructInPlace@UFunctionDeclStmtNode@@@@YAPAUFunctionDeclStmtNode@@PAU0@@Z 00415c60 f i compiler.obj
 0001:00014ca0       ??0IntUnaryExprNode@@QAE@XZ 00415ca0 f i compiler.obj
 0001:00014cd0       ??0FloatUnaryExprNode@@QAE@XZ 00415cd0 f i compiler.obj
 0001:00014d00       ??0VarNode@@QAE@XZ         00415d00 f i compiler.obj
 0001:00014d30       ??0IntNode@@QAE@XZ         00415d30 f i compiler.obj
 0001:00014d60       ??0ConditionalExprNode@@QAE@XZ 00415d60 f i compiler.obj
 0001:00014d90       ??0FloatNode@@QAE@XZ       00415d90 f i compiler.obj
 0001:00014dc0       ??0StrConstNode@@QAE@XZ    00415dc0 f i compiler.obj
 0001:00014df0       ??0ConstantNode@@QAE@XZ    00415df0 f i compiler.obj
 0001:00014e20       ??0AssignExprNode@@QAE@XZ  00415e20 f i compiler.obj
 0001:00014e50       ??0AssignOpExprNode@@QAE@XZ 00415e50 f i compiler.obj
 0001:00014e80       ??0TTagDerefNode@@QAE@XZ   00415e80 f i compiler.obj
 0001:00014eb0       ??0TTagExprNode@@QAE@XZ    00415eb0 f i compiler.obj
 0001:00014ee0       ??0FuncCallExprNode@@QAE@XZ 00415ee0 f i compiler.obj
 0001:00014f10       ??0SlotAccessNode@@QAE@XZ  00415f10 f i compiler.obj
 0001:00014f40       ??0SlotAssignNode@@QAE@XZ  00415f40 f i compiler.obj
 0001:00014f70       ??0SlotAssignOpNode@@QAE@XZ 00415f70 f i compiler.obj
 0001:00014fa0       ??0ObjectDeclNode@@QAE@XZ  00415fa0 f i compiler.obj
 0001:00014fd0       ??0BinaryExprNode@@QAE@XZ  00415fd0 f i compiler.obj
 0001:00015000       ?compileExec@CodeBlock@@QAEPBDPBD0_N@Z 00416000 f   compiler.obj
 0001:00015220       ?alloc@BreakStmtNode@@SAPAU1@XZ 00416220 f   compiler.obj
 0001:00015270       ?alloc@ContinueStmtNode@@SAPAU1@XZ 00416270 f   compiler.obj
 0001:000152c0       ?alloc@ReturnStmtNode@@SAPAU1@PAUExprNode@@@Z 004162c0 f   compiler.obj
 0001:00015320       ?alloc@IfStmtNode@@SAPAU1@HPAUExprNode@@PAUStmtNode@@1_N@Z 00416320 f   compiler.obj
 0001:00015390       ?alloc@LoopStmtNode@@SAPAU1@HPAUExprNode@@00PAUStmtNode@@_N@Z 00416390 f   compiler.obj
 0001:00015410       ?alloc@TTagSetStmtNode@@SAPAU1@PBDPAUExprNode@@1@Z 00416410 f   compiler.obj
 0001:00015470       ?alloc@FunctionDeclStmtNode@@SAPAU1@PBD0PAUVarNode@@PAUStmtNode@@@Z 00416470 f   compiler.obj
 0001:000154e0       ??$constructInPlace@UIntUnaryExprNode@@@@YAPAUIntUnaryExprNode@@PAU0@@Z 004164e0 f i compiler.obj
 0001:00015520       ??$constructInPlace@UFloatUnaryExprNode@@@@YAPAUFloatUnaryExprNode@@PAU0@@Z 00416520 f i compiler.obj
 0001:00015560       ??$constructInPlace@UVarNode@@@@YAPAUVarNode@@PAU0@@Z 00416560 f i compiler.obj
 0001:000155a0       ??$constructInPlace@UIntNode@@@@YAPAUIntNode@@PAU0@@Z 004165a0 f i compiler.obj
 0001:000155e0       ??$constructInPlace@UConditionalExprNode@@@@YAPAUConditionalExprNode@@PAU0@@Z 004165e0 f i compiler.obj
 0001:00015620       ??$constructInPlace@UFloatNode@@@@YAPAUFloatNode@@PAU0@@Z 00416620 f i compiler.obj
 0001:00015660       ??$constructInPlace@UStrConstNode@@@@YAPAUStrConstNode@@PAU0@@Z 00416660 f i compiler.obj
 0001:000156a0       ??$constructInPlace@UConstantNode@@@@YAPAUConstantNode@@PAU0@@Z 004166a0 f i compiler.obj
 0001:000156e0       ??$constructInPlace@UAssignExprNode@@@@YAPAUAssignExprNode@@PAU0@@Z 004166e0 f i compiler.obj
 0001:00015720       ??$constructInPlace@UAssignOpExprNode@@@@YAPAUAssignOpExprNode@@PAU0@@Z 00416720 f i compiler.obj
 0001:00015760       ??$constructInPlace@UTTagDerefNode@@@@YAPAUTTagDerefNode@@PAU0@@Z 00416760 f i compiler.obj
 0001:000157a0       ??$constructInPlace@UTTagExprNode@@@@YAPAUTTagExprNode@@PAU0@@Z 004167a0 f i compiler.obj
 0001:000157e0       ??$constructInPlace@UFuncCallExprNode@@@@YAPAUFuncCallExprNode@@PAU0@@Z 004167e0 f i compiler.obj
 0001:00015820       ??$constructInPlace@USlotAccessNode@@@@YAPAUSlotAccessNode@@PAU0@@Z 00416820 f i compiler.obj
 0001:00015860       ??$constructInPlace@USlotAssignNode@@@@YAPAUSlotAssignNode@@PAU0@@Z 00416860 f i compiler.obj
 0001:000158a0       ??$constructInPlace@USlotAssignOpNode@@@@YAPAUSlotAssignOpNode@@PAU0@@Z 004168a0 f i compiler.obj
 0001:000158e0       ??$constructInPlace@UObjectDeclNode@@@@YAPAUObjectDeclNode@@PAU0@@Z 004168e0 f i compiler.obj
 0001:00015920       ??0FloatBinaryExprNode@@QAE@XZ 00416920 f i compiler.obj
 0001:00015950       ??0IntBinaryExprNode@@QAE@XZ 00416950 f i compiler.obj
 0001:00015980       ??0StreqExprNode@@QAE@XZ   00416980 f i compiler.obj
 0001:000159b0       ??0StrcatExprNode@@QAE@XZ  004169b0 f i compiler.obj
 0001:000159e0       ??0CommaCatExprNode@@QAE@XZ 004169e0 f i compiler.obj
 0001:00015a10       ?alloc@IntUnaryExprNode@@SAPAU1@HPAUExprNode@@@Z 00416a10 f   compiler.obj
 0001:00015a70       ?alloc@FloatUnaryExprNode@@SAPAU1@HPAUExprNode@@@Z 00416a70 f   compiler.obj
 0001:00015ad0       ?alloc@VarNode@@SAPAU1@PBDPAUExprNode@@@Z 00416ad0 f   compiler.obj
 0001:00015b30       ?alloc@IntNode@@SAPAU1@H@Z 00416b30 f   compiler.obj
 0001:00015b90       ?alloc@ConditionalExprNode@@SAPAU1@PAUExprNode@@00@Z 00416b90 f   compiler.obj
 0001:00015c00       ?alloc@FloatNode@@SAPAU1@N@Z 00416c00 f   compiler.obj
 0001:00015c50       ?alloc@StrConstNode@@SAPAU1@PAD_N@Z 00416c50 f   compiler.obj
 0001:00015cd0       ?alloc@ConstantNode@@SAPAU1@PBD@Z 00416cd0 f   compiler.obj
 0001:00015d30       ?alloc@AssignExprNode@@SAPAU1@PBDPAUExprNode@@1@Z 00416d30 f   compiler.obj
 0001:00015d90       ?alloc@AssignOpExprNode@@SAPAU1@PBDPAUExprNode@@1H@Z 00416d90 f   compiler.obj
 0001:00015e00       ?alloc@TTagDerefNode@@SAPAU1@PAUExprNode@@@Z 00416e00 f   compiler.obj
 0001:00015e60       ?alloc@TTagExprNode@@SAPAU1@PBD@Z 00416e60 f   compiler.obj
 0001:00015ec0       ?alloc@FuncCallExprNode@@SAPAU1@PBD0PAUExprNode@@_N@Z 00416ec0 f   compiler.obj
 0001:00015f60       ?alloc@SlotAccessNode@@SAPAU1@PAUExprNode@@0PBD@Z 00416f60 f   compiler.obj
 0001:00015fc0       ?alloc@SlotAssignNode@@SAPAU1@PAUExprNode@@0PBD0@Z 00416fc0 f   compiler.obj
 0001:00016030       ?alloc@SlotAssignOpNode@@SAPAU1@PAUExprNode@@PBD0H0@Z 00417030 f   compiler.obj
 0001:000160a0       ?alloc@ObjectDeclNode@@SAPAU1@PAUExprNode@@00PBDPAUSlotAssignNode@@PAU1@_N@Z 004170a0 f   compiler.obj
 0001:00016130       ??$constructInPlace@UFloatBinaryExprNode@@@@YAPAUFloatBinaryExprNode@@PAU0@@Z 00417130 f i compiler.obj
 0001:00016170       ??$constructInPlace@UIntBinaryExprNode@@@@YAPAUIntBinaryExprNode@@PAU0@@Z 00417170 f i compiler.obj
 0001:000161b0       ??$constructInPlace@UStreqExprNode@@@@YAPAUStreqExprNode@@PAU0@@Z 004171b0 f i compiler.obj
 0001:000161f0       ??$constructInPlace@UStrcatExprNode@@@@YAPAUStrcatExprNode@@PAU0@@Z 004171f0 f i compiler.obj
 0001:00016230       ??$constructInPlace@UCommaCatExprNode@@@@YAPAUCommaCatExprNode@@PAU0@@Z 00417230 f i compiler.obj
 0001:00016270       ?alloc@FloatBinaryExprNode@@SAPAU1@HPAUExprNode@@0@Z 00417270 f   compiler.obj
 0001:000162d0       ?alloc@IntBinaryExprNode@@SAPAU1@HPAUExprNode@@0@Z 004172d0 f   compiler.obj
 0001:00016330       ?alloc@StreqExprNode@@SAPAU1@PAUExprNode@@0_N@Z 00417330 f   compiler.obj
 0001:00016390       ?alloc@StrcatExprNode@@SAPAU1@PAUExprNode@@0H@Z 00417390 f   compiler.obj
 0001:000163f0       ?alloc@CommaCatExprNode@@SAPAU1@PAUExprNode@@0@Z 004173f0 f   compiler.obj
 0001:00016450       ?getSwitchOR@IfStmtNode@@QAEPAUExprNode@@PAU2@0_N@Z 00417450 f   compiler.obj
 0001:000164c0       ?propagateSwitchExpr@IfStmtNode@@QAEXPAUExprNode@@_N@Z 004174c0 f   compiler.obj
 0001:00016570       ?init@ConsoleConstructor@@QAEXPBD00HH@Z 00417570 f   console.obj
 0001:000165c0       ??0ConsoleConstructor@@QAE@PBD0P6APBDPAVSimObject@@HQAPBD@Z0HH@Z 004175c0 f   console.obj
 0001:00016610       ??0ConsoleConstructor@@QAE@PBD0P6AHPAVSimObject@@HQAPBD@Z0HH@Z 00417610 f   console.obj
 0001:00016660       ??0ConsoleConstructor@@QAE@PBD0P6AMPAVSimObject@@HQAPBD@Z0HH@Z 00417660 f   console.obj
 0001:000166b0       ??0ConsoleConstructor@@QAE@PBD0P6AXPAVSimObject@@HQAPBD@Z0HH@Z 004176b0 f   console.obj
 0001:00016700       ??0ConsoleConstructor@@QAE@PBD0P6A_NPAVSimObject@@HQAPBD@Z0HH@Z 00417700 f   console.obj
 0001:00016750       ??0ConsoleConstructor@@QAE@PBD00@Z 00417750 f   console.obj
 0001:000167f0       ??0BitSet32@@QAE@ABV0@@Z   004177f0 f i console.obj
 0001:00016800       ?shutdown@Con@@YAXXZ       00417800 f   console.obj
 0001:00016820       ?isActive@Con@@YA_NXZ      00417820 f   console.obj
 0001:00016830       ?setVariable@Con@@YAXPBD0@Z 00417830 f   console.obj
 0001:00016880       ?setBoolVariable@Con@@YAXPBD_N@Z 00417880 f   console.obj
 0001:000168e0       ?setIntVariable@Con@@YAXPBDH@Z 004178e0 f   console.obj
 0001:00016970       ?setFloatVariable@Con@@YAXPBDM@Z 00417970 f   console.obj
 0001:00016a00       ?stripColorChars@Con@@YAXPAD@Z 00417a00 f   console.obj
 0001:00016a40       ?getStatus@Stream@@QBE?AW4Status@1@XZ 00417a40 f i console.obj
 0001:00016a50       ?addVariable@Con@@YA_NPBDHPAX@Z 00417a50 f   console.obj
 0001:00016a70       ?removeVariable@Con@@YA_NPBD@Z 00417a70 f   console.obj
 0001:00016ad0       ?addCommand@Con@@YAXPBDP6APBDPAVSimObject@@HQAPBD@Z0HH@Z 00417ad0 f   console.obj
 0001:00016b10       ?addCommand@Con@@YAXPBDP6AXPAVSimObject@@HQAPBD@Z0HH@Z 00417b10 f   console.obj
 0001:00016b50       ?addCommand@Con@@YAXPBDP6AHPAVSimObject@@HQAPBD@Z0HH@Z 00417b50 f   console.obj
 0001:00016b90       ?addCommand@Con@@YAXPBDP6AMPAVSimObject@@HQAPBD@Z0HH@Z 00417b90 f   console.obj
 0001:00016bd0       ?addCommand@Con@@YAXPBDP6A_NPAVSimObject@@HQAPBD@Z0HH@Z 00417bd0 f   console.obj
 0001:00016c10       ?evaluatef@Con@@YAPBDPBDZZ 00417c10 f   console.obj
 0001:00016c90       ?isFunction@Con@@YA_NPBD@Z 00417c90 f   console.obj
 0001:00016cc0       ?setLogMode@Con@@YAXH@Z    00417cc0 f   console.obj
 0001:00016d20       ?lookupNamespace@Con@@YAPAVNamespace@@PBD@Z 00417d20 f   console.obj
 0001:00016d50       ?linkNamespaces@Con@@YA_NPBD0@Z 00417d50 f   console.obj
 0001:00016dc0       ?classLinkNamespaces@Con@@YA_NPAVNamespace@@0@Z 00417dc0 f   console.obj
 0001:00016de0       ?getTypeName@Con@@YAPBDH@Z 00417de0 f   console.obj
 0001:00016df0       ?registerType@Con@@YAXPBDHHP6APBDPAXPAUEnumTable@@VBitSet32@@@ZP6AX1HPAPBD23@Z@Z 00417df0 f   console.obj
 0001:00016e30       ?setData@Con@@YAXHPAXHHPAPBDPAUEnumTable@@VBitSet32@@@Z 00417e30 f   console.obj
 0001:00016e70       ?getData@Con@@YAPBDHPAXHPAUEnumTable@@VBitSet32@@@Z 00417e70 f   console.obj
 0001:00016eb0       ??0?$SimObjectPtr@VSimObject@@@@QAE@XZ 00417eb0 f i console.obj
 0001:00016ec0       ??1?$SimObjectPtr@VSimObject@@@@QAE@XZ 00417ec0 f i console.obj
 0001:00016ed0       ??4?$SimObjectPtr@VSimObject@@@@QAEAAV0@PAVSimObject@@@Z 00417ed0 f i console.obj
 0001:00016f00       ??C?$SimObjectPtr@VSimObject@@@@QBEPAVSimObject@@XZ 00417f00 f i console.obj
 0001:00016f10       ??B?$SimObjectPtr@VSimObject@@@@QBEPAVSimObject@@XZ 00417f10 f i console.obj
 0001:00016f20       ??0?$Vector@P6AXW4Level@ConsoleLogEntry@@PBD@Z@@QAE@PBDI@Z 00417f20 f i console.obj
 0001:00016f30       ??1?$Vector@P6AXW4Level@ConsoleLogEntry@@PBD@Z@@QAE@XZ 00417f30 f i console.obj
 0001:00016f40       ?size@?$Vector@P6AXW4Level@ConsoleLogEntry@@PBD@Z@@QBEHXZ 00417f40 f i console.obj
 0001:00016f50       ??A?$Vector@P6AXW4Level@ConsoleLogEntry@@PBD@Z@@QAEAAP6AXW4Level@ConsoleLogEntry@@PBD@ZI@Z 00417f50 f i console.obj
 0001:00016f60       ??0?$Vector@UConsoleLogEntry@@@@QAE@PBDI@Z 00417f60 f i console.obj
 0001:00016f70       ??1?$Vector@UConsoleLogEntry@@@@QAE@XZ 00417f70 f i console.obj
 0001:00016f80       ?size@?$Vector@UConsoleLogEntry@@@@QBEHXZ 00417f80 f i console.obj
 0001:00016f90       ??A?$Vector@UConsoleLogEntry@@@@QAEAAUConsoleLogEntry@@I@Z 00417f90 f i console.obj
 0001:00016fa0       ?decrement@?$Vector@P6AXW4Level@ConsoleLogEntry@@PBD@Z@@QAEXI@Z 00417fa0 f i console.obj
 0001:00016fc0       ?resize@?$Vector@UConsoleLogEntry@@@@IAE_NI@Z 00417fc0 f i console.obj
 0001:00016fe0       ?increment@?$Vector@UConsoleLogEntry@@@@QAEXI@Z 00417fe0 f i console.obj
 0001:00017010       ?resize@?$Vector@P6AXW4Level@ConsoleLogEntry@@PBD@Z@@IAE_NI@Z 00418010 f i console.obj
 0001:00017030       ?tabComplete@Con@@YAIPADII_N@Z 00418030 f   console.obj
 0001:000171f0       ?setLocalVariable@Con@@YAXPBD0@Z 004181f0 f   console.obj
 0001:00017250       ?getVariable@Con@@YAPBDPBD@Z 00418250 f   console.obj
 0001:00017390       ?getLocalVariable@Con@@YAPBDPBD@Z 00418390 f   console.obj
 0001:000173f0       ?getBoolVariable@Con@@YA_NPBD_N@Z 004183f0 f   console.obj
 0001:00017420       ?getIntVariable@Con@@YAHPBDH@Z 00418420 f   console.obj
 0001:00017450       ?getFloatVariable@Con@@YAMPBDM@Z 00418450 f   console.obj
 0001:00017480       ?addCommand@Con@@YAXPBD0P6APBDPAVSimObject@@HQAPBD@Z0HH@Z 00418480 f   console.obj
 0001:000174e0       ?addCommand@Con@@YAXPBD0P6AXPAVSimObject@@HQAPBD@Z0HH@Z 004184e0 f   console.obj
 0001:00017540       ?addCommand@Con@@YAXPBD0P6AHPAVSimObject@@HQAPBD@Z0HH@Z 00418540 f   console.obj
 0001:000175a0       ?addCommand@Con@@YAXPBD0P6AMPAVSimObject@@HQAPBD@Z0HH@Z 004185a0 f   console.obj
 0001:00017600       ?addCommand@Con@@YAXPBD0P6A_NPAVSimObject@@HQAPBD@Z0HH@Z 00418600 f   console.obj
 0001:00017660       ?markCommandGroup@Con@@YAXPBD00@Z 00418660 f   console.obj
 0001:000176b0       ?beginCommandGroup@Con@@YAXPBD00@Z 004186b0 f   console.obj
 0001:00017700       ?endCommandGroup@Con@@YAXPBD0@Z 00418700 f   console.obj
 0001:00017750       ?addOverload@Con@@YAXPBD00@Z 00418750 f   console.obj
 0001:000177a0       ??A?$Vector@UConsoleLogEntry@@@@QAEAAUConsoleLogEntry@@H@Z 004187a0 f i console.obj
 0001:000177b0       ?erase@?$Vector@P6AXW4Level@ConsoleLogEntry@@PBD@Z@@QAEXI@Z 004187b0 f i console.obj
 0001:000177f0       ?push_back@?$Vector@UConsoleLogEntry@@@@QAEXABUConsoleLogEntry@@@Z 004187f0 f i console.obj
 0001:00017840       ?setSize@?$Vector@UConsoleLogEntry@@@@QAEII@Z 00418840 f i console.obj
 0001:00017870       ?increment@?$Vector@P6AXW4Level@ConsoleLogEntry@@PBD@Z@@QAEXI@Z 00418870 f i console.obj
 0001:000178a0       ?setup@ConsoleConstructor@@SAXXZ 004188a0 f   console.obj
 0001:00017a30       ?init@Con@@YAXXZ           00418a30 f   console.obj
 0001:00017b20       ?getLog@Con@@YAXAAPAUConsoleLogEntry@@AAI@Z 00418b20 f   console.obj
 0001:00017e80       ?printf@Con@@YAXPBDZZ      00418e80 f   console.obj
 0001:00017ea0       ?warnf@Con@@YAXW4Type@ConsoleLogEntry@@PBDZZ 00418ea0 f   console.obj
 0001:00017ec0       ?errorf@Con@@YAXW4Type@ConsoleLogEntry@@PBDZZ 00418ec0 f   console.obj
 0001:00017ee0       ?warnf@Con@@YAXPBDZZ       00418ee0 f   console.obj
 0001:00017f00       ?errorf@Con@@YAXPBDZZ      00418f00 f   console.obj
 0001:00017f20       ?removeConsumer@Con@@YAXP6AXW4Level@ConsoleLogEntry@@PBD@Z@Z 00418f20 f   console.obj
 0001:00017f80       ?expandScriptFilename@Con@@YA_NPADIPBD@Z 00418f80 f   console.obj
 0001:000180a0       ?evaluate@Con@@YAPBDPBD_N0@Z 004190a0 f   console.obj
 0001:00018120       ?execute@Con@@YAPBDHQAPBD@Z 00419120 f   console.obj
 0001:00018180       ?execute@Con@@YAPBDPAVSimObject@@HQAPBD@Z 00419180 f   console.obj
 0001:00018230       ?executef@Con@@YAPBDPAVSimObject@@HZZ 00419230 f   console.obj
 0001:00018290       ?executef@Con@@YAPBDHZZ    00419290 f   console.obj
 0001:00018320       ?push_back@?$Vector@P6AXW4Level@ConsoleLogEntry@@PBD@Z@@QAEXABQ6AXW4Level@ConsoleLogEntry@@PBD@Z@Z 00419320 f i console.obj
 0001:00018360       ?addConsumer@Con@@YAXP6AXW4Level@ConsoleLogEntry@@PBD@Z@Z 00419360 f   console.obj
 0001:000183c0       ?printClassHeader@@YAXPBD0_N@Z 004193c0 f   consoleDoc.obj
 0001:00018450       ?printClassMethod@@YAX_NPBD111@Z 00419450 f   consoleDoc.obj
 0001:000184b0       ?printGroupStart@@YAXPBD0@Z 004194b0 f   consoleDoc.obj
 0001:00018500       ?printClassMember@@YAX_NPBD11@Z 00419500 f   consoleDoc.obj
 0001:00018580       ?printGroupEnd@@YAXXZ      00419580 f   consoleDoc.obj
 0001:000185a0       ?printClassFooter@@YAXXZ   004195a0 f   consoleDoc.obj
 0001:000185c0       ?printNamespaceEntries@Namespace@@SAXPAV1@@Z 004195c0 f   consoleDoc.obj
 0001:000188a0       ?dumpFunctions@Namespace@@SAXXZ 004198a0 f   consoleDoc.obj
 0001:000188f0       ??1?$Vector@UField@AbstractClassRep@@@@QAE@XZ 004198f0 f i consoleDoc.obj
 0001:00018900       ?size@?$Vector@UField@AbstractClassRep@@@@QBEHXZ 00419900 f i consoleDoc.obj
 0001:00018910       ??A?$Vector@UField@AbstractClassRep@@@@QAEAAUField@AbstractClassRep@@I@Z 00419910 f i consoleDoc.obj
 0001:00018920       ??1?$Vector@PAVNamespace@@@@QAE@XZ 00419920 f i consoleDoc.obj
 0001:00018930       ?size@?$Vector@PAVNamespace@@@@QBEHXZ 00419930 f i consoleDoc.obj
 0001:00018940       ??A?$Vector@PAVNamespace@@@@QAEAAPAVNamespace@@I@Z 00419940 f i consoleDoc.obj
 0001:00018950       ?decrement@?$Vector@PAVNamespace@@@@QAEXI@Z 00419950 f i consoleDoc.obj
 0001:00018970       ?resize@?$Vector@UField@AbstractClassRep@@@@IAE_NI@Z 00419970 f i consoleDoc.obj
 0001:00018990       ?resize@?$Vector@PAVNamespace@@@@IAE_NI@Z 00419990 f i consoleDoc.obj
 0001:000189c0       ??A?$Vector@PAVNamespace@@@@QAEAAPAVNamespace@@H@Z 004199c0 f i consoleDoc.obj
 0001:000189d0       ?pop_back@?$Vector@PAVNamespace@@@@QAEXXZ 004199d0 f i consoleDoc.obj
 0001:000189f0       ?reserve@?$Vector@UField@AbstractClassRep@@@@QAEXI@Z 004199f0 f i consoleDoc.obj
 0001:00018a20       ?reserve@?$Vector@PAVNamespace@@@@QAEXI@Z 00419a20 f i consoleDoc.obj
 0001:00018a50       ?increment@?$Vector@PAVNamespace@@@@QAEXI@Z 00419a50 f i consoleDoc.obj
 0001:00018a80       ??0?$Vector@UField@AbstractClassRep@@@@QAE@I@Z 00419a80 f i consoleDoc.obj
 0001:00018ad0       ??0?$Vector@PAVNamespace@@@@QAE@I@Z 00419ad0 f i consoleDoc.obj
 0001:00018b20       ?push_back@?$Vector@PAVNamespace@@@@QAEXABQAVNamespace@@@Z 00419b20 f i consoleDoc.obj
 0001:00018b60       ?dumpClasses@Namespace@@SAXXZ 00419b60 f   consoleDoc.obj
 0001:000198a0       ?read@Stream@@QAE_NPA_N@Z  0041a8a0 f i consoleFunctions.obj
 0001:000198f0       ?write@Stream@@QAE_NAB_N@Z 0041a8f0 f i consoleFunctions.obj
 0001:00019ad0       ?isJournalReading@GameInterface@@QAE_NXZ 0041aad0 f i consoleFunctions.obj
 0001:00019ae0       ?isJournalWriting@GameInterface@@QAE_NXZ 0041aae0 f i consoleFunctions.obj
 0001:0001ab20       ?canTabComplete@@YA_NPBD00H_N@Z 0041bb20 f   consoleInternal.obj
 0001:0001ac00       ??4StringValue@@QAEAAU0@PBD@Z 0041bc00 f   consoleInternal.obj
 0001:0001aca0       ?HashPointer@@YAHPBD@Z     0041bca0 f   consoleInternal.obj
 0001:0001acb0       ?lookup@Dictionary@@QAEPAUEntry@1@PBD@Z 0041bcb0 f   consoleInternal.obj
 0001:0001ace0       ?setState@Dictionary@@QAEXPAVExprEvalState@@@Z 0041bce0 f   consoleInternal.obj
 0001:0001ad40       ?tabComplete@Dictionary@@QAEPBDPBDH_N@Z 0041bd40 f   consoleInternal.obj
 0001:0001adb0       ??0Entry@Dictionary@@QAE@PBD@Z 0041bdb0 f   consoleInternal.obj
 0001:0001ade0       ??1Entry@Dictionary@@QAE@XZ 0041bde0 f   consoleInternal.obj
 0001:0001ae00       ?setStringValue@Entry@Dictionary@@QAEXPBD@Z 0041be00 f   consoleInternal.obj
 0001:0001aec0       ??0Entry@Namespace@@QAE@XZ 0041bec0 f   consoleInternal.obj
 0001:0001aee0       ?clear@Entry@Namespace@@QAEXXZ 0041bee0 f   consoleInternal.obj
 0001:0001af00       ??0Namespace@@QAE@XZ       0041bf00 f   consoleInternal.obj
 0001:0001af30       ?clearEntries@Namespace@@QAEXXZ 0041bf30 f   consoleInternal.obj
 0001:0001af60       ?classLinkTo@Namespace@@QAE_NPAV1@@Z 0041bf60 f   consoleInternal.obj
 0001:0001afc0       ?global@Namespace@@SAPAV1@XZ 0041bfc0 f   consoleInternal.obj
 0001:0001afd0       ??0Dictionary@@QAE@XZ      0041bfd0 f i consoleInternal.obj
 0001:0001afe0       ?shutdown@Namespace@@SAXXZ 0041bfe0 f   consoleInternal.obj
 0001:0001b020       ?trashCache@Namespace@@SAXXZ 0041c020 f   consoleInternal.obj
 0001:0001b030       ?lookupRecursive@Namespace@@QAEPAUEntry@1@PBD@Z 0041c030 f   consoleInternal.obj
 0001:0001b080       ?execute@Entry@Namespace@@QAEPBDHPAPBDPAVExprEvalState@@@Z 0041c080 f   consoleInternal.obj
 0001:0001b1f0       ?isPackage@Namespace@@SA_NPBD@Z 0041c1f0 f   consoleInternal.obj
 0001:0001b260       ??1?$Vector@PAVDictionary@@@@QAE@XZ 0041c260 f i consoleInternal.obj
 0001:0001b270       ??A?$Vector@PAVDictionary@@@@QAEAAPAVDictionary@@I@Z 0041c270 f i consoleInternal.obj
 0001:0001b280       ??0?$Vector@PAUEntry@Dictionary@@@@QAE@PBDI@Z 0041c280 f i consoleInternal.obj
 0001:0001b290       ??1?$Vector@PAUEntry@Dictionary@@@@QAE@XZ 0041c290 f i consoleInternal.obj
 0001:0001b2a0       ?begin@?$Vector@PAUEntry@Dictionary@@@@QAEPAPAUEntry@Dictionary@@XZ 0041c2a0 f i consoleInternal.obj
 0001:0001b2b0       ?end@?$Vector@PAUEntry@Dictionary@@@@QAEPAPAUEntry@Dictionary@@XZ 0041c2b0 f i consoleInternal.obj
 0001:0001b2c0       ?size@?$Vector@PAUEntry@Dictionary@@@@QBEHXZ 0041c2c0 f i consoleInternal.obj
 0001:0001b2d0       ??A?$Vector@PAUEntry@Dictionary@@@@QAEAAPAUEntry@Dictionary@@I@Z 0041c2d0 f i consoleInternal.obj
 0001:0001b2e0       ??$constructInPlace@VNamespace@@@@YAPAVNamespace@@PAV0@@Z 0041c2e0 f i consoleInternal.obj
 0001:0001b320       ?size@?$Vector@PAUEntry@Namespace@@@@QBEHXZ 0041c320 f i consoleInternal.obj
 0001:0001b330       ?address@?$Vector@PAUEntry@Namespace@@@@QBEPAPAUEntry@Namespace@@XZ 0041c330 f i consoleInternal.obj
 0001:0001b340       ??$constructInPlace@UEntry@Namespace@@@@YAPAUEntry@Namespace@@PAU01@@Z 0041c340 f i consoleInternal.obj
 0001:0001b370       ?decrement@?$Vector@PAVDictionary@@@@QAEXI@Z 0041c370 f i consoleInternal.obj
 0001:0001b390       ?resize@?$Vector@PAVDictionary@@@@IAE_NI@Z 0041c390 f i consoleInternal.obj
 0001:0001b3b0       ?resize@?$Vector@PAUEntry@Dictionary@@@@IAE_NI@Z 0041c3b0 f i consoleInternal.obj
 0001:0001b3d0       ?resize@?$Vector@PAUEntry@Namespace@@@@IAE_NI@Z 0041c3d0 f i consoleInternal.obj
 0001:0001b3f0       ?add@Dictionary@@QAEPAUEntry@1@PBD@Z 0041c3f0 f   consoleInternal.obj
 0001:0001b5b0       ??_GEntry@Dictionary@@QAEPAXI@Z 0041c5b0 f i consoleInternal.obj
 0001:0001b5e0       ??0Dictionary@@QAE@PAVExprEvalState@@@Z 0041c5e0 f   consoleInternal.obj
 0001:0001b600       ?reset@Dictionary@@QAEXXZ  0041c600 f   consoleInternal.obj
 0001:0001b670       ?getVariable@Dictionary@@QAEPBDPBDPA_N@Z 0041c670 f   consoleInternal.obj
 0001:0001b6e0       ?setVariable@Dictionary@@QAEXPBD0@Z 0041c6e0 f   consoleInternal.obj
 0001:0001b710       ?addVariable@Dictionary@@QAEXPBDHPAX@Z 0041c710 f   consoleInternal.obj
 0001:0001b870       ?find@Namespace@@SAPAV1@PBD0@Z 0041c870 f   consoleInternal.obj
 0001:0001b8f0       ?buildHashTable@Namespace@@QAEXXZ 0041c8f0 f   consoleInternal.obj
 0001:0001ba30       ?init@Namespace@@SAXXZ     0041ca30 f   consoleInternal.obj
 0001:0001ba50       ?tabComplete@Namespace@@QAEPBDPBDH_N@Z 0041ca50 f   consoleInternal.obj
 0001:0001bac0       ?lookup@Namespace@@QAEPAUEntry@1@PBD@Z 0041cac0 f   consoleInternal.obj
 0001:0001bb10       ?createLocalEntry@Namespace@@QAEPAUEntry@1@PBD@Z 0041cb10 f   consoleInternal.obj
 0001:0001bb90       ?addFunction@Namespace@@QAEXPBDPAVCodeBlock@@I@Z 0041cb90 f   consoleInternal.obj
 0001:0001bbe0       ?addCommand@Namespace@@QAEXPBDP6APBDPAVSimObject@@HQAPBD@Z0HH@Z 0041cbe0 f   consoleInternal.obj
 0001:0001bc30       ?addCommand@Namespace@@QAEXPBDP6AHPAVSimObject@@HQAPBD@Z0HH@Z 0041cc30 f   consoleInternal.obj
 0001:0001bc80       ?addCommand@Namespace@@QAEXPBDP6AXPAVSimObject@@HQAPBD@Z0HH@Z 0041cc80 f   consoleInternal.obj
 0001:0001bcd0       ?addCommand@Namespace@@QAEXPBDP6AMPAVSimObject@@HQAPBD@Z0HH@Z 0041ccd0 f   consoleInternal.obj
 0001:0001bd20       ?addCommand@Namespace@@QAEXPBDP6A_NPAVSimObject@@HQAPBD@Z0HH@Z 0041cd20 f   consoleInternal.obj
 0001:0001bd70       ?addOverload@Namespace@@QAEXPBD0@Z 0041cd70 f   consoleInternal.obj
 0001:0001be30       ?markGroup@Namespace@@QAEXPBD0@Z 0041ce30 f   consoleInternal.obj
 0001:0001bf10       ?activatePackage@Namespace@@SAXPBD@Z 0041cf10 f   consoleInternal.obj
 0001:0001bff0       ?deactivatePackage@Namespace@@SAXPBD@Z 0041cff0 f   consoleInternal.obj
 0001:0001c0d0       ?unlinkPackages@Namespace@@SAXXZ 0041d0d0 f   consoleInternal.obj
 0001:0001c0f0       ?relinkPackages@Namespace@@SAXXZ 0041d0f0 f   consoleInternal.obj
 0001:0001c160       ??A?$Vector@PAUEntry@Dictionary@@@@QAEAAPAUEntry@Dictionary@@H@Z 0041d160 f i consoleInternal.obj
 0001:0001c170       ?pop_back@?$Vector@PAVDictionary@@@@QAEXXZ 0041d170 f i consoleInternal.obj
 0001:0001c190       ?reserve@?$Vector@PAVDictionary@@@@QAEXI@Z 0041d190 f i consoleInternal.obj
 0001:0001c1c0       ?increment@?$Vector@PAVDictionary@@@@QAEXI@Z 0041d1c0 f i consoleInternal.obj
 0001:0001c1f0       ?increment@?$Vector@PAUEntry@Dictionary@@@@QAEXI@Z 0041d1f0 f i consoleInternal.obj
 0001:0001c220       ?increment@?$Vector@PAUEntry@Namespace@@@@QAEXI@Z 0041d220 f i consoleInternal.obj
 0001:0001c250       ?remove@Dictionary@@QAEXPAUEntry@1@@Z 0041d250 f   consoleInternal.obj
 0001:0001c2b0       ??1Dictionary@@QAE@XZ      0041d2b0 f   consoleInternal.obj
 0001:0001c2d0       ?removeVariable@Dictionary@@QAE_NPBD@Z 0041d2d0 f   consoleInternal.obj
 0001:0001c310       ??_GDictionary@@QAEPAXI@Z  0041d310 f i consoleInternal.obj
 0001:0001c340       ??0?$Vector@PAVDictionary@@@@QAE@I@Z 0041d340 f i consoleInternal.obj
 0001:0001c390       ?push_back@?$Vector@PAVDictionary@@@@QAEXABQAVDictionary@@@Z 0041d390 f i consoleInternal.obj
 0001:0001c3d0       ?push_back@?$Vector@PAUEntry@Dictionary@@@@QAEXABQAUEntry@Dictionary@@@Z 0041d3d0 f i consoleInternal.obj
 0001:0001c410       ?push_back@?$Vector@PAUEntry@Namespace@@@@QAEXABQAUEntry@Namespace@@@Z 0041d410 f i consoleInternal.obj
 0001:0001c450       ?exportVariables@Dictionary@@QAEXPBD0_N@Z 0041d450 f   consoleInternal.obj
 0001:0001c740       ?deleteVariables@Dictionary@@QAEXPBD@Z 0041d740 f   consoleInternal.obj
 0001:0001c7e0       ?pushFrame@ExprEvalState@@QAEXPBDPAVNamespace@@@Z 0041d7e0 f   consoleInternal.obj
 0001:0001c850       ?popFrame@ExprEvalState@@QAEXXZ 0041d850 f   consoleInternal.obj
 0001:0001c890       ??0ExprEvalState@@QAE@XZ   0041d890 f   consoleInternal.obj
 0001:0001c8f0       ??1ExprEvalState@@QAE@XZ   0041d8f0 f   consoleInternal.obj
 0001:0001c9a0       ?getEntryList@Namespace@@QAEXPAV?$Vector@PAUEntry@Namespace@@@@@Z 0041d9a0 f   consoleInternal.obj
 0001:0001ca30       ?getClassRep@ConsoleLogger@@UBEPAVAbstractClassRep@@XZ 0041da30 f   consoleLogger.obj
 0001:0001ca40       ?getStaticClassRep@ConsoleLogger@@SAPAVAbstractClassRep@@XZ 0041da40 f   consoleLogger.obj
 0001:0001ca50       ?getParentStaticClassRep@ConsoleLogger@@SAPAVAbstractClassRep@@XZ 0041da50 f   consoleLogger.obj
 0001:0001ca60       ??0ConsoleLogger@@QAE@XZ   0041da60 f   consoleLogger.obj
 0001:0001cac0       ?initPersistFields@ConsoleLogger@@SAXXZ 0041dac0 f   consoleLogger.obj
 0001:0001cb00       ?log@ConsoleLogger@@AAEXPBD@Z 0041db00 f   consoleLogger.obj
 0001:0001cb50       ??0EnumTable@@QAE@HPAUEnums@0@@Z 0041db50 f i consoleLogger.obj
 0001:0001cb70       ??1?$Vector@PAVConsoleLogger@@@@QAE@XZ 0041db70 f i consoleLogger.obj
 0001:0001cb80       ?size@?$Vector@PAVConsoleLogger@@@@QBEHXZ 0041db80 f i consoleLogger.obj
 0001:0001cb90       ??A?$Vector@PAVConsoleLogger@@@@QAEAAPAVConsoleLogger@@I@Z 0041db90 f i consoleLogger.obj
 0001:0001cba0       ?onEditorEnable@SimObject@@UAEXXZ 0041dba0 f i consoleLogger.obj
 0001:0001cbb0       ?onEditorDisable@SimObject@@UAEXXZ 0041dbb0 f i consoleLogger.obj
 0001:0001cbc0       ?decrement@?$Vector@PAVConsoleLogger@@@@QAEXI@Z 0041dbc0 f i consoleLogger.obj
 0001:0001cbe0       ?resize@?$Vector@PAVConsoleLogger@@@@IAE_NI@Z 0041dbe0 f i consoleLogger.obj
 0001:0001cc00       ?registerLights@SimObject@@UAEXPAVLightManager@@_N@Z 0041dc00 f i consoleLogger.obj
 0001:0001cc10       ??A?$Vector@PAVConsoleLogger@@@@QAEAAPAVConsoleLogger@@H@Z 0041dc10 f i consoleLogger.obj
 0001:0001cc20       ??1AbstractClassRep@@UAE@XZ 0041dc20 f i consoleLogger.obj
 0001:0001cc40       ??_EAbstractClassRep@@UAEPAXI@Z 0041dc40 f i consoleLogger.obj
 0001:0001cc40       ??_GAbstractClassRep@@UAEPAXI@Z 0041dc40 f i consoleLogger.obj
 0001:0001cc60       ?erase@?$Vector@PAVConsoleLogger@@@@QAEXI@Z 0041dc60 f i consoleLogger.obj
 0001:0001cca0       ?reserve@?$Vector@PAVConsoleLogger@@@@QAEXI@Z 0041dca0 f i consoleLogger.obj
 0001:0001ccd0       ?increment@?$Vector@PAVConsoleLogger@@@@QAEXI@Z 0041dcd0 f i consoleLogger.obj
 0001:0001cd00       ??1?$ConcreteClassRep@VConsoleLogger@@@@UAE@XZ 0041dd00 f i consoleLogger.obj
 0001:0001cd20       ?logCallback@ConsoleLogger@@SAXW4Level@ConsoleLogEntry@@PBD@Z 0041dd20 f   consoleLogger.obj
 0001:0001cda0       ??0?$Vector@PAVConsoleLogger@@@@QAE@I@Z 0041dda0 f i consoleLogger.obj
 0001:0001cdf0       ?push_back@?$Vector@PAVConsoleLogger@@@@QAEXABQAVConsoleLogger@@@Z 0041ddf0 f i consoleLogger.obj
 0001:0001ce30       ?init@ConsoleLogger@@AAE_NXZ 0041de30 f   consoleLogger.obj
 0001:0001ce70       ?attach@ConsoleLogger@@QAE_NXZ 0041de70 f   consoleLogger.obj
 0001:0001cf20       ?detach@ConsoleLogger@@QAE_NXZ 0041df20 f   consoleLogger.obj
 0001:0001cff0       ??0AbstractClassRep@@QAE@XZ 0041dff0 f i consoleLogger.obj
 0001:0001d010       ??0ConsoleLogger@@QAE@PBD_N@Z 0041e010 f   consoleLogger.obj
 0001:0001d0c0       ?processArguments@ConsoleLogger@@UAE_NHPAPBD@Z 0041e0c0 f   consoleLogger.obj
 0001:0001d140       ??1ConsoleLogger@@UAE@XZ   0041e140 f   consoleLogger.obj
 0001:0001d1c0       ??0?$ConcreteClassRep@VConsoleLogger@@@@QAE@PBDHHH@Z 0041e1c0 f i consoleLogger.obj
 0001:0001d240       ?create@?$ConcreteClassRep@VConsoleLogger@@@@UBEPAVConsoleObject@@XZ 0041e240 f i consoleLogger.obj
 0001:0001d270       ?init@?$ConcreteClassRep@VConsoleLogger@@@@UBEXXZ 0041e270 f i consoleLogger.obj
 0001:0001d2d0       ??_E?$ConcreteClassRep@VConsoleLogger@@@@UAEPAXI@Z 0041e2d0 f i consoleLogger.obj
 0001:0001d2d0       ??_G?$ConcreteClassRep@VConsoleLogger@@@@UAEPAXI@Z 0041e2d0 f i consoleLogger.obj
 0001:0001d2f0       ??_EConsoleLogger@@UAEPAXI@Z 0041e2f0 f i consoleLogger.obj
 0001:0001d2f0       ??_GConsoleLogger@@UAEPAXI@Z 0041e2f0 f i consoleLogger.obj
 0001:0001d310       ?registerClassRep@AbstractClassRep@@SAXPAV1@@Z 0041e310 f   consoleObject.obj
 0001:0001d330       ?create@AbstractClassRep@@KAPAVConsoleObject@@III@Z 0041e330 f   consoleObject.obj
 0001:0001d360       ?suppressSpaces@@YAPADPBD@Z 0041e360 f   consoleObject.obj
 0001:0001d390       ??0BitSet32@@QAE@XZ        0041e390 f i consoleObject.obj
 0001:0001d3a0       ?initPersistFields@ConsoleObject@@SAXXZ 0041e3a0 f   consoleObject.obj
 0001:0001d3b0       ?consoleInit@ConsoleObject@@SAXXZ 0041e3b0 f   consoleObject.obj
 0001:0001d3c0       ??1ConsoleObject@@UAE@XZ   0041e3c0 f   consoleObject.obj
 0001:0001d3d0       ?getClassRep@ConsoleObject@@UBEPAVAbstractClassRep@@XZ 0041e3d0 f   consoleObject.obj
 0001:0001d3e0       ??A?$Vector@UField@AbstractClassRep@@@@QBEABUField@AbstractClassRep@@I@Z 0041e3e0 f i consoleObject.obj
 0001:0001d3f0       ?clear@?$Vector@UField@AbstractClassRep@@@@QAEXXZ 0041e3f0 f i consoleObject.obj
 0001:0001d400       ??0?$Vector@PAVAbstractClassRep@@@@QAE@PBDI@Z 0041e400 f i consoleObject.obj
 0001:0001d410       ??1?$Vector@PAVAbstractClassRep@@@@QAE@XZ 0041e410 f i consoleObject.obj
 0001:0001d420       ?size@?$Vector@PAVAbstractClassRep@@@@QBEHXZ 0041e420 f i consoleObject.obj
 0001:0001d430       ??A?$Vector@PAVAbstractClassRep@@@@QAEAAPAVAbstractClassRep@@I@Z 0041e430 f i consoleObject.obj
 0001:0001d440       ?clear@?$Vector@PAVAbstractClassRep@@@@QAEXXZ 0041e440 f i consoleObject.obj
 0001:0001d450       ??_GConsoleObject@@UAEPAXI@Z 0041e450 f i consoleObject.obj
 0001:0001d450       ??_EConsoleObject@@UAEPAXI@Z 0041e450 f i consoleObject.obj
 0001:0001d470       ?increment@?$Vector@UField@AbstractClassRep@@@@QAEXI@Z 0041e470 f i consoleObject.obj
 0001:0001d4a0       ?decrement@?$Vector@UField@AbstractClassRep@@@@QAEXI@Z 0041e4a0 f i consoleObject.obj
 0001:0001d4c0       ?resize@?$Vector@PAVAbstractClassRep@@@@IAE_NI@Z 0041e4c0 f i consoleObject.obj
 0001:0001d4e0       ?findField@AbstractClassRep@@QBEPBUField@1@PBD@Z 0041e4e0 f   consoleObject.obj
 0001:0001d520       ?create@AbstractClassRep@@KAPAVConsoleObject@@PBD@Z 0041e520 f   consoleObject.obj
 0001:0001d590       ??0Field@AbstractClassRep@@QAE@XZ 0041e590 f i consoleObject.obj
 0001:0001d5a0       ??A?$Vector@PAVAbstractClassRep@@@@QAEAAPAVAbstractClassRep@@H@Z 0041e5a0 f i consoleObject.obj
 0001:0001d5b0       ??4?$Vector@UField@AbstractClassRep@@@@QAEAAV0@ABV0@@Z 0041e5b0 f i consoleObject.obj
 0001:0001d600       ?erase@?$Vector@UField@AbstractClassRep@@@@QAEXI@Z 0041e600 f i consoleObject.obj
 0001:0001d650       ?push_back@?$Vector@UField@AbstractClassRep@@@@QAEXABUField@AbstractClassRep@@@Z 0041e650 f i consoleObject.obj
 0001:0001d6a0       ?setSize@?$Vector@UField@AbstractClassRep@@@@QAEII@Z 0041e6a0 f i consoleObject.obj
 0001:0001d6d0       ?increment@?$Vector@PAVAbstractClassRep@@@@QAEXI@Z 0041e6d0 f i consoleObject.obj
 0001:0001d700       ?addGroup@ConsoleObject@@KAXPBD0@Z 0041e700 f   consoleObject.obj
 0001:0001d7f0       ?endGroup@ConsoleObject@@KAXPBD@Z 0041e7f0 f   consoleObject.obj
 0001:0001d8c0       ?addField@ConsoleObject@@KAXPBDIIIPAUEnumTable@@0@Z 0041e8c0 f   consoleObject.obj
 0001:0001d980       ?addFieldV@ConsoleObject@@KAXPBDIIPAVTypeValidator@@0@Z 0041e980 f   consoleObject.obj
 0001:0001da50       ?addDepricatedField@ConsoleObject@@KAXPBD@Z 0041ea50 f   consoleObject.obj
 0001:0001daf0       ?removeField@ConsoleObject@@KA_NPBD@Z 0041eaf0 f   consoleObject.obj
 0001:0001db80       ?push_back@?$Vector@PAVAbstractClassRep@@@@QAEXABQAVAbstractClassRep@@@Z 0041eb80 f i consoleObject.obj
 0001:0001dbc0       ?initialize@AbstractClassRep@@SAXXZ 0041ebc0 f   consoleObject.obj
 0001:0001de10       ?addField@ConsoleObject@@KAXPBDII0@Z 0041ee10 f   consoleObject.obj
 0001:0001e0d0       ??BBitSet32@@QBEIXZ        0041f0d0 f i consoleTypes.obj
 0001:0001e180       ?set@BitSet32@@QAEXV1@_N@Z 0041f180 f i consoleTypes.obj
 0001:0001e2b0       ?set@ColorI@@QAEXEEEE@Z    0041f2b0 f i consoleTypes.obj
 0001:0001e2d0       ?begin@?$Vector@H@@QAEPAHXZ 0041f2d0 f i consoleTypes.obj
 0001:0001e2e0       ?end@?$Vector@H@@QAEPAHXZ  0041f2e0 f i consoleTypes.obj
 0001:0001e2f0       ?clear@?$Vector@H@@QAEXXZ  0041f2f0 f i consoleTypes.obj
 0001:0001e300       ?begin@?$Vector@M@@QAEPAMXZ 0041f300 f i consoleTypes.obj
 0001:0001e310       ?end@?$Vector@M@@QAEPAMXZ  0041f310 f i consoleTypes.obj
 0001:0001e320       ?clear@?$Vector@M@@QAEXXZ  0041f320 f i consoleTypes.obj
 0001:0001e330       ?begin@?$Vector@_N@@QAEPA_NXZ 0041f330 f i consoleTypes.obj
 0001:0001e340       ?end@?$Vector@_N@@QAEPA_NXZ 0041f340 f i consoleTypes.obj
 0001:0001e350       ?clear@?$Vector@_N@@QAEXXZ 0041f350 f i consoleTypes.obj
 0001:0001e360       ?resize@?$Vector@H@@IAE_NI@Z 0041f360 f i consoleTypes.obj
 0001:0001e380       ?resize@?$Vector@M@@IAE_NI@Z 0041f380 f i consoleTypes.obj
 0001:0001e3a0       ?resize@?$Vector@_N@@IAE_NI@Z 0041f3a0 f i consoleTypes.obj
 0001:0001e7b0       ?increment@?$Vector@H@@QAEXI@Z 0041f7b0 f i consoleTypes.obj
 0001:0001e7e0       ?increment@?$Vector@M@@QAEXI@Z 0041f7e0 f i consoleTypes.obj
 0001:0001e810       ?increment@?$Vector@_N@@QAEXI@Z 0041f810 f i consoleTypes.obj
 0001:0001e840       ?push_back@?$Vector@H@@QAEXABH@Z 0041f840 f i consoleTypes.obj
 0001:0001e880       ?push_back@?$Vector@M@@QAEXABM@Z 0041f880 f i consoleTypes.obj
 0001:0001e8c0       ?push_back@?$Vector@_N@@QAEXAB_N@Z 0041f8c0 f i consoleTypes.obj
 0001:0001ec30       ?RegisterCoreTypes@@YAXXZ  0041fc30 f   consoleTypes.obj
 0001:0001edb0       ?CMDparse@@YAHXZ           0041fdb0 f   gram.obj
 0001:0001fcf0       ?CMD_reset@@YAXXZ          00420cf0 f   scan.obj
 0001:0001fd20       ?CMDGetCurrentFile@@YAPBDXZ 00420d20 f   scan.obj
 0001:0001fd30       ?CMDGetCurrentLine@@YAHXZ  00420d30 f   scan.obj
 0001:0001fd40       ?CMDerror@@YAXPADZZ        00420d40 f   scan.obj
 0001:0001ffc0       ?SetScanBuffer@@YAXPBD0@Z  00420fc0 f   scan.obj
 0001:0001fff0       ?CMDgetc@@YAHXZ            00420ff0 f   scan.obj
 0001:00020020       ?CMDwrap@@YAHXZ            00421020 f   scan.obj
 0001:000200d0       ?expandEscape@@YAXPADPBD@Z 004210d0 f   scan.obj
 0001:000201f0       ?collapseEscape@@YA_NPAD@Z 004211f0 f   scan.obj
 0001:00020480       ?CMDlex@@YAHXZ             00421480 f   scan.obj
 0001:00020cb0       ?getClassRep@ScriptObject@@UBEPAVAbstractClassRep@@XZ 00421cb0 f   scriptObject.obj
 0001:00020cc0       ?getStaticClassRep@ScriptObject@@SAPAVAbstractClassRep@@XZ 00421cc0 f   scriptObject.obj
 0001:00020cd0       ?getParentStaticClassRep@ScriptObject@@SAPAVAbstractClassRep@@XZ 00421cd0 f   scriptObject.obj
 0001:00020ce0       ?initPersistFields@ScriptObject@@SAXXZ 00421ce0 f   scriptObject.obj
 0001:00020d30       ??0ScriptObject@@QAE@XZ    00421d30 f   scriptObject.obj
 0001:00020d50       ?getClassRep@ScriptGroup@@UBEPAVAbstractClassRep@@XZ 00421d50 f   scriptObject.obj
 0001:00020d60       ?getStaticClassRep@ScriptGroup@@SAPAVAbstractClassRep@@XZ 00421d60 f   scriptObject.obj
 0001:00020d70       ?getParentStaticClassRep@ScriptGroup@@SAPAVAbstractClassRep@@XZ 00421d70 f   scriptObject.obj
 0001:00020d80       ?initPersistFields@ScriptGroup@@SAXXZ 00421d80 f   scriptObject.obj
 0001:00020dd0       ??1?$Vector@PAX@@QAE@XZ    00421dd0 f i scriptObject.obj
 0001:00020de0       ?resize@?$Vector@PAX@@IAE_NI@Z 00421de0 f i scriptObject.obj
 0001:00020e00       ??1?$VectorPtr@PAVSimObject@@@@QAE@XZ 00421e00 f i scriptObject.obj
 0001:00020e10       ??_EScriptObject@@UAEPAXI@Z 00421e10 f i scriptObject.obj
 0001:00020e10       ??_GScriptObject@@UAEPAXI@Z 00421e10 f i scriptObject.obj
 0001:00020e30       ??1ScriptObject@@UAE@XZ    00421e30 f i scriptObject.obj
 0001:00020e40       ?onAdd@ScriptObject@@UAE_NXZ 00421e40 f   scriptObject.obj
 0001:00020ee0       ?onRemove@ScriptObject@@UAEXXZ 00421ee0 f   scriptObject.obj
 0001:00020f10       ?onAdd@ScriptGroup@@UAE_NXZ 00421f10 f   scriptObject.obj
 0001:00020fb0       ?onRemove@ScriptGroup@@UAEXXZ 00421fb0 f   scriptObject.obj
 0001:00020fe0       ?reserve@?$Vector@PAX@@QAEXI@Z 00421fe0 f i scriptObject.obj
 0001:00021010       ??1SimObjectList@@QAE@XZ   00422010 f i scriptObject.obj
 0001:00021020       ??1SimSet@@UAE@XZ          00422020 f i scriptObject.obj
 0001:00021070       ??1?$ConcreteClassRep@VScriptObject@@@@UAE@XZ 00422070 f i scriptObject.obj
 0001:00021090       ??1?$ConcreteClassRep@VScriptGroup@@@@UAE@XZ 00422090 f i scriptObject.obj
 0001:000210b0       ??0?$Vector@PAX@@QAE@I@Z   004220b0 f i scriptObject.obj
 0001:00021100       ??0?$VectorPtr@PAVSimObject@@@@QAE@XZ 00422100 f i scriptObject.obj
 0001:00021110       ??0SimObjectList@@QAE@XZ   00422110 f i scriptObject.obj
 0001:00021120       ??0?$ConcreteClassRep@VScriptObject@@@@QAE@PBDHHH@Z 00422120 f i scriptObject.obj
 0001:000211a0       ?create@?$ConcreteClassRep@VScriptObject@@@@UBEPAVConsoleObject@@XZ 004221a0 f i scriptObject.obj
 0001:000211d0       ?init@?$ConcreteClassRep@VScriptObject@@@@UBEXXZ 004221d0 f i scriptObject.obj
 0001:00021240       ??_G?$ConcreteClassRep@VScriptObject@@@@UAEPAXI@Z 00422240 f i scriptObject.obj
 0001:00021240       ??_E?$ConcreteClassRep@VScriptObject@@@@UAEPAXI@Z 00422240 f i scriptObject.obj
 0001:00021260       ??0?$ConcreteClassRep@VScriptGroup@@@@QAE@PBDHHH@Z 00422260 f i scriptObject.obj
 0001:000212e0       ?init@?$ConcreteClassRep@VScriptGroup@@@@UBEXXZ 004222e0 f i scriptObject.obj
 0001:00021350       ??_E?$ConcreteClassRep@VScriptGroup@@@@UAEPAXI@Z 00422350 f i scriptObject.obj
 0001:00021350       ??_G?$ConcreteClassRep@VScriptGroup@@@@UAEPAXI@Z 00422350 f i scriptObject.obj
 0001:00021370       ??0SimSet@@QAE@XZ          00422370 f i scriptObject.obj
 0001:000213c0       ??_GSimSet@@UAEPAXI@Z      004223c0 f i scriptObject.obj
 0001:000213c0       ??_ESimSet@@UAEPAXI@Z      004223c0 f i scriptObject.obj
 0001:000213e0       ??0SimGroup@@QAE@XZ        004223e0 f i scriptObject.obj
 0001:00021440       ??_GSimGroup@@UAEPAXI@Z    00422440 f i scriptObject.obj
 0001:00021440       ??_ESimGroup@@UAEPAXI@Z    00422440 f i scriptObject.obj
 0001:00021460       ??0ScriptGroup@@QAE@XZ     00422460 f   scriptObject.obj
 0001:00021480       ??_GScriptGroup@@UAEPAXI@Z 00422480 f i scriptObject.obj
 0001:00021480       ??_EScriptGroup@@UAEPAXI@Z 00422480 f i scriptObject.obj
 0001:000214a0       ??1ScriptGroup@@UAE@XZ     004224a0 f i scriptObject.obj
 0001:000214b0       ?create@?$ConcreteClassRep@VScriptGroup@@@@UBEPAVConsoleObject@@XZ 004224b0 f i scriptObject.obj
 0001:000214e0       ??1?$Chunker@UEntry@SimFieldDictionary@@@@QAE@XZ 004224e0 f i simBase.obj
 0001:000214f0       ?freeEntry@SimFieldDictionary@@CAXPAUEntry@1@@Z 004224f0 f   simBase.obj
 0001:00021510       ??0SimFieldDictionary@@QAE@XZ 00422510 f   simBase.obj
 0001:00021550       ??1SimFieldDictionary@@QAE@XZ 00422550 f   simBase.obj
 0001:000215b0       ?getFieldValue@SimFieldDictionary@@QAEPBDPBD@Z 004225b0 f   simBase.obj
 0001:00021610       ??ESimFieldDictionaryIterator@@QAEPAUEntry@SimFieldDictionary@@XZ 00422610 f   simBase.obj
 0001:00021650       ??DSimFieldDictionaryIterator@@QAEPAUEntry@SimFieldDictionary@@XZ 00422650 f   simBase.obj
 0001:00021660       ?getNameSpace@AbstractClassRep@@QAEPAVNamespace@@XZ 00422660 f i simBase.obj
 0001:00021670       ??0ConsoleObject@@IAE@XZ   00422670 f i simBase.obj
 0001:00021680       ?getStaticClassRep@ConsoleObject@@SAPAVAbstractClassRep@@XZ 00422680 f i simBase.obj
 0001:00021690       ?findField@ConsoleObject@@IBEPBUField@AbstractClassRep@@PBD@Z 00422690 f i simBase.obj
 0001:000216b0       ?getFieldList@ConsoleObject@@QBEABV?$Vector@UField@AbstractClassRep@@@@XZ 004226b0 f i simBase.obj
 0001:000216c0       ??0SimEvent@@QAE@XZ        004226c0 f i simBase.obj
 0001:000216d0       ??1SimEvent@@UAE@XZ        004226d0 f i simBase.obj
 0001:00021730       ??_GSimEvent@@UAEPAXI@Z    00422730 f i simBase.obj
 0001:00021730       ??_ESimEvent@@UAEPAXI@Z    00422730 f i simBase.obj
 0001:00021750       ?getFieldDictionary@SimObject@@QAEPAVSimFieldDictionary@@XZ 00422750 f i simBase.obj
 0001:00021780       ?getType@SimObject@@QBEIXZ 00422780 f i simBase.obj
 0001:000217d0       ?isSelected@SimObject@@QBE_NXZ 004227d0 f i simBase.obj
 0001:00021880       ?tabComplete@SimObject@@QAEPBDPBDH_N@Z 00422880 f   simBase.obj
 0001:00021890       ?getDataField@SimObject@@QAEPBDPBD0@Z 00422890 f   simBase.obj
 0001:00021990       ??_GSimFieldDictionary@@QAEPAXI@Z 00422990 f i simBase.obj
 0001:000219b0       ?isLocked@SimObject@@QAE_NXZ 004229b0 f   simBase.obj
 0001:000219f0       ?isHidden@SimObject@@QAE_NXZ 004229f0 f   simBase.obj
 0001:00021a30       ?getIdString@SimObject@@QAEPBDXZ 00422a30 f   simBase.obj
 0001:00021a50       ?onAdd@SimObject@@UAE_NXZ  00422a50 f   simBase.obj
 0001:00021a70       ?onRemove@SimObject@@UAEXXZ 00422a70 f   simBase.obj
 0001:00021a80       ?onGroupAdd@SimObject@@UAEXXZ 00422a80 f   simBase.obj
 0001:00021a90       ?onGroupRemove@SimObject@@UAEXXZ 00422a90 f   simBase.obj
 0001:00021aa0       ?onDeleteNotify@SimObject@@UAEXPAV1@@Z 00422aa0 f   simBase.obj
 0001:00021ab0       ?onNameChange@SimObject@@UAEXPBD@Z 00422ab0 f   simBase.obj
 0001:00021ac0       ?onStaticModified@SimObject@@UAEXPBD@Z 00422ac0 f   simBase.obj
 0001:00021ad0       ?processArguments@SimObject@@UAE_NHPAPBD@Z 00422ad0 f   simBase.obj
 0001:00021ae0       ??1?$Chunker@UNotify@SimObject@@@@QAE@XZ 00422ae0 f i simBase.obj
 0001:00021af0       ?freeNotify@SimObject@@KAXPAUNotify@1@@Z 00422af0 f   simBase.obj
 0001:00021b10       ?removeNotify@SimObject@@QAEPAUNotify@1@PAXW4Type@21@@Z 00422b10 f   simBase.obj
 0001:00021b50       ?unregisterReference@SimObject@@QAEXPAPAV1@@Z 00422b50 f   simBase.obj
 0001:00021ba0       ?clearNotify@SimObject@@QAEXPAV1@@Z 00422ba0 f   simBase.obj
 0001:00021c30       ?processDeleteNotifies@SimObject@@QAEXXZ 00422c30 f   simBase.obj
 0001:00021cd0       ?clearAllNotifications@SimObject@@QAEXXZ 00422cd0 f   simBase.obj
 0001:00021d60       ?initPersistFields@SimObject@@SAXXZ 00422d60 f   simBase.obj
 0001:00021d70       ?addToSet@SimObject@@QAE_NI@Z 00422d70 f   simBase.obj
 0001:00021dc0       ?addToSet@SimObject@@QAE_NPBD@Z 00422dc0 f   simBase.obj
 0001:00021e10       ?inspectPreApply@SimObject@@UAEXXZ 00422e10 f   simBase.obj
 0001:00021e20       ?inspectPostApply@SimObject@@UAEXXZ 00422e20 f   simBase.obj
 0001:00021e30       ?getClassRep@SimObject@@UBEPAVAbstractClassRep@@XZ 00422e30 f   simBase.obj
 0001:00021e40       ?getStaticClassRep@SimObject@@SAPAVAbstractClassRep@@XZ 00422e40 f   simBase.obj
 0001:00021e50       ?getParentStaticClassRep@SimObject@@SAPAVAbstractClassRep@@XZ 00422e50 f   simBase.obj
 0001:00021e60       ?getClassRep@SimDataBlock@@UBEPAVAbstractClassRep@@XZ 00422e60 f   simBase.obj
 0001:00021e70       ?getStaticClassRep@SimDataBlock@@SAPAVAbstractClassRep@@XZ 00422e70 f   simBase.obj
 0001:00021e80       ?getParentStaticClassRep@SimDataBlock@@SAPAVAbstractClassRep@@XZ 00422e80 f   simBase.obj
 0001:00021e90       ?onAdd@SimDataBlock@@UAE_NXZ 00422e90 f   simBase.obj
 0001:00021ee0       ?assignId@SimDataBlock@@QAEXXZ 00422ee0 f   simBase.obj
 0001:00021f10       ?onStaticModified@SimDataBlock@@UAEXPBD@Z 00422f10 f   simBase.obj
 0001:00021f30       ?packData@SimDataBlock@@UAEXPAVBitStream@@@Z 00422f30 f   simBase.obj
 0001:00021f40       ?unpackData@SimDataBlock@@UAEXPAVBitStream@@@Z 00422f40 f   simBase.obj
 0001:00021f50       ?preload@SimDataBlock@@UAE_N_NQAD@Z 00422f50 f   simBase.obj
 0001:00021f60       ?onDeleteNotify@SimSet@@UAEXPAVSimObject@@@Z 00422f60 f   simBase.obj
 0001:00021fc0       ?getClassRep@SimSet@@UBEPAVAbstractClassRep@@XZ 00422fc0 f   simBase.obj
 0001:00021fd0       ?getStaticClassRep@SimSet@@SAPAVAbstractClassRep@@XZ 00422fd0 f   simBase.obj
 0001:00021fe0       ?getParentStaticClassRep@SimSet@@SAPAVAbstractClassRep@@XZ 00422fe0 f   simBase.obj
 0001:00021ff0       ?findObject@SimGroup@@UAEPAVSimObject@@PBD@Z 00422ff0 f   simBase.obj
 0001:00022050       ?findObject@SimObject@@UAEPAV1@PBD@Z 00423050 f   simBase.obj
 0001:00022060       ?processArguments@SimGroup@@UAE_NHPAPBD@Z 00423060 f   simBase.obj
 0001:00022070       ?getClassRep@SimGroup@@UBEPAVAbstractClassRep@@XZ 00423070 f   simBase.obj
 0001:00022080       ?getStaticClassRep@SimGroup@@SAPAVAbstractClassRep@@XZ 00423080 f   simBase.obj
 0001:00022090       ?getParentStaticClassRep@SimGroup@@SAPAVAbstractClassRep@@XZ 00423090 f   simBase.obj
 0001:000220a0       ??0SimConsoleEvent@@QAE@HPAPBD_N@Z 004230a0 f   simBase.obj
 0001:00022170       ??1SimConsoleEvent@@UAE@XZ 00423170 f   simBase.obj
 0001:000221c0       ?process@SimConsoleEvent@@UAEXPAVSimObject@@@Z 004231c0 f   simBase.obj
 0001:000221f0       ??0?$Chunker@UEntry@SimFieldDictionary@@@@QAE@H@Z 004231f0 f i simBase.obj
 0001:00022210       ?alloc@?$Chunker@UEntry@SimFieldDictionary@@@@QAEPAUEntry@SimFieldDictionary@@XZ 00423210 f i simBase.obj
 0001:00022220       ??0?$Chunker@UNotify@SimObject@@@@QAE@H@Z 00423220 f i simBase.obj
 0001:00022240       ?alloc@?$Chunker@UNotify@SimObject@@@@QAEPAUNotify@SimObject@@XZ 00423240 f i simBase.obj
 0001:00022250       ?size@?$Vector@PAX@@QBEHXZ 00423250 f i simBase.obj
 0001:00022260       ?empty@?$Vector@PAX@@QBE_NXZ 00423260 f i simBase.obj
 0001:00022270       ?address@?$Vector@PAX@@QBEPAPAXXZ 00423270 f i simBase.obj
 0001:00022280       ?decrement@?$Vector@PAX@@QAEXI@Z 00423280 f i simBase.obj
 0001:000222a0       ??$find@PAPAVSimObject@@PAV1@@@YAPAPAVSimObject@@PAPAV0@0PAV0@@Z 004232a0 f i simBase.obj
 0001:000222c0       ??1?$Vector@UEntry@SimSetIterator@@@@QAE@XZ 004232c0 f i simBase.obj
 0001:000222d0       ?empty@?$Vector@UEntry@SimSetIterator@@@@QBE_NXZ 004232d0 f i simBase.obj
 0001:000222e0       ?last@?$Vector@UEntry@SimSetIterator@@@@QAEAAUEntry@SimSetIterator@@XZ 004232e0 f i simBase.obj
 0001:000222f0       ??0?$Vector@PAUEntry@SimFieldDictionary@@@@QAE@PBDI@Z 004232f0 f i simBase.obj
 0001:00022300       ??1?$Vector@PAUEntry@SimFieldDictionary@@@@QAE@XZ 00423300 f i simBase.obj
 0001:00022310       ?begin@?$Vector@PAUEntry@SimFieldDictionary@@@@QAEPAPAUEntry@SimFieldDictionary@@XZ 00423310 f i simBase.obj
 0001:00022320       ?end@?$Vector@PAUEntry@SimFieldDictionary@@@@QAEPAPAUEntry@SimFieldDictionary@@XZ 00423320 f i simBase.obj
 0001:00022330       ?size@?$Vector@PAUEntry@SimFieldDictionary@@@@QBEHXZ 00423330 f i simBase.obj
 0001:00022340       ?address@?$Vector@PAUEntry@SimFieldDictionary@@@@QBEPAPAUEntry@SimFieldDictionary@@XZ 00423340 f i simBase.obj
 0001:00022350       ??0?$Vector@PBUField@AbstractClassRep@@@@QAE@PBDI@Z 00423350 f i simBase.obj
 0001:00022360       ??1?$Vector@PBUField@AbstractClassRep@@@@QAE@XZ 00423360 f i simBase.obj
 0001:00022370       ?begin@?$Vector@PBUField@AbstractClassRep@@@@QAEPAPBUField@AbstractClassRep@@XZ 00423370 f i simBase.obj
 0001:00022380       ?end@?$Vector@PBUField@AbstractClassRep@@@@QAEPAPBUField@AbstractClassRep@@XZ 00423380 f i simBase.obj
 0001:00022390       ?size@?$Vector@PBUField@AbstractClassRep@@@@QBEHXZ 00423390 f i simBase.obj
 0001:000223a0       ?address@?$Vector@PBUField@AbstractClassRep@@@@QBEPAPBUField@AbstractClassRep@@XZ 004233a0 f i simBase.obj
 0001:000223b0       ??0?$Vector@PAUEntry@Namespace@@@@QAE@PBDI@Z 004233b0 f i simBase.obj
 0001:000223c0       ??1?$Vector@PAUEntry@Namespace@@@@QAE@XZ 004233c0 f i simBase.obj
 0001:000223d0       ?begin@?$Vector@PAUEntry@Namespace@@@@QAEPAPAUEntry@Namespace@@XZ 004233d0 f i simBase.obj
 0001:000223e0       ?end@?$Vector@PAUEntry@Namespace@@@@QAEPAPAUEntry@Namespace@@XZ 004233e0 f i simBase.obj
 0001:000223f0       ??$findObject@VSimSet@@@Sim@@YA_NPBDAAPAVSimSet@@@Z 004233f0 f i simBase.obj
 0001:00022430       ?begin@?$Vector@PAX@@QAEPAPAXXZ 00423430 f i simBase.obj
 0001:00022440       ?end@?$Vector@PAX@@QAEPAPAXXZ 00423440 f i simBase.obj
 0001:00022450       ??A?$Vector@PAX@@QAEAAPAXI@Z 00423450 f i simBase.obj
 0001:00022460       ?last@?$Vector@PAX@@QAEAAPAXXZ 00423460 f i simBase.obj
 0001:00022470       ?resize@?$Vector@UEntry@SimSetIterator@@@@IAE_NI@Z 00423470 f i simBase.obj
 0001:00022490       ?reserve@?$Vector@UEntry@SimSetIterator@@@@QAEXI@Z 00423490 f i simBase.obj
 0001:000224c0       ?decrement@?$Vector@UEntry@SimSetIterator@@@@QAEXI@Z 004234c0 f i simBase.obj
 0001:000224e0       ?erase@?$Vector@PAX@@QAEXI@Z 004234e0 f i simBase.obj
 0001:00022520       ?resize@?$Vector@PAUEntry@SimFieldDictionary@@@@IAE_NI@Z 00423520 f i simBase.obj
 0001:00022540       ?resize@?$Vector@PBUField@AbstractClassRep@@@@IAE_NI@Z 00423540 f i simBase.obj
 0001:00022560       ?compareId@SimObjectList@@CAHPBX0@Z 00423560 f   simBase.obj
 0001:00022580       ?sortId@SimObjectList@@QAEXXZ 00423580 f   simBase.obj
 0001:000225a0       ?allocEntry@SimFieldDictionary@@CAPAUEntry@1@XZ 004235a0 f   simBase.obj
 0001:000225c0       ?setFieldValue@SimFieldDictionary@@QAEXPBD0@Z 004235c0 f   simBase.obj
 0001:000226b0       ??0SimObject@@QAE@XZ       004236b0 f   simBase.obj
 0001:00022720       ?assignFrom@SimFieldDictionary@@QAEXPAV1@@Z 00423720 f   simBase.obj
 0001:00022760       ?writeFields@SimFieldDictionary@@QAEXPAVSimObject@@AAVStream@@I@Z 00423760 f   simBase.obj
 0001:00022890       ??0SimFieldDictionaryIterator@@QAE@PAVSimFieldDictionary@@@Z 00423890 f   simBase.obj
 0001:000228b0       ?assignFieldsFrom@SimObject@@QAEXPAV1@@Z 004238b0 f   simBase.obj
 0001:00022a60       ?writeFields@SimObject@@QAEXAAVStream@@I@Z 00423a60 f   simBase.obj
 0001:00022ca0       ?write@SimObject@@UAEXAAVStream@@II@Z 00423ca0 f   simBase.obj
 0001:000231c0       ?empty@SimSet@@QAE_NXZ     004241c0 f i simBase.obj
 0001:000231d0       ?size@SimSet@@QAEHXZ       004241d0 f i simBase.obj
 0001:000231e0       ?find@SimSet@@QAEPAPAVSimObject@@PAPAV2@0PAV2@@Z 004241e0 f i simBase.obj
 0001:00023290       ??1Stack@SimSetIterator@@QAE@XZ 00424290 f i simBase.obj
 0001:00023330       ?setDataField@SimObject@@QAEXPBD00@Z 00424330 f   simBase.obj
 0001:000234c0       ??1SimObject@@UAE@XZ       004244c0 f   simBase.obj
 0001:00023530       ?setLocked@SimObject@@QAEX_N@Z 00424530 f   simBase.obj
 0001:00023570       ?setHidden@SimObject@@QAEX_N@Z 00424570 f   simBase.obj
 0001:000235b0       ?allocNotify@SimObject@@KAPAUNotify@1@XZ 004245b0 f   simBase.obj
 0001:000235d0       ?deleteNotify@SimObject@@QAEXPAV1@@Z 004245d0 f   simBase.obj
 0001:00023650       ?registerReference@SimObject@@QAEXPAPAV1@@Z 00424650 f   simBase.obj
 0001:00023690       ?removeFromSet@SimObject@@QAE_NI@Z 00424690 f   simBase.obj
 0001:000236e0       ?removeFromSet@SimObject@@QAE_NPBD@Z 004246e0 f   simBase.obj
 0001:00023730       ??1?$ConcreteClassRep@VSimObject@@@@UAE@XZ 00424730 f i simBase.obj
 0001:00023750       ??1?$ConcreteClassRep@VSimDataBlock@@@@UAE@XZ 00424750 f i simBase.obj
 0001:00023770       ??0SimDataBlock@@QAE@XZ    00424770 f   simBase.obj
 0001:00023800       ??1?$ConcreteClassRep@VSimSet@@@@UAE@XZ 00424800 f i simBase.obj
 0001:00023820       ??1?$ConcreteClassRep@VSimGroup@@@@UAE@XZ 00424820 f i simBase.obj
 0001:00023840       ??_GSimConsoleEvent@@UAEPAXI@Z 00424840 f i simBase.obj
 0001:00023840       ??_ESimConsoleEvent@@UAEPAXI@Z 00424840 f i simBase.obj
 0001:00023860       ?begin@?$VectorPtr@PAVSimObject@@@@QAEPAPAVSimObject@@XZ 00424860 f i simBase.obj
 0001:00023870       ?end@?$VectorPtr@PAVSimObject@@@@QAEPAPAVSimObject@@XZ 00424870 f i simBase.obj
 0001:00023880       ?front@?$VectorPtr@PAVSimObject@@@@QAEAAPAVSimObject@@XZ 00424880 f i simBase.obj
 0001:00023890       ??A?$VectorPtr@PAVSimObject@@@@QAEAAPAVSimObject@@I@Z 00424890 f i simBase.obj
 0001:000238a0       ?last@?$VectorPtr@PAVSimObject@@@@QAEAAPAVSimObject@@XZ 004248a0 f i simBase.obj
 0001:000238b0       ??0?$Vector@UEntry@SimSetIterator@@@@QAE@I@Z 004248b0 f i simBase.obj
 0001:00023900       ?pop_back@?$Vector@UEntry@SimSetIterator@@@@QAEXXZ 00424900 f i simBase.obj
 0001:00023920       ?increment@?$Vector@UEntry@SimSetIterator@@@@QAEXI@Z 00424920 f i simBase.obj
 0001:00023950       ?erase@?$Vector@PAX@@QAEXPAPAX@Z 00424950 f i simBase.obj
 0001:000239a0       ?increment@?$Vector@PAUEntry@SimFieldDictionary@@@@QAEXI@Z 004249a0 f i simBase.obj
 0001:000239d0       ?increment@?$Vector@PBUField@AbstractClassRep@@@@QAEXI@Z 004249d0 f i simBase.obj
 0001:00023a00       ?increment@?$Vector@PAX@@QAEXI@Z 00424a00 f i simBase.obj
 0001:00023a30       ??_ESimObject@@UAEPAXI@Z   00424a30 f i simBase.obj
 0001:00023a30       ??_GSimObject@@UAEPAXI@Z   00424a30 f i simBase.obj
 0001:00023a70       ?front@SimSet@@QAEPAVSimObject@@XZ 00424a70 f i simBase.obj
 0001:00023a80       ?begin@SimSet@@QAEPAPAVSimObject@@XZ 00424a80 f i simBase.obj
 0001:00023a90       ?end@SimSet@@QAEPAPAVSimObject@@XZ 00424a90 f i simBase.obj
 0001:00023aa0       ??ASimSet@@QAEPAVSimObject@@H@Z 00424aa0 f i simBase.obj
 0001:00023ad0       ??_GSimDataBlock@@UAEPAXI@Z 00424ad0 f i simBase.obj
 0001:00023ad0       ??_ESimDataBlock@@UAEPAXI@Z 00424ad0 f i simBase.obj
 0001:00023af0       ??1SimDataBlock@@UAE@XZ    00424af0 f i simBase.obj
 0001:00023b40       ?onRemove@SimSet@@UAEXXZ   00424b40 f   simBase.obj
 0001:00023b90       ?write@SimSet@@UAEXAAVStream@@II@Z 00424b90 f   simBase.obj
 0001:00023f00       ??1SimGroup@@UAE@XZ        00424f00 f   simBase.obj
 0001:00023ff0       ?onRemove@SimGroup@@UAEXXZ 00424ff0 f   simBase.obj
 0001:00024050       ?findObject@SimSet@@UAEPAVSimObject@@PBD@Z 00425050 f   simBase.obj
 0001:000240e0       ?push_back@Stack@SimSetIterator@@QAEXPAVSimSet@@@Z 004250e0 f i simBase.obj
 0001:00024120       ??0Stack@SimSetIterator@@QAE@XZ 00425120 f i simBase.obj
 0001:00024130       ??ESimSetIterator@@QAEPAVSimObject@@XZ 00425130 f   simBase.obj
 0001:000241f0       ??ESimGroupIterator@@QAEPAVSimObject@@XZ 004251f0 f   simBase.obj
 0001:000242b0       ?erase@?$VectorPtr@PAVSimObject@@@@QAEXPAPAVSimObject@@@Z 004252b0 f i simBase.obj
 0001:00024300       ?push_back@?$Vector@PAUEntry@SimFieldDictionary@@@@QAEXABQAUEntry@SimFieldDictionary@@@Z 00425300 f i simBase.obj
 0001:00024340       ?push_back@?$Vector@PBUField@AbstractClassRep@@@@QAEXABQBUField@AbstractClassRep@@@Z 00425340 f i simBase.obj
 0001:00024380       ?push_back@?$Vector@PAX@@QAEXABQAX@Z 00425380 f i simBase.obj
 0001:000243c0       ?insert@?$Vector@PAX@@QAEXI@Z 004253c0 f i simBase.obj
 0001:00024410       ?remove@SimObjectList@@QAEXPAVSimObject@@@Z 00425410 f   simBase.obj
 0001:00024490       ?printFields@SimFieldDictionary@@QAEXPAVSimObject@@@Z 00425490 f   simBase.obj
 0001:00024630       ?removeStable@SimObjectList@@QAEXPAVSimObject@@@Z 00425630 f i simBase.obj
 0001:00024900       ?removeObject@SimSet@@UAEXPAVSimObject@@@Z 00425900 f   simBase.obj
 0001:00024920       ?popObject@SimSet@@UAEXXZ  00425920 f   simBase.obj
 0001:00024a00       ?removeObject@SimGroup@@UAEXPAVSimObject@@@Z 00425a00 f   simBase.obj
 0001:00024a40       ??0SimSetIterator@@QAE@PAVSimSet@@@Z 00425a40 f   simBase.obj
 0001:00024ad0       ??0?$ConcreteClassRep@VSimObject@@@@QAE@PBDHHH@Z 00425ad0 f i simBase.obj
 0001:00024b50       ?init@?$ConcreteClassRep@VSimObject@@@@UBEXXZ 00425b50 f i simBase.obj
 0001:00024b60       ?create@?$ConcreteClassRep@VSimObject@@@@UBEPAVConsoleObject@@XZ 00425b60 f i simBase.obj
 0001:00024b90       ??_E?$ConcreteClassRep@VSimObject@@@@UAEPAXI@Z 00425b90 f i simBase.obj
 0001:00024b90       ??_G?$ConcreteClassRep@VSimObject@@@@UAEPAXI@Z 00425b90 f i simBase.obj
 0001:00024bb0       ??0?$ConcreteClassRep@VSimDataBlock@@@@QAE@PBDHHH@Z 00425bb0 f i simBase.obj
 0001:00024c30       ?init@?$ConcreteClassRep@VSimDataBlock@@@@UBEXXZ 00425c30 f i simBase.obj
 0001:00024c50       ?create@?$ConcreteClassRep@VSimDataBlock@@@@UBEPAVConsoleObject@@XZ 00425c50 f i simBase.obj
 0001:00024c80       ??_E?$ConcreteClassRep@VSimDataBlock@@@@UAEPAXI@Z 00425c80 f i simBase.obj
 0001:00024c80       ??_G?$ConcreteClassRep@VSimDataBlock@@@@UAEPAXI@Z 00425c80 f i simBase.obj
 0001:00024ca0       ??0?$ConcreteClassRep@VSimSet@@@@QAE@PBDHHH@Z 00425ca0 f i simBase.obj
 0001:00024d20       ?init@?$ConcreteClassRep@VSimSet@@@@UBEXXZ 00425d20 f i simBase.obj
 0001:00024d40       ??_E?$ConcreteClassRep@VSimSet@@@@UAEPAXI@Z 00425d40 f i simBase.obj
 0001:00024d40       ??_G?$ConcreteClassRep@VSimSet@@@@UAEPAXI@Z 00425d40 f i simBase.obj
 0001:00024d60       ??0?$ConcreteClassRep@VSimGroup@@@@QAE@PBDHHH@Z 00425d60 f i simBase.obj
 0001:00024de0       ?init@?$ConcreteClassRep@VSimGroup@@@@UBEXXZ 00425de0 f i simBase.obj
 0001:00024e00       ??_E?$ConcreteClassRep@VSimGroup@@@@UAEPAXI@Z 00425e00 f i simBase.obj
 0001:00024e00       ??_G?$ConcreteClassRep@VSimGroup@@@@UAEPAXI@Z 00425e00 f i simBase.obj
 0001:00024e20       ?push_back@?$VectorPtr@PAVSimObject@@@@QAEXABQAVSimObject@@@Z 00425e20 f i simBase.obj
 0001:00024e60       ?insert@?$Vector@PAX@@QAEXPAPAXABQAX@Z 00425e60 f i simBase.obj
 0001:00024ec0       ?push_front@?$Vector@PAX@@QAEXABQAX@Z 00425ec0 f i simBase.obj
 0001:00024f10       ?pushBack@SimObjectList@@QAEXPAVSimObject@@@Z 00425f10 f   simBase.obj
 0001:00024f70       ?pushBackForce@SimObjectList@@QAEXPAVSimObject@@@Z 00425f70 f   simBase.obj
 0001:00025020       ?addObject@SimSet@@UAEXPAVSimObject@@@Z 00426020 f   simBase.obj
 0001:00025040       ?pushObject@SimSet@@UAEXPAVSimObject@@@Z 00426040 f   simBase.obj
 0001:00025060       ?addObject@SimGroup@@UAEXPAVSimObject@@@Z 00426060 f   simBase.obj
 0001:000250c0       ?insert@?$VectorPtr@PAVSimObject@@@@QAEXPAPAVSimObject@@ABQAV2@@Z 004260c0 f i simBase.obj
 0001:000250d0       ?push_front@?$VectorPtr@PAVSimObject@@@@QAEXABQAVSimObject@@@Z 004260d0 f i simBase.obj
 0001:00025120       ?pushFront@SimObjectList@@QAEXPAVSimObject@@@Z 00426120 f   simBase.obj
 0001:00025150       ?reOrder@SimSet@@QAE_NPAVSimObject@@0@Z 00426150 f   simBase.obj
 0001:00025220       ?create@?$ConcreteClassRep@VSimSet@@@@UBEPAVConsoleObject@@XZ 00426220 f i simBase.obj
 0001:00025250       ?bringObjectToFront@SimSet@@QAEXPAVSimObject@@@Z 00426250 f i simBase.obj
 0001:00025270       ?pushObjectToBack@SimSet@@QAEXPAVSimObject@@@Z 00426270 f i simBase.obj
 0001:000252c0       ?create@?$ConcreteClassRep@VSimGroup@@@@UBEPAVConsoleObject@@XZ 004262c0 f i simBase.obj
 0001:00025350       ??0SimNameDictionary@@QAE@XZ 00426350 f   simDictionary.obj
 0001:00025360       ??1SimNameDictionary@@QAE@XZ 00426360 f   simDictionary.obj
 0001:00025370       ?insert@SimNameDictionary@@QAEXPAVSimObject@@@Z 00426370 f   simDictionary.obj
 0001:000254b0       ?find@SimNameDictionary@@QAEPAVSimObject@@PBD@Z 004264b0 f   simDictionary.obj
 0001:00025500       ?remove@SimNameDictionary@@QAEXPAVSimObject@@@Z 00426500 f   simDictionary.obj
 0001:00025550       ??0SimManagerNameDictionary@@QAE@XZ 00426550 f   simDictionary.obj
 0001:000255a0       ??1SimManagerNameDictionary@@QAE@XZ 004265a0 f   simDictionary.obj
 0001:000255b0       ?insert@SimManagerNameDictionary@@QAEXPAVSimObject@@@Z 004265b0 f   simDictionary.obj
 0001:000256b0       ?find@SimManagerNameDictionary@@QAEPAVSimObject@@PBD@Z 004266b0 f   simDictionary.obj
 0001:000256f0       ?remove@SimManagerNameDictionary@@QAEXPAVSimObject@@@Z 004266f0 f   simDictionary.obj
 0001:00025740       ??0SimIdDictionary@@QAE@XZ 00426740 f   simDictionary.obj
 0001:00025760       ??1SimIdDictionary@@QAE@XZ 00426760 f   simDictionary.obj
 0001:00025770       ?insert@SimIdDictionary@@QAEXPAVSimObject@@@Z 00426770 f   simDictionary.obj
 0001:00025790       ?find@SimIdDictionary@@QAEPAVSimObject@@H@Z 00426790 f   simDictionary.obj
 0001:000257c0       ?remove@SimIdDictionary@@QAEXPAVSimObject@@@Z 004267c0 f   simDictionary.obj
 0001:00025840       ?postEvent@Sim@@YAIPAVSimObject@@PAVSimEvent@@I@Z 00426840 f   simManager.obj
 0001:000258a0       ?cancelEvent@Sim@@YAXI@Z   004268a0 f   simManager.obj
 0001:00025900       ?cancelAll@Sim@@YAXPAVSimObject@@@Z 00426900 f   simManager.obj
 0001:00025940       ?isEventPending@Sim@@YA_NI@Z 00426940 f   simManager.obj
 0001:00025970       ?getCurrentTime@Sim@@YAIXZ 00426970 f   simManager.obj
 0001:00025980       ?getTargetTime@Sim@@YAIXZ  00426980 f   simManager.obj
 0001:00025990       ??_GSimManagerNameDictionary@@QAEPAXI@Z 00426990 f i simManager.obj
 0001:000259b0       ??_GSimIdDictionary@@QAEPAXI@Z 004269b0 f i simManager.obj
 0001:000259d0       ?findObject@Sim@@YAPAVSimObject@@I@Z 004269d0 f   simManager.obj
 0001:000259f0       ?getRootGroup@Sim@@YAPAVSimGroup@@XZ 004269f0 f   simManager.obj
 0001:00025a00       ?getDataBlockGroup@Sim@@YAPAVSimDataBlockGroup@@XZ 00426a00 f   simManager.obj
 0001:00025a10       ?setId@SimObject@@QAEXI@Z  00426a10 f   simManager.obj
 0001:00025a60       ?assignName@SimObject@@QAEXPBD@Z 00426a60 f   simManager.obj
 0001:00025ae0       ?isDeleted@SimObject@@QBE_NXZ 00426ae0 f i simManager.obj
 0001:00025af0       ?getNextModifiedKey@SimDataBlock@@SAHXZ 00426af0 f i simManager.obj
 0001:00025b00       ?getModifiedKey@SimDataBlock@@QBEHXZ 00426b00 f i simManager.obj
 0001:00025b10       ?advanceToTime@Sim@@YAXI@Z 00426b10 f   simManager.obj
 0001:00025b70       ?advanceTime@Sim@@YAXI@Z   00426b70 f   simManager.obj
 0001:00025b90       ?findObject@Sim@@YAPAVSimObject@@PBD@Z 00426b90 f   simManager.obj
 0001:00025c50       ?compareModifiedKey@SimDataBlockGroup@@SAHPBX0@Z 00426c50 f   simManager.obj
 0001:00025c60       ?sort@SimDataBlockGroup@@QAEXXZ 00426c60 f   simManager.obj
 0001:00025c90       ?unregisterObject@SimObject@@QAEXXZ 00426c90 f   simManager.obj
 0001:00025ce0       ?deleteObject@SimObject@@QAEXXZ 00426ce0 f   simManager.obj
 0001:00025d90       ?shutdown@Sim@@YAXXZ       00426d90 f   simManager.obj
 0001:00025e00       ?registerObject@SimObject@@QAE_NXZ 00426e00 f   simManager.obj
 0001:00025e50       ?registerObject@SimObject@@QAE_NI@Z 00426e50 f   simManager.obj
 0001:00025eb0       ?registerObject@SimObject@@QAE_NPBD@Z 00426eb0 f   simManager.obj
 0001:00025ed0       ?registerObject@SimObject@@QAE_NPBDI@Z 00426ed0 f   simManager.obj
 0001:00025f30       ??0SimDataBlockGroup@@QAE@XZ 00426f30 f   simManager.obj
 0001:00025f50       ??_GSimDataBlockGroup@@UAEPAXI@Z 00426f50 f i simManager.obj
 0001:00025f50       ??_ESimDataBlockGroup@@UAEPAXI@Z 00426f50 f i simManager.obj
 0001:00025f70       ??1SimDataBlockGroup@@UAE@XZ 00426f70 f i simManager.obj
 0001:00026070       ?init@Sim@@YAXXZ           00427070 f   simManager.obj
 0001:000264b0       ?setTelnetParameters@TelnetConsole@@QAEXHPBD0@Z 004274b0 f   telnetConsole.obj
 0001:00026540       ?processConsoleLine@TelnetConsole@@QAEXPBD@Z 00427540 f   telnetConsole.obj
 0001:000265b0       ?process@TelnetConsole@@QAEXXZ 004275b0 f   telnetConsole.obj
 0001:00026970       ??0Event@@QAE@XZ           00427970 f i telnetConsole.obj
 0001:00026980       ??0ConsoleEvent@@QAE@XZ    00427980 f i telnetConsole.obj
 0001:000269e0       ??0TelnetConsole@@AAE@XZ   004279e0 f   telnetConsole.obj
 0001:00026a20       ??1TelnetConsole@@AAE@XZ   00427a20 f   telnetConsole.obj
 0001:00026a80       ?create@TelnetConsole@@SAXXZ 00427a80 f   telnetConsole.obj
 0001:00026ae0       ??_GTelnetConsole@@AAEPAXI@Z 00427ae0 f i telnetConsole.obj
 0001:00026b00       ?destroy@TelnetConsole@@SAXXZ 00427b00 f   telnetConsole.obj
 0001:00026b30       ?findBreakpoint@TelnetDebugger@@AAEPAPAUBreakpoint@1@PBDH@Z 00427b30 f   telnetDebugger.obj
 0001:00026b70       ?send@TelnetDebugger@@QAEXPBD@Z 00427b70 f   telnetDebugger.obj
 0001:00026ba0       ?setDebugParameters@TelnetDebugger@@QAEXHPBD@Z 00427ba0 f   telnetDebugger.obj
 0001:00026c10       ?processConsoleLine@TelnetDebugger@@QAEXPBD@Z 00427c10 f   telnetDebugger.obj
 0001:00026c70       ?addVariableBreakpoint@TelnetDebugger@@AAEXPBDH0@Z 00427c70 f   telnetDebugger.obj
 0001:00026ca0       ?removeVariableBreakpoint@TelnetDebugger@@AAEXPBD@Z 00427ca0 f   telnetDebugger.obj
 0001:00026cd0       ?addBreakpoint@TelnetDebugger@@AAEXPBDH_NH0@Z 00427cd0 f   telnetDebugger.obj
 0001:00026dd0       ?removeBreakpointsFromCode@TelnetDebugger@@AAEXPAVCodeBlock@@@Z 00427dd0 f   telnetDebugger.obj
 0001:00026e20       ?removeBreakpoint@TelnetDebugger@@AAEXPBDH@Z 00427e20 f   telnetDebugger.obj
 0001:00026ea0       ?removeAllBreakpoints@TelnetDebugger@@AAEXXZ 00427ea0 f   telnetDebugger.obj
 0001:00026ef0       ?debugContinue@TelnetDebugger@@AAEXXZ 00427ef0 f   telnetDebugger.obj
 0001:00026f30       ?breakOnNextStatement@TelnetDebugger@@AAEXXZ 00427f30 f   telnetDebugger.obj
 0001:00026f60       ?debugStepIn@TelnetDebugger@@AAEXXZ 00427f60 f   telnetDebugger.obj
 0001:00026fc0       ?evaluateExpression@TelnetDebugger@@AAEXPBDH0@Z 00427fc0 f   telnetDebugger.obj
 0001:00027050       ?dumpFileList@TelnetDebugger@@AAEXXZ 00428050 f   telnetDebugger.obj
 0001:000270e0       ?dumpBreakableList@TelnetDebugger@@AAEXPBD@Z 004280e0 f   telnetDebugger.obj
 0001:00027250       ??0TelnetDebugger@@AAE@XZ  00428250 f   telnetDebugger.obj
 0001:000272a0       ??1TelnetDebugger@@AAE@XZ  004282a0 f   telnetDebugger.obj
 0001:000272e0       ?create@TelnetDebugger@@SAXXZ 004282e0 f   telnetDebugger.obj
 0001:00027310       ??_GTelnetDebugger@@AAEPAXI@Z 00428310 f i telnetDebugger.obj
 0001:00027360       ?popStackFrame@TelnetDebugger@@QAEXXZ 00428360 f   telnetDebugger.obj
 0001:00027380       ?debugStepOver@TelnetDebugger@@AAEXXZ 00428380 f   telnetDebugger.obj
 0001:000273c0       ?debugStepOut@TelnetDebugger@@AAEXXZ 004283c0 f   telnetDebugger.obj
 0001:00027400       ??A?$Vector@PAVDictionary@@@@QAEAAPAVDictionary@@H@Z 00428400 f i telnetDebugger.obj
 0001:00027410       ?destroy@TelnetDebugger@@SAXXZ 00428410 f   telnetDebugger.obj
 0001:00027470       ?processLineBuffer@TelnetDebugger@@AAEXH@Z 00428470 f   telnetDebugger.obj
 0001:00027910       ?checkDebugRecv@TelnetDebugger@@AAEXXZ 00428910 f   telnetDebugger.obj
 0001:00027a20       ?breakProcess@TelnetDebugger@@AAEXXZ 00428a20 f   telnetDebugger.obj
 0001:00027b90       ?process@TelnetDebugger@@QAEXXZ 00428b90 f   telnetDebugger.obj
 0001:00027c30       ?executionStopped@TelnetDebugger@@UAEXPAVCodeBlock@@I@Z 00428c30 f   telnetDebugger.obj
 0001:00027d10       ??A?$Vector@UField@AbstractClassRep@@@@QAEAAUField@AbstractClassRep@@H@Z 00428d10 f i typeValidators.obj
 0001:00027d20       ?consoleError@TypeValidator@@QAAXPAVSimObject@@PBDZZ 00428d20 f   typeValidators.obj
 0001:00027dc0       ?validateType@FRangeValidator@@UAEXPAVSimObject@@PAX@Z 00428dc0 f   typeValidators.obj
 0001:00027e30       ?validateType@IRangeValidator@@UAEXPAVSimObject@@PAX@Z 00428e30 f   typeValidators.obj
 0001:00027e80       ?validateType@IRangeValidatorScaled@@UAEXPAVSimObject@@PAX@Z 00428e80 f   typeValidators.obj
 0001:00027ee0       ?getMin@@YAHHH@Z           00428ee0 f i bitRender.obj
 0001:00027ef0       ?render_tris@BitRender@@SAXPBEHHPBGPBVPoint2I@@HPAI@Z 00428ef0 f   bitRender.obj
 0001:000283f0       ?render@BitRender@@SAXPBVPoint2I@@00HPAI@Z 004293f0 f   bitRender.obj
 0001:00028830       ?bitTo8Bit@BitRender@@SAXPAI0H@Z 00429830 f   bitRender.obj
 0001:00028900       ?bitTo8Bit_3@BitRender@@SAXPAI0H@Z 00429900 f   bitRender.obj
 0001:00028b80       ?render_strips@BitRender@@SAXPBEHHPBGPBVPoint2I@@HPAI@Z 00429b80 f   bitRender.obj
 0001:000290e0       ?setStringBuffer@BitStream@@QAEXQAD@Z 0042a0e0 f   bitStream.obj
 0001:000290f0       ?IsEqual@@YA_NMM@Z         0042a0f0 f i bitStream.obj
 0001:00029110       ?validate@ResizeBitStream@@QAEXXZ 0042a110 f   bitStream.obj
 0001:00029160       ??0HuffWrap@HuffmanProcessor@@QAE@XZ 0042a160 f i bitStream.obj
 0001:00029170       ?set@HuffWrap@HuffmanProcessor@@QAEXPAUHuffLeaf@2@@Z 0042a170 f i bitStream.obj
 0001:00029180       ?getMin@@YAMMM@Z           0042a180 f i bitStream.obj
 0001:000291a0       ?set@HuffWrap@HuffmanProcessor@@QAEXPAUHuffNode@2@@Z 0042a1a0 f i bitStream.obj
 0001:000291b0       ?getPop@HuffWrap@HuffmanProcessor@@QAEIXZ 0042a1b0 f i bitStream.obj
 0001:000291c0       ?setBuffer@BitStream@@QAEXPAXHH@Z 0042a1c0 f   bitStream.obj
 0001:00029200       ?getPosition@BitStream@@UBEIXZ 0042a200 f   bitStream.obj
 0001:00029210       ?setPosition@BitStream@@UAE_NI@Z 0042a210 f   bitStream.obj
 0001:00029230       ?getStreamSize@BitStream@@UAEIXZ 0042a230 f   bitStream.obj
 0001:00029240       ?getBytePtr@BitStream@@QAEPAEXZ 0042a240 f   bitStream.obj
 0001:00029250       ?convertHostToLEndian@@YAHH@Z 0042a250 f i bitStream.obj
 0001:00029260       ?getReadByteSize@BitStream@@QAEIXZ 0042a260 f   bitStream.obj
 0001:00029280       ?convertLEndianToHost@@YAHH@Z 0042a280 f i bitStream.obj
 0001:00029290       ?convertHostToLEndian@@YAMM@Z 0042a290 f i bitStream.obj
 0001:000292a0       ?clear@BitStream@@QAEXXZ   0042a2a0 f   bitStream.obj
 0001:000292c0       ?convertLEndianToHost@@YAMM@Z 0042a2c0 f i bitStream.obj
 0001:000292d0       ?writeBits@BitStream@@QAEXHPBX@Z 0042a2d0 f   bitStream.obj
 0001:000293b0       ?setBit@BitStream@@QAEXH_N@Z 0042a3b0 f   bitStream.obj
 0001:000293f0       ?testBit@BitStream@@QAE_NH@Z 0042a3f0 f   bitStream.obj
 0001:00029420       ?writeFlag@BitStream@@QAE_N_N@Z 0042a420 f   bitStream.obj
 0001:00029480       ?readBits@BitStream@@QAEXHPAX@Z 0042a480 f   bitStream.obj
 0001:00029520       ?_read@BitStream@@UAE_NIPAX@Z 0042a520 f   bitStream.obj
 0001:00029540       ?_write@BitStream@@UAE_NIPBX@Z 0042a540 f   bitStream.obj
 0001:00029560       ?readInt@BitStream@@QAEHH@Z 0042a560 f   bitStream.obj
 0001:000295a0       ?write@Stream@@QAE_NM@Z    0042a5a0 f i bitStream.obj
 0001:000295c0       ?writeInt@BitStream@@QAEXHH@Z 0042a5c0 f   bitStream.obj
 0001:000295e0       ?writeFloat@BitStream@@QAEXMH@Z 0042a5e0 f   bitStream.obj
 0001:00029620       ?readFloat@BitStream@@QAEMH@Z 0042a620 f   bitStream.obj
 0001:00029680       ?writeSignedFloat@BitStream@@QAEXMH@Z 0042a680 f   bitStream.obj
 0001:000296d0       ?readSignedFloat@BitStream@@QAEMH@Z 0042a6d0 f   bitStream.obj
 0001:00029730       ?writeSignedInt@BitStream@@QAEXHH@Z 0042a730 f   bitStream.obj
 0001:00029780       ?read@Stream@@QAE_NPAM@Z   0042a780 f i bitStream.obj
 0001:000297a0       ?clearCompressionPoint@BitStream@@QAEXXZ 0042a7a0 f   bitStream.obj
 0001:000297b0       ?setCompressionPoint@BitStream@@QAEXABVPoint3F@@@Z 0042a7b0 f   bitStream.obj
 0001:000297d0       _atan2f                    0042a7d0 f i bitStream.obj
 0001:000297e0       _cosf                      0042a7e0 f i bitStream.obj
 0001:000297f0       _sinf                      0042a7f0 f i bitStream.obj
 0001:00029800       ?atan2@@YAMMM@Z            0042a800 f i bitStream.obj
 0001:00029810       ?cos@@YAMM@Z               0042a810 f i bitStream.obj
 0001:00029820       ?sin@@YAMM@Z               0042a820 f i bitStream.obj
 0001:00029830       ??1?$Vector@UHuffNode@HuffmanProcessor@@@@QAE@XZ 0042a830 f i bitStream.obj
 0001:00029840       ??A?$Vector@UHuffNode@HuffmanProcessor@@@@QAEAAUHuffNode@HuffmanProcessor@@I@Z 0042a840 f i bitStream.obj
 0001:00029850       ?address@?$Vector@UHuffNode@HuffmanProcessor@@@@QBEPAUHuffNode@HuffmanProcessor@@XZ 0042a850 f i bitStream.obj
 0001:00029860       ?mSin@@YAMM@Z              0042a860 f i bitStream.obj
 0001:00029870       ?mCos@@YAMM@Z              0042a870 f i bitStream.obj
 0001:00029880       ?last@?$Vector@UHuffNode@HuffmanProcessor@@@@QAEAAUHuffNode@HuffmanProcessor@@XZ 0042a880 f i bitStream.obj
 0001:00029890       ?mAtan@@YAMMM@Z            0042a890 f i bitStream.obj
 0001:000298a0       ??1?$Vector@UHuffLeaf@HuffmanProcessor@@@@QAE@XZ 0042a8a0 f i bitStream.obj
 0001:000298b0       ??A?$Vector@UHuffLeaf@HuffmanProcessor@@@@QAEAAUHuffLeaf@HuffmanProcessor@@I@Z 0042a8b0 f i bitStream.obj
 0001:000298c0       ?address@?$Vector@UHuffLeaf@HuffmanProcessor@@@@QBEPAUHuffLeaf@HuffmanProcessor@@XZ 0042a8c0 f i bitStream.obj
 0001:000298d0       ?resize@?$Vector@UHuffNode@HuffmanProcessor@@@@IAE_NI@Z 0042a8d0 f i bitStream.obj
 0001:000298f0       ?resize@?$Vector@UHuffLeaf@HuffmanProcessor@@@@IAE_NI@Z 0042a8f0 f i bitStream.obj
 0001:00029910       ?reserve@?$Vector@UHuffLeaf@HuffmanProcessor@@@@QAEXI@Z 0042a910 f i bitStream.obj
 0001:00029940       ?getBuffer@BitStream@@QAEPAEXZ 0042a940 f i bitStream.obj
 0001:00029950       ??0BitStream@@QAE@PAXHH@Z  0042a950 f i bitStream.obj
 0001:000299a0       ?hasCapability@BitStream@@UBE_NW4Capability@Stream@@@Z 0042a9a0 f i bitStream.obj
 0001:000299b0       ??1BitStream@@UAE@XZ       0042a9b0 f i bitStream.obj
 0001:000299c0       ?getCurPos@BitStream@@QBEHXZ 0042a9c0 f i bitStream.obj
 0001:000299d0       ?setCurPos@BitStream@@QAEXI@Z 0042a9d0 f i bitStream.obj
 0001:000299e0       ?readFlag@BitStream@@QAE_NXZ 0042a9e0 f i bitStream.obj
 0001:00029a20       ??0QuatF@@QAE@XZ           0042aa20 f i bitStream.obj
 0001:00029a30       ??0QuatF@@QAE@ABVMatrixF@@@Z 0042aa30 f i bitStream.obj
 0001:00029a50       ?mathRead@@YA_NAAVStream@@PAVPoint3F@@@Z 0042aa50 f i bitStream.obj
 0001:00029ab0       ?mathWrite@@YA_NAAVStream@@ABVPoint3F@@@Z 0042aab0 f i bitStream.obj
 0001:00029b10       ?getPacketStream@BitStream@@SAPAV1@I@Z 0042ab10 f   bitStream.obj
 0001:00029b60       ?sendPacketStream@BitStream@@SAXPBUNetAddress@@@Z 0042ab60 f   bitStream.obj
 0001:00029b90       ??0ResizeBitStream@@QAE@II@Z 0042ab90 f   bitStream.obj
 0001:00029c30       ??1ResizeBitStream@@UAE@XZ 0042ac30 f   bitStream.obj
 0001:00029c90       ??1HuffmanProcessor@@QAE@XZ 0042ac90 f i bitStream.obj
 0001:00029cf0       ?writeClassId@BitStream@@QAEXIII@Z 0042acf0 f   bitStream.obj
 0001:00029d20       ?readClassId@BitStream@@QAEHII@Z 0042ad20 f   bitStream.obj
 0001:00029d80       ?readSignedInt@BitStream@@QAEHH@Z 0042ad80 f   bitStream.obj
 0001:00029e40       ?writeNormalVector@BitStream@@QAEXABVPoint3F@@H@Z 0042ae40 f   bitStream.obj
 0001:00029f00       ?readNormalVector@BitStream@@QAEXPAVPoint3F@@H@Z 0042af00 f   bitStream.obj
 0001:00029f50       ?dumbDownNormal@BitStream@@SA?AVPoint3F@@ABV2@H@Z 0042af50 f   bitStream.obj
 0001:0002a040       ?writeNormalVector@BitStream@@QAEXABVPoint3F@@HH@Z 0042b040 f   bitStream.obj
 0001:0002a0f0       ?readNormalVector@BitStream@@QAEXPAVPoint3F@@HH@Z 0042b0f0 f   bitStream.obj
 0001:0002a170       ?writeAffineTransform@BitStream@@QAEXABVMatrixF@@@Z 0042b170 f   bitStream.obj
 0001:0002a230       ?readAffineTransform@BitStream@@QAEXPAVMatrixF@@@Z 0042b230 f   bitStream.obj
 0001:0002a330       ?writeCompressedPoint@BitStream@@QAEXABVPoint3F@@M@Z 0042b330 f   bitStream.obj
 0001:0002a4a0       ?readCompressedPoint@BitStream@@QAEXPAVPoint3F@@M@Z 0042b4a0 f   bitStream.obj
 0001:0002a580       ?determineIndex@HuffmanProcessor@@AAEFAAUHuffWrap@1@@Z 0042b580 f   bitStream.obj
 0001:0002a5c0       ??A?$Vector@UHuffNode@HuffmanProcessor@@@@QAEAAUHuffNode@HuffmanProcessor@@H@Z 0042b5c0 f i bitStream.obj
 0001:0002a5d0       ??A?$Vector@UHuffLeaf@HuffmanProcessor@@@@QAEAAUHuffLeaf@HuffmanProcessor@@H@Z 0042b5d0 f i bitStream.obj
 0001:0002a5e0       ?reserve@?$Vector@UHuffNode@HuffmanProcessor@@@@QAEXI@Z 0042b5e0 f i bitStream.obj
 0001:0002a610       ?increment@?$Vector@UHuffNode@HuffmanProcessor@@@@QAEXI@Z 0042b610 f i bitStream.obj
 0001:0002a640       ??0?$Vector@UHuffLeaf@HuffmanProcessor@@@@QAE@I@Z 0042b640 f i bitStream.obj
 0001:0002a690       ?setSize@?$Vector@UHuffLeaf@HuffmanProcessor@@@@QAEII@Z 0042b690 f i bitStream.obj
 0001:0002a6c0       ??_EBitStream@@UAEPAXI@Z   0042b6c0 f i bitStream.obj
 0001:0002a6c0       ??_GBitStream@@UAEPAXI@Z   0042b6c0 f i bitStream.obj
 0001:0002a6e0       ??_GResizeBitStream@@UAEPAXI@Z 0042b6e0 f i bitStream.obj
 0001:0002a6e0       ??_EResizeBitStream@@UAEPAXI@Z 0042b6e0 f i bitStream.obj
 0001:0002a700       ?generateCodes@HuffmanProcessor@@AAEXAAVBitStream@@HH@Z 0042b700 f   bitStream.obj
 0001:0002a7f0       ??0?$Vector@UHuffNode@HuffmanProcessor@@@@QAE@I@Z 0042b7f0 f i bitStream.obj
 0001:0002a840       ??0HuffmanProcessor@@QAE@XZ 0042b840 f i bitStream.obj
 0001:0002a880       ?buildTables@HuffmanProcessor@@AAEXXZ 0042b880 f   bitStream.obj
 0001:0002ac10       ?readHuffBuffer@HuffmanProcessor@@QAE_NPAVBitStream@@PAD@Z 0042bc10 f   bitStream.obj
 0001:0002ad40       ?writeHuffBuffer@HuffmanProcessor@@QAE_NPAVBitStream@@PBDH@Z 0042bd40 f   bitStream.obj
 0001:0002aed0       ?readString@BitStream@@UAEXQAD@Z 0042bed0 f   bitStream.obj
 0001:0002af80       ?writeString@BitStream@@UAEXPBDH@Z 0042bf80 f   bitStream.obj
 0001:0002b060       ??0BitTables@@QAE@XZ       0042c060 f   bitTables.obj
 0001:0002b260       ?calculateCRC@@YAIPBXHI@Z  0042c260 f   crc.obj
 0001:0002b2b0       ?calculateCRCStream@@YAIPAVStream@@I@Z 0042c2b0 f   crc.obj
 0001:0002b380       ??0DataBlock@DataChunker@@QAE@H@Z 0042c380 f   dataChunker.obj
 0001:0002b3a0       ??1DataBlock@DataChunker@@QAE@XZ 0042c3a0 f   dataChunker.obj
 0001:0002b3b0       ??_GDataBlock@DataChunker@@QAEPAXI@Z 0042c3b0 f i dataChunker.obj
 0001:0002b3e0       ??0DataChunker@@QAE@H@Z    0042c3e0 f   dataChunker.obj
 0001:0002b440       ?alloc@DataChunker@@QAEPAXH@Z 0042c440 f   dataChunker.obj
 0001:0002b4c0       ?freeBlocks@DataChunker@@QAEXXZ 0042c4c0 f   dataChunker.obj
 0001:0002b500       ??1DataChunker@@QAE@XZ     0042c500 f   dataChunker.obj
 0001:0002b530       ??0ConnectionProtocol@@QAE@XZ 0042c530 f   dnet.obj
 0001:0002b560       ?buildSendPacketHeader@ConnectionProtocol@@QAEXPAVBitStream@@H@Z 0042c560 f   dnet.obj
 0001:0002b630       ?windowFull@ConnectionProtocol@@QAE_NXZ 0042c630 f   dnet.obj
 0001:0002b650       ?sendPingPacket@ConnectionProtocol@@QAEXXZ 0042c650 f   dnet.obj
 0001:0002b6f0       ?sendAckPacket@ConnectionProtocol@@QAEXXZ 0042c6f0 f   dnet.obj
 0001:0002b790       ?processRawPacket@ConnectionProtocol@@UAEXPAVBitStream@@@Z 0042c790 f   dnet.obj
 0001:0002ba00       ?writeDemoStartBlock@ConnectionProtocol@@UAEXPAVResizeBitStream@@@Z 0042ca00 f   dnet.obj
 0001:0002bae0       ?readDemoStartBlock@ConnectionProtocol@@UAE_NPAVBitStream@@@Z 0042cae0 f   dnet.obj
 0001:0002bbd0       ?getClassRep@FileObject@@UBEPAVAbstractClassRep@@XZ 0042cbd0 f   fileObject.obj
 0001:0002bbe0       ?getStaticClassRep@FileObject@@SAPAVAbstractClassRep@@XZ 0042cbe0 f   fileObject.obj
 0001:0002bbf0       ?getParentStaticClassRep@FileObject@@SAPAVAbstractClassRep@@XZ 0042cbf0 f   fileObject.obj
 0001:0002bc00       ?isEOF@FileObject@@QAE_NXZ 0042cc00 f   fileObject.obj
 0001:0002bc10       ??0FileObject@@QAE@XZ      0042cc10 f   fileObject.obj
 0001:0002bc70       ??1FileObject@@UAE@XZ      0042cc70 f   fileObject.obj
 0001:0002bce0       ?close@FileObject@@QAEXXZ  0042cce0 f   fileObject.obj
 0001:0002bd10       ?openForWrite@FileObject@@QAE_NPBD_N@Z 0042cd10 f   fileObject.obj
 0001:0002bd90       ?openForRead@FileObject@@QAE_NPBD@Z 0042cd90 f   fileObject.obj
 0001:0002bda0       ?readLine@FileObject@@QAEPBEXZ 0042cda0 f   fileObject.obj
 0001:0002bf00       ??_EFileObject@@UAEPAXI@Z  0042cf00 f i fileObject.obj
 0001:0002bf00       ??_GFileObject@@UAEPAXI@Z  0042cf00 f i fileObject.obj
 0001:0002bf20       ?readMemory@FileObject@@QAE_NPBD@Z 0042cf20 f   fileObject.obj
 0001:0002bfc0       ?writeLine@FileObject@@QAEXPBE@Z 0042cfc0 f   fileObject.obj
 0001:0002c0f0       ??1?$ConcreteClassRep@VFileObject@@@@UAE@XZ 0042d0f0 f i fileObject.obj
 0001:0002c170       ??0?$ConcreteClassRep@VFileObject@@@@QAE@PBDHHH@Z 0042d170 f i fileObject.obj
 0001:0002c1f0       ?create@?$ConcreteClassRep@VFileObject@@@@UBEPAVConsoleObject@@XZ 0042d1f0 f i fileObject.obj
 0001:0002c220       ?init@?$ConcreteClassRep@VFileObject@@@@UBEXXZ 0042d220 f i fileObject.obj
 0001:0002c250       ??_E?$ConcreteClassRep@VFileObject@@@@UAEPAXI@Z 0042d250 f i fileObject.obj
 0001:0002c250       ??_G?$ConcreteClassRep@VFileObject@@@@UAEPAXI@Z 0042d250 f i fileObject.obj
 0001:0002c270       ?hasCapability@FileStream@@UBE_NW4Capability@Stream@@@Z 0042d270 f   fileStream.obj
 0001:0002c280       ?getPosition@FileStream@@UBEIXZ 0042d280 f   fileStream.obj
 0001:0002c2a0       ?getMax@@YAIII@Z           0042d2a0 f i fileStream.obj
 0001:0002c2b0       ?setStatus@Stream@@IAEXW4Status@1@@Z 0042d2b0 f i fileStream.obj
 0001:0002c2c0       ?clearBuffer@FileStream@@IAEXXZ 0042d2c0 f   fileStream.obj
 0001:0002c2f0       ?calcBlockHead@FileStream@@KAXIPAI@Z 0042d2f0 f   fileStream.obj
 0001:0002c310       ?calcBlockBounds@FileStream@@KAXIPAI0@Z 0042d310 f   fileStream.obj
 0001:0002c330       ?setStatus@FileStream@@IAEXXZ 0042d330 f   fileStream.obj
 0001:0002c3a0       ?getStreamSize@FileStream@@UAEIXZ 0042d3a0 f   fileStream.obj
 0001:0002c3d0       ?open@FileStream@@QAE_NPBDW4AccessMode@1@@Z 0042d3d0 f   fileStream.obj
 0001:0002c470       ?flush@FileStream@@QAE_NXZ 0042d470 f   fileStream.obj
 0001:0002c520       ?_write@FileStream@@MAE_NIPBX@Z 0042d520 f   fileStream.obj
 0001:0002c680       ?init@FileStream@@IAEXXZ   0042d680 f   fileStream.obj
 0001:0002c6b0       ?fillBuffer@FileStream@@IAE_NI@Z 0042d6b0 f   fileStream.obj
 0001:0002c7b0       ??0FileStream@@QAE@XZ      0042d7b0 f   fileStream.obj
 0001:0002c830       ?setPosition@FileStream@@UAE_NI@Z 0042d830 f   fileStream.obj
 0001:0002c8e0       ?close@FileStream@@QAEXXZ  0042d8e0 f   fileStream.obj
 0001:0002c930       ?_read@FileStream@@MAE_NIPAX@Z 0042d930 f   fileStream.obj
 0001:0002cb00       ??1FileStream@@UAE@XZ      0042db00 f   fileStream.obj
 0001:0002cb60       ??_GFileStream@@UAEPAXI@Z  0042db60 f i fileStream.obj
 0001:0002cb60       ??_EFileStream@@UAEPAXI@Z  0042db60 f i fileStream.obj
 0001:0002cb80       ??1FilterStream@@UAE@XZ    0042db80 f   filterStream.obj
 0001:0002cb90       ??_EFilterStream@@UAEPAXI@Z 0042db90 f i filterStream.obj
 0001:0002cb90       ??_GFilterStream@@UAEPAXI@Z 0042db90 f i filterStream.obj
 0001:0002cbb0       ?_write@FilterStream@@MAE_NIPBX@Z 0042dbb0 f   filterStream.obj
 0001:0002cbc0       ?hasCapability@FilterStream@@UBE_NW4Capability@Stream@@@Z 0042dbc0 f   filterStream.obj
 0001:0002cbd0       ?getPosition@FilterStream@@UBEIXZ 0042dbd0 f   filterStream.obj
 0001:0002cbe0       ?setPosition@FilterStream@@UAE_NI@Z 0042dbe0 f   filterStream.obj
 0001:0002cbf0       ?getStreamSize@FilterStream@@UAEIXZ 0042dbf0 f   filterStream.obj
 0001:0002cc00       ?_read@FilterStream@@MAE_NIPAX@Z 0042dc00 f   filterStream.obj
 0001:0002cc30       ?setExpression@FindMatch@@QAEXPBD@Z 0042dc30 f   findMatch.obj
 0001:0002cc80       ??1?$Vector@PAD@@QAE@XZ    0042dc80 f i findMatch.obj
 0001:0002cc90       ?size@?$Vector@PAD@@QBEHXZ 0042dc90 f i findMatch.obj
 0001:0002cca0       ?clear@?$Vector@PAD@@QAEXXZ 0042dca0 f i findMatch.obj
 0001:0002ccb0       ?resize@?$Vector@PAD@@IAE_NI@Z 0042dcb0 f i findMatch.obj
 0001:0002ccd0       ?increment@?$Vector@PAD@@QAEXI@Z 0042dcd0 f i findMatch.obj
 0001:0002cd00       ?dToupper@@YADD@Z          0042dd00 f i findMatch.obj
 0001:0002cd20       ?isFull@FindMatch@@QBE_NXZ 0042dd20 f i findMatch.obj
 0001:0002cd30       ??1FindMatch@@QAE@XZ       0042dd30 f   findMatch.obj
 0001:0002cd90       ?isMatch@FindMatch@@SA_NPBD0_N@Z 0042dd90 f   findMatch.obj
 0001:0002ce40       ?push_back@?$Vector@PAD@@QAEXABQAD@Z 0042de40 f i findMatch.obj
 0001:0002ce80       ?reserve@?$Vector@PAD@@QAEXI@Z 0042de80 f i findMatch.obj
 0001:0002ceb0       ?findMatch@FindMatch@@QAE_NPBD_N@Z 0042deb0 f   findMatch.obj
 0001:0002cf90       ??0?$Vector@PAD@@QAE@I@Z   0042df90 f i findMatch.obj
 0001:0002cfe0       ??0FindMatch@@QAE@I@Z      0042dfe0 f   findMatch.obj
 0001:0002d070       ??0FindMatch@@QAE@PADI@Z   0042e070 f   findMatch.obj
 0001:0002d130       ?empty@?$Vector@I@@QBE_NXZ 0042e130 f i idGenerator.obj
 0001:0002d140       ?last@?$Vector@I@@QAEAAIXZ 0042e140 f i idGenerator.obj
 0001:0002d150       ?decrement@?$Vector@I@@QAEXI@Z 0042e150 f i idGenerator.obj
 0001:0002d170       ?pop_back@?$Vector@I@@QAEXXZ 0042e170 f i idGenerator.obj
 0001:0002d190       ?reclaim@IdGenerator@@AAEXXZ 0042e190 f   idGenerator.obj
 0001:0002d1d0       ??0MemStream@@QAE@IPAX_N1@Z 0042e1d0 f   memStream.obj
 0001:0002d220       ??1MemStream@@UAE@XZ       0042e220 f   memStream.obj
 0001:0002d240       ?getStreamSize@MemStream@@UAEIXZ 0042e240 f   memStream.obj
 0001:0002d250       ?hasCapability@MemStream@@UBE_NW4Capability@Stream@@@Z 0042e250 f   memStream.obj
 0001:0002d270       ?getPosition@MemStream@@UBEIXZ 0042e270 f   memStream.obj
 0001:0002d280       ?setPosition@MemStream@@UAE_NI@Z 0042e280 f   memStream.obj
 0001:0002d2b0       ?_read@MemStream@@MAE_NIPAX@Z 0042e2b0 f   memStream.obj
 0001:0002d330       ?_write@MemStream@@MAE_NIPBX@Z 0042e330 f   memStream.obj
 0001:0002d3b0       ??_EMemStream@@UAEPAXI@Z   0042e3b0 f i memStream.obj
 0001:0002d3b0       ??_GMemStream@@UAEPAXI@Z   0042e3b0 f i memStream.obj
 0001:0002d3d0       ??0ColorI@@QAE@XZ          0042e3d0 f i nStream.obj
 0001:0002d3e0       ??0ColorI@@QAE@ABV0@@Z     0042e3e0 f i nStream.obj
 0001:0002d400       ??0ColorI@@QAE@EEEE@Z      0042e400 f i nStream.obj
 0001:0002d420       ??BColorF@@QBE?AVColorI@@XZ 0042e420 f i nStream.obj
 0001:0002d4b0       ??BColorI@@QBE?AVColorF@@XZ 0042e4b0 f i nStream.obj
 0001:0002d510       ??0Stream@@QAE@XZ          0042e510 f   nStream.obj
 0001:0002d520       ??1Stream@@UAE@XZ          0042e520 f   nStream.obj
 0001:0002d530       ?getStatusString@Stream@@SAPBDW4Status@1@@Z 0042e530 f   nStream.obj
 0001:0002d590       ?writeString@Stream@@UAEXPBDH@Z 0042e590 f   nStream.obj
 0001:0002d5e0       ?readString@Stream@@UAEXQAD@Z 0042e5e0 f   nStream.obj
 0001:0002d620       ?readSTString@Stream@@QAEPBD_N@Z 0042e620 f   nStream.obj
 0001:0002d670       ?readLine@Stream@@QAEXPAEI@Z 0042e670 f   nStream.obj
 0001:0002d6d0       ?writeLine@Stream@@QAEXPAE@Z 0042e6d0 f   nStream.obj
 0001:0002d700       ?write@Stream@@QAE_NABVColorI@@@Z 0042e700 f   nStream.obj
 0001:0002d770       ?write@Stream@@QAE_NABVColorF@@@Z 0042e770 f   nStream.obj
 0001:0002d7b0       ?read@Stream@@QAE_NPAVColorI@@@Z 0042e7b0 f   nStream.obj
 0001:0002d800       ?read@Stream@@QAE_NPAVColorF@@@Z 0042e800 f   nStream.obj
 0001:0002d8d0       ??_EStream@@UAEPAXI@Z      0042e8d0 f i nStream.obj
 0001:0002d8d0       ??_GStream@@UAEPAXI@Z      0042e8d0 f i nStream.obj
 0001:0002d8f0       ?readLongString@Stream@@QAEXIPAD@Z 0042e8f0 f   nStream.obj
 0001:0002d940       ?writeLongString@Stream@@QAEXIPBD@Z 0042e940 f   nStream.obj
 0001:0002d980       ?getNextPow2@@YAII@Z       0042e980 f   nTypes.obj
 0001:0002d9b0       ?getBinLog2@@YAII@Z        0042e9b0 f   nTypes.obj
 0001:0002d9d0       ??0ResDictionary@@QAE@XZ   0042e9d0 f   resDictionary.obj
 0001:0002da60       ??1ResDictionary@@QAE@XZ   0042ea60 f   resDictionary.obj
 0001:0002dab0       ?hash@ResDictionary@@AAEHPBD0@Z 0042eab0 f   resDictionary.obj
 0001:0002dad0       ?find@ResDictionary@@QAEPAVResourceObject@@PBD0@Z 0042ead0 f   resDictionary.obj
 0001:0002db10       ?find@ResDictionary@@QAEPAVResourceObject@@PBD000@Z 0042eb10 f   resDictionary.obj
 0001:0002db70       ?find@ResDictionary@@QAEPAVResourceObject@@PBD0I@Z 0042eb70 f   resDictionary.obj
 0001:0002dbc0       ?hash@ResDictionary@@AAEHPAVResourceObject@@@Z 0042ebc0 f i resDictionary.obj
 0001:0002dbe0       ?insert@ResDictionary@@QAEXPAVResourceObject@@PBD1@Z 0042ebe0 f   resDictionary.obj
 0001:0002dce0       ?remove@ResDictionary@@QAEXPAVResourceObject@@@Z 0042ece0 f   resDictionary.obj
 0001:0002dd20       ?pushBehind@ResDictionary@@QAEXPAVResourceObject@@H@Z 0042ed20 f   resDictionary.obj
 0001:0002dd80       ??0FilterStream@@QAE@XZ    0042ed80 f i resizeStream.obj
 0001:0002dda0       ?getStream@ResizeFilterStream@@UAEPAVStream@@XZ 0042eda0 f   resizeStream.obj
 0001:0002ddb0       ?getPosition@ResizeFilterStream@@UBEIXZ 0042edb0 f   resizeStream.obj
 0001:0002ddc0       ?setPosition@ResizeFilterStream@@UAE_NI@Z 0042edc0 f   resizeStream.obj
 0001:0002ddf0       ?getStreamSize@ResizeFilterStream@@UAEIXZ 0042edf0 f   resizeStream.obj
 0001:0002de00       ??0ResizeFilterStream@@QAE@XZ 0042ee00 f   resizeStream.obj
 0001:0002de20       ?attachStream@ResizeFilterStream@@UAE_NPAVStream@@@Z 0042ee20 f   resizeStream.obj
 0001:0002de50       ?detachStream@ResizeFilterStream@@UAEXXZ 0042ee50 f   resizeStream.obj
 0001:0002de70       ?setStreamOffset@ResizeFilterStream@@QAE_NII@Z 0042ee70 f   resizeStream.obj
 0001:0002dec0       ?_read@ResizeFilterStream@@MAE_NIPAX@Z 0042eec0 f   resizeStream.obj
 0001:0002df60       ??1ResizeFilterStream@@UAE@XZ 0042ef60 f   resizeStream.obj
 0001:0002df80       ??_EResizeFilterStream@@UAEPAXI@Z 0042ef80 f i resizeStream.obj
 0001:0002df80       ??_GResizeFilterStream@@UAEPAXI@Z 0042ef80 f i resizeStream.obj
 0001:0002dfa0       ??0ResourceObject@@QAE@XZ  0042efa0 f   resManager.obj
 0001:0002dfb0       ?destruct@ResourceObject@@QAEXXZ 0042efb0 f   resManager.obj
 0001:0002dfd0       ?getFileTimes@ResourceObject@@QAEXPAUFileTime@@0@Z 0042efd0 f   resManager.obj
 0001:0002e040       ?setFileNameEcho@ResManager@@QAEX_N@Z 0042f040 f   resManager.obj
 0001:0002e050       ?isValidWriteFileName@ResManager@@QAE_NPBD@Z 0042f050 f   resManager.obj
 0001:0002e120       ?setWriteablePath@ResManager@@QAEXPBD@Z 0042f120 f   resManager.obj
 0001:0002e200       ?alloc@FrameAllocator@@SAPAXI@Z 0042f200 f i resManager.obj
 0001:0002e220       ?setWaterMark@FrameAllocator@@SAXI@Z 0042f220 f i resManager.obj
 0001:0002e230       ?getWaterMark@FrameAllocator@@SAIXZ 0042f230 f i resManager.obj
 0001:0002e240       ?getHighWaterMark@FrameAllocator@@SAIXZ 0042f240 f i resManager.obj
 0001:0002e250       ?getModPaths@ResManager@@QAEPBDXZ 0042f250 f   resManager.obj
 0001:0002e260       ?getNext@ResourceObject@@QBEPAV1@XZ 0042f260 f i resManager.obj
 0001:0002e270       ?unlink@ResourceObject@@QAEXXZ 0042f270 f i resManager.obj
 0001:0002e2a0       ?linkAfter@ResourceObject@@QAEXPAV1@@Z 0042f2a0 f i resManager.obj
 0001:0002e2e0       ?getBasePath@ResManager@@QAEPBDXZ 0042f2e0 f   resManager.obj
 0001:0002e310       ?registerExtension@ResManager@@QAEXPBDP6APAVResourceInstance@@AAVStream@@@Z@Z 0042f310 f   resManager.obj
 0001:0002e370       ?getCreateFunction@ResManager@@QAEP6APAVResourceInstance@@AAVStream@@@ZPBD@Z 0042f370 f   resManager.obj
 0001:0002e3c0       ?unlock@ResManager@@QAEXPAVResourceObject@@@Z 0042f3c0 f   resManager.obj
 0001:0002e410       ?openStream@ResManager@@QAEPAVStream@@PAVResourceObject@@@Z 0042f410 f   resManager.obj
 0001:0002e660       ?closeStream@ResManager@@QAEXPAVStream@@@Z 0042f660 f   resManager.obj
 0001:0002e6b0       ?find@ResManager@@QAEPAVResourceObject@@PBDI@Z 0042f6b0 f   resManager.obj
 0001:0002e700       ?purge@ResManager@@QAEXPAVResourceObject@@@Z 0042f700 f   resManager.obj
 0001:0002e750       ?compare@ResourceObjectIndex@@SAHPBX0@Z 0042f750 f i resManager.obj
 0001:0002e780       ?findMatch@ResManager@@QAEPAVResourceObject@@PBDPAPBDPAV2@@Z 0042f780 f   resManager.obj
 0001:0002e810       ?createResource@ResManager@@AAEPAVResourceObject@@PBD0@Z 0042f810 f   resManager.obj
 0001:0002e8d0       ?createZipResource@ResManager@@AAEPAVResourceObject@@PBD000@Z 0042f8d0 f   resManager.obj
 0001:0002e9a0       ?openFileForWrite@ResManager@@QAE_NAAVFileStream@@PBDI@Z 0042f9a0 f   resManager.obj
 0001:0002eab0       ?begin@?$Vector@UFileEntry@ZipAggregate@@@@QBEPBUFileEntry@ZipAggregate@@XZ 0042fab0 f i resManager.obj
 0001:0002eac0       ?end@?$Vector@UFileEntry@ZipAggregate@@@@QBEPBUFileEntry@ZipAggregate@@XZ 0042fac0 f i resManager.obj
 0001:0002ead0       ??A?$Vector@PAD@@QAEAAPADI@Z 0042fad0 f i resManager.obj
 0001:0002eae0       ??1?$Vector@UFileInfo@Platform@@@@QAE@XZ 0042fae0 f i resManager.obj
 0001:0002eaf0       ?size@?$Vector@UFileInfo@Platform@@@@QBEHXZ 0042faf0 f i resManager.obj
 0001:0002eb00       ??A?$Vector@UFileInfo@Platform@@@@QAEAAUFileInfo@Platform@@I@Z 0042fb00 f i resManager.obj
 0001:0002eb10       ??1?$Vector@PBD@@QAE@XZ    0042fb10 f i resManager.obj
 0001:0002eb20       ?size@?$Vector@PBD@@QBEHXZ 0042fb20 f i resManager.obj
 0001:0002eb30       ??A?$Vector@PBD@@QAEAAPBDI@Z 0042fb30 f i resManager.obj
 0001:0002eb40       ??1?$Vector@UResourceObjectIndex@@@@QAE@XZ 0042fb40 f i resManager.obj
 0001:0002eb50       ?size@?$Vector@UResourceObjectIndex@@@@QBEHXZ 0042fb50 f i resManager.obj
 0001:0002eb60       ??A?$Vector@UResourceObjectIndex@@@@QAEAAUResourceObjectIndex@@I@Z 0042fb60 f i resManager.obj
 0001:0002eb70       ?resize@?$Vector@UResourceObjectIndex@@@@IAE_NI@Z 0042fb70 f i resManager.obj
 0001:0002eb90       ?increment@?$Vector@UResourceObjectIndex@@@@QAEXI@Z 0042fb90 f i resManager.obj
 0001:0002ebc0       ?decrement@?$Vector@PAD@@QAEXI@Z 0042fbc0 f i resManager.obj
 0001:0002ebe0       ?resize@?$Vector@UFileInfo@Platform@@@@IAE_NI@Z 0042fbe0 f i resManager.obj
 0001:0002ec00       ?resize@?$Vector@PBD@@IAE_NI@Z 0042fc00 f i resManager.obj
 0001:0002ec20       ?begin@ZipAggregate@@QBEPBUFileEntry@1@XZ 0042fc20 f i resManager.obj
 0001:0002ec30       ?end@ZipAggregate@@QBEPBUFileEntry@1@XZ 0042fc30 f i resManager.obj
 0001:0002ec40       ??1ResourceObject@@QAE@XZ  0042fc40 f i resManager.obj
 0001:0002ec70       ?numMatches@FindMatch@@QBEHXZ 0042fc70 f i resManager.obj
 0001:0002ec80       ?loadInstance@ResManager@@QAEPAVResourceInstance@@PAVResourceObject@@_N@Z 0042fc80 f   resManager.obj
 0001:0002ed30       ?add@ResManager@@QAE_NPBDPAVResourceInstance@@_N@Z 0042fd30 f   resManager.obj
 0001:0002edf0       ?findMatches@ResManager@@QAEHPAVFindMatch@@@Z 0042fdf0 f   resManager.obj
 0001:0002eeb0       ??_GResourceObject@@QAEPAXI@Z 0042feb0 f i resManager.obj
 0001:0002eef0       ??A?$Vector@PAD@@QAEAAPADH@Z 0042fef0 f i resManager.obj
 0001:0002ef00       ??A?$Vector@PBD@@QAEAAPBDH@Z 0042ff00 f i resManager.obj
 0001:0002ef10       ??A?$Vector@UResourceObjectIndex@@@@QAEAAUResourceObjectIndex@@H@Z 0042ff10 f i resManager.obj
 0001:0002ef20       ?push_back@?$Vector@UResourceObjectIndex@@@@QAEXABUResourceObjectIndex@@@Z 0042ff20 f i resManager.obj
 0001:0002ef60       ?reserve@?$Vector@UResourceObjectIndex@@@@QAEXI@Z 0042ff60 f i resManager.obj
 0001:0002ef90       ??A?$VectorPtr@PBD@@QAEAAPBDI@Z 0042ff90 f i resManager.obj
 0001:0002efa0       ?erase@?$Vector@PAD@@QAEXI@Z 0042ffa0 f i resManager.obj
 0001:0002efe0       ?reserve@?$Vector@UFileInfo@Platform@@@@QAEXI@Z 0042ffe0 f i resManager.obj
 0001:0002f010       ?reserve@?$Vector@PBD@@QAEXI@Z 00430010 f i resManager.obj
 0001:0002f040       ?increment@?$Vector@PBD@@QAEXI@Z 00430040 f i resManager.obj
 0001:0002f070       ?scanZip@ResManager@@AAE_NPAVResourceObject@@@Z 00430070 f   resManager.obj
 0001:0002f1d0       ?freeResource@ResManager@@QAEXPAVResourceObject@@@Z 004301d0 f   resManager.obj
 0001:0002f270       ?pop_front@?$Vector@PAD@@QAEXXZ 00430270 f i resManager.obj
 0001:0002f2b0       ??0?$Vector@UFileInfo@Platform@@@@QAE@I@Z 004302b0 f i resManager.obj
 0001:0002f300       ??0?$Vector@PBD@@QAE@I@Z   00430300 f i resManager.obj
 0001:0002f350       ?push_back@?$Vector@PBD@@QAEXABQBD@Z 00430350 f i resManager.obj
 0001:0002f390       ??0?$Vector@UResourceObjectIndex@@@@QAE@I@Z 00430390 f i resManager.obj
 0001:0002f3e0       ??0ResManager@@AAE@XZ      004303e0 f   resManager.obj
 0001:0002f4b0       ?fileIsMissing@ResManager@@AAEXPBD@Z 004304b0 f   resManager.obj
 0001:0002f510       ?clearMissingFileList@ResManager@@QAEXXZ 00430510 f   resManager.obj
 0001:0002f580       ?getMissingFileList@ResManager@@QAE_NAAV?$Vector@PAD@@@Z 00430580 f   resManager.obj
 0001:0002f660       ?create@ResManager@@SAXXZ  00430660 f   resManager.obj
 0001:0002f6a0       ?searchPath@ResManager@@AAEXPBD@Z 004306a0 f   resManager.obj
 0001:0002f7b0       ?setModZip@ResManager@@AAE_NPBD@Z 004307b0 f   resManager.obj
 0001:0002fa10       ?setModPaths@ResManager@@QAEXIPAPBD@Z 00430a10 f   resManager.obj
 0001:0002fc10       ?find@ResManager@@QAEPAVResourceObject@@PBD@Z 00430c10 f   resManager.obj
 0001:0002fc70       ?purge@ResManager@@QAEXXZ  00430c70 f   resManager.obj
 0001:0002fce0       ?serialize@ResManager@@QAEXAAV?$VectorPtr@PBD@@@Z 00430ce0 f   resManager.obj
 0001:0002fe50       ?findFile@ResManager@@QAE_NPBD@Z 00430e50 f   resManager.obj
 0001:0002fe70       ?setMissingFileLogging@ResManager@@QAEX_N@Z 00430e70 f   resManager.obj
 0001:0002fe90       ??1ResManager@@QAE@XZ      00430e90 f   resManager.obj
 0001:0002ffe0       ??_GResManager@@QAEPAXI@Z  00430fe0 f i resManager.obj
 0001:00030000       ?getSize@ResManager@@QAEHPBD@Z 00431000 f   resManager.obj
 0001:00030020       ?getFullPath@ResManager@@QAEPBDPBDPADI@Z 00431020 f   resManager.obj
 0001:00030070       ?getPathOf@ResManager@@QAEPBDPBD@Z 00431070 f   resManager.obj
 0001:00030090       ?getModPathOf@ResManager@@QAEPBDPBD@Z 00431090 f   resManager.obj
 0001:00030170       ?getCrc@ResManager@@QAE_NPBDAAII@Z 00431170 f   resManager.obj
 0001:00030290       ?load@ResManager@@QAEPAVResourceObject@@PBD_N@Z 00431290 f   resManager.obj
 0001:00030320       ?loadInstance@ResManager@@QAEPAVResourceInstance@@PBD_N@Z 00431320 f   resManager.obj
 0001:00030350       ?openStream@ResManager@@QAEPAVStream@@PBD@Z 00431350 f   resManager.obj
 0001:00030380       ?destroy@ResManager@@SAXXZ 00431380 f   resManager.obj
 0001:000303b0       ??0_StringTable@@IAE@XZ    004313b0 f   stringTable.obj
 0001:00030440       ??1_StringTable@@IAE@XZ    00431440 f   stringTable.obj
 0001:00030490       ?create@_StringTable@@SAXXZ 00431490 f   stringTable.obj
 0001:000304c0       ??_G_StringTable@@IAEPAXI@Z 004314c0 f i stringTable.obj
 0001:000304e0       ?dTolower@@YADD@Z          004314e0 f i stringTable.obj
 0001:00030500       ?initTolowerTable@?A0x8e17fd69@@YAXXZ 00431500 f   stringTable.obj
 0001:00030530       ?hashString@_StringTable@@SAIPBD@Z 00431530 f   stringTable.obj
 0001:00030570       ?hashStringn@_StringTable@@SAIPBDH@Z 00431570 f   stringTable.obj
 0001:000305b0       ?destroy@_StringTable@@SAXXZ 004315b0 f   stringTable.obj
 0001:000305e0       ?lookup@_StringTable@@QAEPBDPBD_N@Z 004315e0 f   stringTable.obj
 0001:00030640       ?lookupn@_StringTable@@QAEPBDPBDH_N@Z 00431640 f   stringTable.obj
 0001:000306c0       ?resize@_StringTable@@QAEXI@Z 004316c0 f   stringTable.obj
 0001:000307c0       ?insert@_StringTable@@QAEPBDPBD_N@Z 004317c0 f   stringTable.obj
 0001:00030890       ?insertn@_StringTable@@QAEPBDPBDH_N@Z 00431890 f   stringTable.obj
 0001:00030900       ?VectorResize@@YA_NPAI0PAPAXII@Z 00431900 f   tVector.obj
 0001:00030990       ??1?$Vector@UFileEntry@ZipAggregate@@@@QAE@XZ 00431990 f i zipAggregate.obj
 0001:000309a0       ?decrement@?$Vector@UFileEntry@ZipAggregate@@@@QAEXI@Z 004319a0 f i zipAggregate.obj
 0001:000309c0       ?clear@?$Vector@UFileEntry@ZipAggregate@@@@QAEXXZ 004319c0 f i zipAggregate.obj
 0001:000309d0       ?last@?$Vector@UFileEntry@ZipAggregate@@@@QAEAAUFileEntry@ZipAggregate@@XZ 004319d0 f i zipAggregate.obj
 0001:000309e0       ?resize@?$Vector@UFileEntry@ZipAggregate@@@@IAE_NI@Z 004319e0 f i zipAggregate.obj
 0001:00030a00       ?reserve@?$Vector@UFileEntry@ZipAggregate@@@@QAEXI@Z 00431a00 f i zipAggregate.obj
 0001:00030a30       ?destroyZipDirectory@ZipAggregate@@AAEXXZ 00431a30 f   zipAggregate.obj
 0001:00030a40       ??0?$Vector@UFileEntry@ZipAggregate@@@@QAE@I@Z 00431a40 f i zipAggregate.obj
 0001:00030a90       ?increment@?$Vector@UFileEntry@ZipAggregate@@@@QAEXI@Z 00431a90 f i zipAggregate.obj
 0001:00030ac0       ??0ZipAggregate@@QAE@XZ    00431ac0 f   zipAggregate.obj
 0001:00030ad0       ?closeAggregate@ZipAggregate@@QAEXXZ 00431ad0 f   zipAggregate.obj
 0001:00030af0       ?enterZipDirRecord@ZipAggregate@@AAEXABVZipDirFileHeader@@@Z 00431af0 f   zipAggregate.obj
 0001:00030ca0       ??1ZipAggregate@@QAE@XZ    00431ca0 f   zipAggregate.obj
 0001:00030d00       ?createZipDirectory@ZipAggregate@@AAE_NPAVStream@@@Z 00431d00 f   zipAggregate.obj
 0001:00030e50       ?openAggregate@ZipAggregate@@QAE_NPBD@Z 00431e50 f   zipAggregate.obj
 0001:00030f10       ?refreshAggregate@ZipAggregate@@QAE_NXZ 00431f10 f   zipAggregate.obj
 0001:00030f60       ?convertLEndianToHost@@YAGG@Z 00431f60 f i zipHeaders.obj
 0001:00030f70       ?read@Stream@@QAE_NPAG@Z   00431f70 f i zipHeaders.obj
 0001:00030f90       ?readFromStream@ZipLocalFileHeader@@QAE_NAAVStream@@@Z 00431f90 f   zipHeaders.obj
 0001:00031170       ?readFromStream@ZipDirFileHeader@@QAE_NAAVStream@@@Z 00432170 f   zipHeaders.obj
 0001:00031420       ?readFromStream@ZipEOCDRecord@@QAE_NAAVStream@@@Z 00432420 f   zipHeaders.obj
 0001:00031580       ?getStream@ZipSubRStream@@UAEPAVStream@@XZ 00432580 f   zipSubStream.obj
 0001:00031590       ?setUncompressedSize@ZipSubRStream@@QAEXI@Z 00432590 f   zipSubStream.obj
 0001:000315a0       ?hasCapability@ZipSubRStream@@UBE_NW4Capability@Stream@@@Z 004325a0 f   zipSubStream.obj
 0001:000315b0       ?getPosition@ZipSubRStream@@UBEIXZ 004325b0 f   zipSubStream.obj
 0001:000315c0       ?setPosition@ZipSubRStream@@UAE_NI@Z 004325c0 f   zipSubStream.obj
 0001:00031610       ?getStreamSize@ZipSubRStream@@UAEIXZ 00432610 f   zipSubStream.obj
 0001:00031620       ??0ZipSubWStream@@QAE@XZ   00432620 f   zipSubStream.obj
 0001:00031640       ?getStream@ZipSubWStream@@UAEPAVStream@@XZ 00432640 f   zipSubStream.obj
 0001:00031650       ?_read@ZipSubWStream@@MAE_NIPAX@Z 00432650 f   zipSubStream.obj
 0001:00031660       ?_write@ZipSubWStream@@MAE_NIPBX@Z 00432660 f   zipSubStream.obj
 0001:00031700       ?hasCapability@ZipSubWStream@@UBE_NW4Capability@Stream@@@Z 00432700 f   zipSubStream.obj
 0001:00031710       ?getPosition@ZipSubWStream@@UBEIXZ 00432710 f   zipSubStream.obj
 0001:00031720       ?setPosition@ZipSubWStream@@UAE_NI@Z 00432720 f   zipSubStream.obj
 0001:00031730       ?getStreamSize@ZipSubWStream@@UAEIXZ 00432730 f   zipSubStream.obj
 0001:00031740       ??0ZipSubRStream@@QAE@XZ   00432740 f   zipSubStream.obj
 0001:00031770       ?detachStream@ZipSubRStream@@UAEXXZ 00432770 f   zipSubStream.obj
 0001:000317c0       ?fillBuffer@ZipSubRStream@@AAEII@Z 004327c0 f   zipSubStream.obj
 0001:00031810       ?attachStream@ZipSubWStream@@UAE_NPAVStream@@@Z 00432810 f   zipSubStream.obj
 0001:000318d0       ?detachStream@ZipSubWStream@@UAEXXZ 004328d0 f   zipSubStream.obj
 0001:00031950       ??1ZipSubRStream@@UAE@XZ   00432950 f   zipSubStream.obj
 0001:000319e0       ?attachStream@ZipSubRStream@@UAE_NPAVStream@@@Z 004329e0 f   zipSubStream.obj
 0001:00031ab0       ?_read@ZipSubRStream@@MAE_NIPAX@Z 00432ab0 f   zipSubStream.obj
 0001:00031bd0       ??1ZipSubWStream@@UAE@XZ   00432bd0 f   zipSubStream.obj
 0001:00031c20       ??_GZipSubRStream@@UAEPAXI@Z 00432c20 f i zipSubStream.obj
 0001:00031c20       ??_EZipSubRStream@@UAEPAXI@Z 00432c20 f i zipSubStream.obj
 0001:00031c40       ??_EZipSubWStream@@UAEPAXI@Z 00432c40 f i zipSubStream.obj
 0001:00031c40       ??_GZipSubWStream@@UAEPAXI@Z 00432c40 f i zipSubStream.obj
 0001:00031c60       ?readBmp8@GBitmap@@QAE_NAAVStream@@@Z 00432c60 f   bitmapBm8.obj
 0001:00031d60       ?writeBmp8@GBitmap@@QAE_NAAVStream@@@Z 00432d60 f   bitmapBm8.obj
 0001:00031e30       ?convertHostToLEndian@@YAGG@Z 00432e30 f i bitmapBmp.obj
 0001:00031e40       ?write@Stream@@QAE_NH@Z    00432e40 f i bitmapBmp.obj
 0001:00031e60       ?write@Stream@@QAE_NG@Z    00432e60 f i bitmapBmp.obj
 0001:00031e80       ?read@Stream@@QAE_NPAH@Z   00432e80 f i bitmapBmp.obj
 0001:00031ea0       ?getFormat@GBitmap@@QBE?AW4BitmapFormat@1@XZ 00432ea0 f i bitmapBmp.obj
 0001:00031eb0       ?getWidth@GBitmap@@QBEII@Z 00432eb0 f i bitmapBmp.obj
 0001:00031ed0       ?getHeight@GBitmap@@QBEII@Z 00432ed0 f i bitmapBmp.obj
 0001:00031ef0       ?getBits@GBitmap@@QBEPBEI@Z 00432ef0 f i bitmapBmp.obj
 0001:00031f00       ?getWritableBits@GBitmap@@QAEPAEI@Z 00432f00 f i bitmapBmp.obj
 0001:00031f10       ?getAddress@GBitmap@@QAEPAEHHI@Z 00432f10 f i bitmapBmp.obj
 0001:00031f50       ?getAddress@GBitmap@@QBEPBEHHI@Z 00432f50 f i bitmapBmp.obj
 0001:00031f90       ?getColors@GPalette@@QAEPAVColorI@@XZ 00432f90 f i bitmapBmp.obj
 0001:00031fa0       ?getColor@GPalette@@QAEAAVColorI@@I@Z 00432fa0 f i bitmapBmp.obj
 0001:00031fb0       ?readMSBmp@GBitmap@@QAE_NAAVStream@@@Z 00432fb0 f   bitmapBmp.obj
 0001:000322f0       ?writeMSBmp@GBitmap@@QBE_NAAVStream@@@Z 004332f0 f   bitmapBmp.obj
 0001:000325d0       ?writeGIF@GBitmap@@QBE_NAAVStream@@@Z 004335d0 f   bitmapGif.obj
 0001:00032630       ?readGIF@GBitmap@@QAE_NAAVStream@@@Z 00433630 f   bitmapGif.obj
 0001:00032960       ?readJPEG@GBitmap@@QAE_NAAVStream@@@Z 00433960 f   bitmapJpeg.obj
 0001:00032ab0       ?writeJPEG@GBitmap@@QBE_NAAVStream@@@Z 00433ab0 f   bitmapJpeg.obj
 0001:00032cf0       ?readPNG@GBitmap@@QAE_NAAVStream@@@Z 00433cf0 f   bitmapPng.obj
 0001:00033010       ?_writePNG@GBitmap@@ABE_NAAVStream@@III@Z 00434010 f   bitmapPng.obj
 0001:000331f0       ?writePNG@GBitmap@@QBE_NAAVStream@@_N@Z 004341f0 f   bitmapPng.obj
 0001:000333a0       ?writePNGUncompressed@GBitmap@@QBE_NAAVStream@@@Z 004343a0 f   bitmapPng.obj
 0001:000333d0       ?dglGetBitmapModulation@@YAXPAVColorI@@@Z 004343d0 f   dgl.obj
 0001:000333e0       ?set@TextVertex@@QAEXMMMMVColorI@@@Z 004343e0 f i dgl.obj
 0001:00033410       ?dglDrawLine@@YAXHHHHABVColorI@@@Z 00434410 f   dgl.obj
 0001:000334d0       ?dglDrawLine@@YAXABVPoint2I@@0ABVColorI@@@Z 004344d0 f   dgl.obj
 0001:00033500       ?dglDrawRect@@YAXABVPoint2I@@0ABVColorI@@@Z 00434500 f   dgl.obj
 0001:000335f0       ?dglDrawRectFill@@YAXABVPoint2I@@0ABVColorI@@@Z 004345f0 f   dgl.obj
 0001:00033660       ?dglSetClipRect@@YAXABVRectI@@@Z 00434660 f   dgl.obj
 0001:00033750       ?dglGetClipRect@@YAABVRectI@@XZ 00434750 f   dgl.obj
 0001:00033760       ??A?$Vector@UCharInfo@GFont@@@@QBEABUCharInfo@GFont@@I@Z 00434760 f i dgl.obj
 0001:00033770       ??0Point2I@@QAE@XZ         00434770 f i dgl.obj
 0001:00033780       ??0Point2I@@QAE@HH@Z       00434780 f i dgl.obj
 0001:000337a0       _dglDoesSupportARBMultitexture 004347a0 f i dgl.obj
 0001:000337c0       _dglDoesSupportFogCoord    004347c0 f i dgl.obj
 0001:000337e0       ??1TextureHandle@@QAE@XZ   004347e0 f i dgl.obj
 0001:000337f0       ??BTextureHandle@@QAEPAVTextureObject@@XZ 004347f0 f i dgl.obj
 0001:00033800       ??0ColorF@@QAE@ABV0@@Z     00434800 f i dgl.obj
 0001:00033820       ?clamp@ColorF@@QAEXXZ      00434820 f i dgl.obj
 0001:000338e0       ??0RectI@@QAE@XZ           004348e0 f i dgl.obj
 0001:000338f0       ?isValidRect@RectI@@QBE_NXZ 004348f0 f i dgl.obj
 0001:00033910       ??0RectI@@QAE@HHHH@Z       00434910 f i dgl.obj
 0001:00033930       ?len_x@RectI@@QBEHXZ       00434930 f i dgl.obj
 0001:00033940       ?len_y@RectI@@QBEHXZ       00434940 f i dgl.obj
 0001:00033950       ?getBaseline@GFont@@QAEIXZ 00434950 f i dgl.obj
 0001:00033960       ?isValidChar@GFont@@QBE_NE@Z 00434960 f i dgl.obj
 0001:00033980       ?getActualIndex@GFont@@ABEFE@Z 00434980 f i dgl.obj
 0001:00033990       ?set@MatrixF@@QAEAAV1@ABVPoint3F@@@Z 00434990 f i dgl.obj
 0001:000339b0       ?transpose@MatrixF@@QAEAAV1@XZ 004349b0 f i dgl.obj
 0001:000339d0       ?dglSetBitmapModulation@@YAXABVColorF@@@Z 004349d0 f   dgl.obj
 0001:00033a20       ?dglGetBitmapModulation@@YAXPAVColorF@@@Z 00434a20 f   dgl.obj
 0001:00033aa0       ?dglClearBitmapModulation@@YAXXZ 00434aa0 f   dgl.obj
 0001:00033ac0       ?dglSetTextAnchorColor@@YAXABVColorF@@@Z 00434ac0 f   dgl.obj
 0001:00033b10       ?dglDrawBitmapStretchSR@@YAXPAVTextureObject@@ABVRectI@@1I@Z 00434b10 f   dgl.obj
 0001:00033d20       ?dglDrawBitmap@@YAXPAVTextureObject@@ABVPoint2I@@I@Z 00434d20 f   dgl.obj
 0001:00033d80       ?dglDrawBitmapStretch@@YAXPAVTextureObject@@ABVRectI@@I@Z 00434d80 f   dgl.obj
 0001:00033dc0       ?dglDrawBitmapSR@@YAXPAVTextureObject@@ABVPoint2I@@ABVRectI@@I@Z 00434dc0 f   dgl.obj
 0001:00033e00       ?dglDrawRect@@YAXABVRectI@@ABVColorI@@@Z 00434e00 f   dgl.obj
 0001:00033e40       ?dglDrawRectFill@@YAXABVRectI@@ABVColorI@@@Z 00434e40 f   dgl.obj
 0001:00033e70       ?dglIsInCanonicalState@@YA_NXZ 00434e70 f   dgl.obj
 0001:00034020       ?dglSetCanonicalState@@YAXXZ 00435020 f   dgl.obj
 0001:00034100       ?dglGetTransformState@@YAXPAH00PAM010@Z 00435100 f   dgl.obj
 0001:00034200       ?dglCheckState@@YA_NHHHPBMH0PBH@Z 00435200 f   dgl.obj
 0001:00034980       ??A?$Vector@UCharInfo@GFont@@@@QBEABUCharInfo@GFont@@H@Z 00435980 f i dgl.obj
 0001:00034990       ?getCharInfo@GFont@@QBEABUCharInfo@1@E@Z 00435990 f i dgl.obj
 0001:000349b0       ??0MatrixF@@QAE@ABVPoint3F@@@Z 004359b0 f i dgl.obj
 0001:000349d0       ?dglDrawTextN@@YAIPAVGFont@@ABVPoint2I@@PBXIPBVColorI@@I@Z 004359d0 f   dgl.obj
 0001:00034f10       ?dglDraw2DSquare@@YAXABVPoint2F@@MM@Z 00435f10 f   dgl.obj
 0001:000350d0       ?dglDrawBillboard@@YAXABVPoint3F@@MM@Z 004360d0 f   dgl.obj
 0001:000352a0       ?dglPointToScreen@@YA_NAAVPoint3F@@0@Z 004362a0 f   dgl.obj
 0001:00035380       ?dglDrawText@@YAIPAVGFont@@ABVPoint2I@@PBXPBVColorI@@I@Z 00436380 f   dgl.obj
 0001:000353b0       ?dglSetFrustum@@YAXNNNNNN_N@Z 004363b0 f   dglMatrix.obj
 0001:00035470       ?dglGetFrustum@@YAXPAN00000@Z 00436470 f   dglMatrix.obj
 0001:000354c0       ?dglIsOrtho@@YA_NXZ        004364c0 f   dglMatrix.obj
 0001:000354d0       ?dglSetViewport@@YAXABVRectI@@@Z 004364d0 f   dglMatrix.obj
 0001:00035560       ?dglGetViewport@@YAXPAVRectI@@@Z 00436560 f   dglMatrix.obj
 0001:00035590       ?dglGetPixelScale@@YAMXZ   00436590 f   dglMatrix.obj
 0001:000355a0       ?dglGetWorldToScreenScale@@YAMXZ 004365a0 f   dglMatrix.obj
 0001:000355b0       ?dglProjectRadius@@YAMMM@Z 004365b0 f   dglMatrix.obj
 0001:000355c0       ?dglLoadMatrix@@YAXPBVMatrixF@@@Z 004365c0 f   dglMatrix.obj
 0001:000355f0       ?dglMultMatrix@@YAXPBVMatrixF@@@Z 004365f0 f   dglMatrix.obj
 0001:00035620       ?dglGetModelview@@YAXPAVMatrixF@@@Z 00436620 f   dglMatrix.obj
 0001:00035640       ?dglGetProjection@@YAXPAVMatrixF@@@Z 00436640 f   dglMatrix.obj
 0001:00035660       ?deleteImage@GBitmap@@QAEXXZ 00436660 f   gBitmap.obj
 0001:000356a0       ?setPalette@GBitmap@@QAEXPAVGPalette@@@Z 004366a0 f   gBitmap.obj
 0001:000356d0       ?allocateBitmap@GBitmap@@QAEXII_NW4BitmapFormat@1@@Z 004366d0 f   gBitmap.obj
 0001:00035810       ?bitmapExtrude5551_c@@YAXPBXPAXII@Z 00436810 f   gBitmap.obj
 0001:00035a00       ?bitmapExtrudeRGB_c@@YAXPBXPAXII@Z 00436a00 f   gBitmap.obj
 0001:00035b30       ?bitmapExtrudePaletted_c@@YAXPBXPAXII@Z 00436b30 f   gBitmap.obj
 0001:00035b70       ?bitmapExtrudeRGBA_c@@YAXPBXPAXII@Z 00436b70 f   gBitmap.obj
 0001:00035ce0       ??0ResourceInstance@@QAE@XZ 00436ce0 f i gBitmap.obj
 0001:00035cf0       ??1ResourceInstance@@UAE@XZ 00436cf0 f i gBitmap.obj
 0001:00035d00       ??_EResourceInstance@@UAEPAXI@Z 00436d00 f i gBitmap.obj
 0001:00035d00       ??_GResourceInstance@@UAEPAXI@Z 00436d00 f i gBitmap.obj
 0001:00035d20       ?bitmapConvertRGB_to_5551_c@@YAXPAEI@Z 00436d20 f   gBitmap.obj
 0001:00035d70       ?read@GBitmap@@QAE_NAAVStream@@@Z 00436d70 f   gBitmap.obj
 0001:00035ee0       ?write@GBitmap@@QBE_NAAVStream@@@Z 00436ee0 f   gBitmap.obj
 0001:00035fc0       ??0GBitmap@@QAE@XZ         00436fc0 f   gBitmap.obj
 0001:00036020       ??0GBitmap@@QAE@ABV0@@Z    00437020 f   gBitmap.obj
 0001:000360d0       ??0GBitmap@@QAE@II_NW4BitmapFormat@0@@Z 004370d0 f   gBitmap.obj
 0001:00036160       ??1GBitmap@@UAE@XZ         00437160 f   gBitmap.obj
 0001:000361d0       ?extrudeMipLevels@GBitmap@@QAEX_N@Z 004371d0 f   gBitmap.obj
 0001:000364a0       ?extrudeMipLevelsDetail@GBitmap@@QAEXXZ 004374a0 f   gBitmap.obj
 0001:00036600       ?setFormat@GBitmap@@QAE_NW4BitmapFormat@1@@Z 00437600 f   gBitmap.obj
 0001:000366d0       ?getColor@GBitmap@@QBE_NIIAAVColorI@@@Z 004376d0 f   gBitmap.obj
 0001:00036810       ?setColor@GBitmap@@QAE_NIIAAVColorI@@@Z 00437810 f   gBitmap.obj
 0001:00036930       ?constructBitmapJPEG@@YAPAVResourceInstance@@AAVStream@@@Z 00437930 f   gBitmap.obj
 0001:00036980       ?constructBitmapPNG@@YAPAVResourceInstance@@AAVStream@@@Z 00437980 f   gBitmap.obj
 0001:000369d0       ?constructBitmapBM8@@YAPAVResourceInstance@@AAVStream@@@Z 004379d0 f   gBitmap.obj
 0001:00036a20       ?constructBitmapBMP@@YAPAVResourceInstance@@AAVStream@@@Z 00437a20 f   gBitmap.obj
 0001:00036a70       ?constructBitmapGIF@@YAPAVResourceInstance@@AAVStream@@@Z 00437a70 f   gBitmap.obj
 0001:00036ac0       ?constructBitmapDBM@@YAPAVResourceInstance@@AAVStream@@@Z 00437ac0 f   gBitmap.obj
 0001:00036b10       ??_EGBitmap@@UAEPAXI@Z     00437b10 f i gBitmap.obj
 0001:00036b10       ??_GGBitmap@@UAEPAXI@Z     00437b10 f i gBitmap.obj
 0001:00036b50       ?convertHostToLEndian@@YAFF@Z 00437b50 f i gFont.obj
 0001:00036b60       ?convertLEndianToHost@@YAFF@Z 00437b60 f i gFont.obj
 0001:00036b70       ?write@Stream@@QAE_NC@Z    00437b70 f i gFont.obj
 0001:00036b80       ?write@Stream@@QAE_NF@Z    00437b80 f i gFont.obj
 0001:00036ba0       ?read@Stream@@QAE_NPAC@Z   00437ba0 f i gFont.obj
 0001:00036bb0       ?read@Stream@@QAE_NPAF@Z   00437bb0 f i gFont.obj
 0001:00036bd0       ??0?$Resource@VGFont@@@@QAE@PAVResourceObject@@@Z 00437bd0 f i gFont.obj
 0001:00036be0       ??B?$Resource@VGFont@@@@QBE_NXZ 00437be0 f i gFont.obj
 0001:00036c00       ??1?$Vector@UCharInfo@GFont@@@@QAE@XZ 00437c00 f i gFont.obj
 0001:00036c10       ?size@?$Vector@UCharInfo@GFont@@@@QBEHXZ 00437c10 f i gFont.obj
 0001:00036c20       ??A?$Vector@UCharInfo@GFont@@@@QAEAAUCharInfo@GFont@@I@Z 00437c20 f i gFont.obj
 0001:00036c30       ?_lock@?$Resource@VGFont@@@@AAEXXZ 00437c30 f i gFont.obj
 0001:00036c40       ?unlock@?$Resource@VGFont@@@@QAEXXZ 00437c40 f i gFont.obj
 0001:00036c60       ??1?$Vector@PAUCharInfo@GFont@@@@QAE@XZ 00437c60 f i gFont.obj
 0001:00036c70       ??A?$Vector@PAUCharInfo@GFont@@@@QAEAAPAUCharInfo@GFont@@I@Z 00437c70 f i gFont.obj
 0001:00036c80       ?address@?$Vector@PAUCharInfo@GFont@@@@QBEPAPAUCharInfo@GFont@@XZ 00437c80 f i gFont.obj
 0001:00036c90       ??1?$Vector@VPoint2I@@@@QAE@XZ 00437c90 f i gFont.obj
 0001:00036ca0       ?size@?$Vector@VPoint2I@@@@QBEHXZ 00437ca0 f i gFont.obj
 0001:00036cb0       ??A?$Vector@VPoint2I@@@@QAEAAVPoint2I@@I@Z 00437cb0 f i gFont.obj
 0001:00036cc0       ??1?$Vector@PAVGBitmap@@@@QAE@XZ 00437cc0 f i gFont.obj
 0001:00036cd0       ??A?$Vector@PAVGBitmap@@@@QAEAAPAVGBitmap@@I@Z 00437cd0 f i gFont.obj
 0001:00036ce0       ?resize@?$Vector@UCharInfo@GFont@@@@IAE_NI@Z 00437ce0 f i gFont.obj
 0001:00036d00       ?reserve@?$Vector@UCharInfo@GFont@@@@QAEXI@Z 00437d00 f i gFont.obj
 0001:00036d30       ?increment@?$Vector@UCharInfo@GFont@@@@QAEXI@Z 00437d30 f i gFont.obj
 0001:00036d60       ?resize@?$Vector@PAUCharInfo@GFont@@@@IAE_NI@Z 00437d60 f i gFont.obj
 0001:00036d80       ?resize@?$Vector@VPoint2I@@@@IAE_NI@Z 00437d80 f i gFont.obj
 0001:00036da0       ?resize@?$Vector@PAVGBitmap@@@@IAE_NI@Z 00437da0 f i gFont.obj
 0001:00036dc0       ??0TextureHandle@@QAE@XZ   00437dc0 f i gFont.obj
 0001:00036dd0       ??0TextureHandle@@QAE@ABV0@@Z 00437dd0 f i gFont.obj
 0001:00036df0       ??0TextureHandle@@QAE@PBDPBVGBitmap@@_N@Z 00437df0 f i gFont.obj
 0001:00036e20       ??4TextureHandle@@QAEAAV0@ABV0@@Z 00437e20 f i gFont.obj
 0001:00036e40       ?getBitmap@TextureHandle@@QAEPAVGBitmap@@XZ 00437e40 f i gFont.obj
 0001:00036e50       ??_ETextureHandle@@QAEPAXI@Z 00437e50 f i gFont.obj
 0001:00036eb0       ?getTextureHandle@GFont@@QAE?AVTextureHandle@@H@Z 00437eb0 f   gFont.obj
 0001:00036ee0       ?assignSheet@GFont@@AAEXHPAVGBitmap@@@Z 00437ee0 f   gFont.obj
 0001:00036fa0       ?write@GFont@@QBE_NAAVStream@@@Z 00437fa0 f   gFont.obj
 0001:00037160       ??0?$Resource@VGFont@@@@QAE@ABV0@@Z 00438160 f i gFont.obj
 0001:00037180       ??1?$Resource@VGFont@@@@QAE@XZ 00438180 f i gFont.obj
 0001:000371a0       ??A?$Vector@PAVGBitmap@@@@QAEAAPAVGBitmap@@H@Z 004381a0 f i gFont.obj
 0001:000371b0       ??0?$Vector@UCharInfo@GFont@@@@QAE@I@Z 004381b0 f i gFont.obj
 0001:00037200       ?push_back@?$Vector@UCharInfo@GFont@@@@QAEXABUCharInfo@GFont@@@Z 00438200 f i gFont.obj
 0001:00037250       ?setSize@?$Vector@UCharInfo@GFont@@@@QAEII@Z 00438250 f i gFont.obj
 0001:00037280       ?reserve@?$Vector@PAUCharInfo@GFont@@@@QAEXI@Z 00438280 f i gFont.obj
 0001:000372b0       ?increment@?$Vector@PAUCharInfo@GFont@@@@QAEXI@Z 004382b0 f i gFont.obj
 0001:000372e0       ?reserve@?$Vector@VPoint2I@@@@QAEXI@Z 004382e0 f i gFont.obj
 0001:00037310       ?increment@?$Vector@VPoint2I@@@@QAEXI@Z 00438310 f i gFont.obj
 0001:00037340       ?reserve@?$Vector@PAVGBitmap@@@@QAEXI@Z 00438340 f i gFont.obj
 0001:00037370       ?increment@?$Vector@PAVGBitmap@@@@QAEXI@Z 00438370 f i gFont.obj
 0001:000373a0       ?getCharWidth@GFont@@QBEIE@Z 004383a0 f i gFont.obj
 0001:000373c0       ?create@GFont@@SA?AV?$Resource@VGFont@@@@PBDI0@Z 004383c0 f   gFont.obj
 0001:000375c0       ??0GFont@@QAE@XZ           004385c0 f   gFont.obj
 0001:00037620       ??1GFont@@UAE@XZ           00438620 f   gFont.obj
 0001:000376a0       ?insertBitmap@GFont@@QAEXGPAEIIIHHH@Z 004386a0 f   gFont.obj
 0001:000377b0       ?getStrNWidth@GFont@@QBEIPBDI@Z 004387b0 f   gFont.obj
 0001:00037820       ?getStrNWidthPrecise@GFont@@QBEIPBDI@Z 00438820 f   gFont.obj
 0001:000378c0       ?getBreakPos@GFont@@QAEIPBDII_N@Z 004388c0 f   gFont.obj
 0001:00037940       ?read@GFont@@QAE_NAAVStream@@@Z 00438940 f   gFont.obj
 0001:00037b60       ??0?$Vector@PAUCharInfo@GFont@@@@QAE@I@Z 00438b60 f i gFont.obj
 0001:00037bb0       ?push_back@?$Vector@PAUCharInfo@GFont@@@@QAEXABQAUCharInfo@GFont@@@Z 00438bb0 f i gFont.obj
 0001:00037bf0       ??0?$Vector@VPoint2I@@@@QAE@I@Z 00438bf0 f i gFont.obj
 0001:00037c40       ?push_back@?$Vector@VPoint2I@@@@QAEXABVPoint2I@@@Z 00438c40 f i gFont.obj
 0001:00037c80       ??0?$Vector@PAVGBitmap@@@@QAE@I@Z 00438c80 f i gFont.obj
 0001:00037cd0       ?push_back@?$Vector@PAVGBitmap@@@@QAEXABQAVGBitmap@@@Z 00438cd0 f i gFont.obj
 0001:00037d10       ?constructFont@@YAPAVResourceInstance@@AAVStream@@@Z 00438d10 f   gFont.obj
 0001:00037d60       ??_EGFont@@UAEPAXI@Z       00438d60 f i gFont.obj
 0001:00037d60       ??_GGFont@@UAEPAXI@Z       00438d60 f i gFont.obj
 0001:00037d80       ?pack@GFont@@QAEXII@Z      00438d80 f   gFont.obj
 0001:00038180       ?getStrWidth@GFont@@QBEIPBD@Z 00439180 f   gFont.obj
 0001:000381b0       ?getStrWidthPrecise@GFont@@QBEIPBD@Z 004391b0 f   gFont.obj
 0001:000381e0       ?wrapString@GFont@@QAEXPBDIAAV?$Vector@I@@1@Z 004391e0 f   gFont.obj
 0001:000383a0       ??1GPalette@@UAE@XZ        004393a0 f   gPalette.obj
 0001:000383b0       ??0GPalette@@QAE@XZ        004393b0 f   gPalette.obj
 0001:000383c0       ??_GGPalette@@UAEPAXI@Z    004393c0 f i gPalette.obj
 0001:000383c0       ??_EGPalette@@UAEPAXI@Z    004393c0 f i gPalette.obj
 0001:000383e0       ?readMSPalette@GPalette@@QAE_NAAVStream@@@Z 004393e0 f   gPalette.obj
 0001:000384a0       ?writeMSPalette@GPalette@@QBE_NAAVStream@@@Z 004394a0 f   gPalette.obj
 0001:00038570       ?read@GPalette@@QAE_NAAVStream@@@Z 00439570 f   gPalette.obj
 0001:000385c0       ?write@GPalette@@QBE_NAAVStream@@@Z 004395c0 f   gPalette.obj
 0001:00038620       ?readMSPalette@GPalette@@QAE_NPBD@Z 00439620 f   gPalette.obj
 0001:000386f0       ?writeMSPalette@GPalette@@QBE_NPBD@Z 004396f0 f   gPalette.obj
 0001:00038850       ?isPow2@@YA_NI@Z           00439850 f i gTexManager.obj
 0001:00038870       ?create@TextureDictionary@@SAXXZ 00439870 f   gTexManager.obj
 0001:00038940       ?find@TextureDictionary@@SAPAVTextureObject@@PBDW4TextureHandleType@@_N@Z 00439940 f   gTexManager.obj
 0001:00038990       ?remove@TextureDictionary@@SAXPAVTextureObject@@@Z 00439990 f   gTexManager.obj
 0001:00038a00       ?insert@TextureDictionary@@SAXPAVTextureObject@@@Z 00439a00 f   gTexManager.obj
 0001:00038a60       ?preDestroy@TextureDictionary@@SAXXZ 00439a60 f   gTexManager.obj
 0001:00038ae0       _dglDoesSupportPalettedTexture 00439ae0 f i gTexManager.obj
 0001:00038b00       ?create@TextureManager@@SAXXZ 00439b00 f   gTexManager.obj
 0001:00038b10       ?preDestroy@TextureManager@@SAXXZ 00439b10 f   gTexManager.obj
 0001:00038b20       _dglDoesSupportEdgeClamp   00439b20 f i gTexManager.obj
 0001:00038b30       _dglDoesSupportTextureCompression 00439b30 f i gTexManager.obj
 0001:00038b50       _dglDoesSupportTexAnisotropy 00439b50 f i gTexManager.obj
 0001:00038b60       _dglGetMaxAnisotropy       00439b60 f i gTexManager.obj
 0001:00038b70       ?freeTexture@TextureManager@@CAXPAVTextureObject@@@Z 00439b70 f   gTexManager.obj
 0001:00038be0       ?getNumMipLevels@GBitmap@@QBEIXZ 00439be0 f i gTexManager.obj
 0001:00038bf0       ?getPalette@GBitmap@@QBEPBVGPalette@@XZ 00439bf0 f i gTexManager.obj
 0001:00038c00       ?loadBitmapInstance@TextureManager@@SAPAVGBitmap@@PBD@Z 00439c00 f   gTexManager.obj
 0001:00038ef0       ?setPaletteType@GPalette@@QAEXW4PaletteType@1@@Z 00439ef0 f i gTexManager.obj
 0001:00038f00       ?getPaletteType@GPalette@@QBE?AW4PaletteType@1@XZ 00439f00 f i gTexManager.obj
 0001:00038f10       ?getColors@GPalette@@QBEPBVColorI@@XZ 00439f10 f i gTexManager.obj
 0001:00038f20       ?setFilterNearest@TextureHandle@@QAEXXZ 00439f20 f   gTexManager.obj
 0001:00038f70       ?setClamp@TextureHandle@@QAEX_N@Z 00439f70 f   gTexManager.obj
 0001:00039040       ?lock@TextureHandle@@AAEXXZ 0043a040 f   gTexManager.obj
 0001:00039050       ?unlock@TextureHandle@@AAEXXZ 0043a050 f   gTexManager.obj
 0001:000390b0       ?lock@ChunkedTextureHandle@@AAEXXZ 0043a0b0 f   gTexManager.obj
 0001:000390c0       ??1?$Vector@PAVTextureObject@@@@QAE@XZ 0043a0c0 f i gTexManager.obj
 0001:000390d0       ?size@?$Vector@PAVTextureObject@@@@QBEHXZ 0043a0d0 f i gTexManager.obj
 0001:000390e0       ??A?$Vector@PAVTextureObject@@@@QAEAAPAVTextureObject@@I@Z 0043a0e0 f i gTexManager.obj
 0001:000390f0       ??0?$Vector@UEventCallbackEntry@@@@QAE@PBDI@Z 0043a0f0 f i gTexManager.obj
 0001:00039100       ??1?$Vector@UEventCallbackEntry@@@@QAE@XZ 0043a100 f i gTexManager.obj
 0001:00039110       ?size@?$Vector@UEventCallbackEntry@@@@QBEHXZ 0043a110 f i gTexManager.obj
 0001:00039120       ??A?$Vector@UEventCallbackEntry@@@@QAEAAUEventCallbackEntry@@I@Z 0043a120 f i gTexManager.obj
 0001:00039130       ?last@?$Vector@UEventCallbackEntry@@@@QAEAAUEventCallbackEntry@@XZ 0043a130 f i gTexManager.obj
 0001:00039140       ?resize@?$Vector@UEventCallbackEntry@@@@IAE_NI@Z 0043a140 f i gTexManager.obj
 0001:00039160       ?decrement@?$Vector@UEventCallbackEntry@@@@QAEXI@Z 0043a160 f i gTexManager.obj
 0001:00039180       ?resize@?$Vector@PAVTextureObject@@@@IAE_NI@Z 0043a180 f i gTexManager.obj
 0001:00039270       ?destroy@TextureDictionary@@SAXXZ 0043a270 f   gTexManager.obj
 0001:000392a0       ?destroy@TextureManager@@SAXXZ 0043a2a0 f   gTexManager.obj
 0001:000392d0       ?createPaddedBitmap@TextureManager@@CAPAVGBitmap@@PAV2@@Z 0043a2d0 f   gTexManager.obj
 0001:00039530       ?createMipBitmap@TextureManager@@CAPAVGBitmap@@PBV2@@Z 0043a530 f   gTexManager.obj
 0001:00039760       ?refresh@TextureManager@@CAXPAVTextureObject@@@Z 0043a760 f   gTexManager.obj
 0001:00039a50       ?refresh@TextureManager@@CAXPAVTextureObject@@PAVGBitmap@@@Z 0043aa50 f   gTexManager.obj
 0001:00039d40       ?createGLName@TextureManager@@CA_NPAVGBitmap@@_NIW4TextureHandleType@@PAVTextureObject@@@Z 0043ad40 f   gTexManager.obj
 0001:0003a140       ?registerTexture@TextureManager@@CAPAVTextureObject@@PBDPBVGBitmap@@_N@Z 0043b140 f   gTexManager.obj
 0001:0003a250       ?registerTexture@TextureManager@@CAPAVTextureObject@@PBDPAVGBitmap@@W4TextureHandleType@@_N@Z 0043b250 f   gTexManager.obj
 0001:0003a540       ??0TextureHandle@@QAE@PAVTextureObject@@@Z 0043b540 f i gTexManager.obj
 0001:0003a560       ??0TextureHandle@@QAE@PBDPAVGBitmap@@W4TextureHandleType@@_N@Z 0043b560 f i gTexManager.obj
 0001:0003a590       ?loadTexture@TextureManager@@CAPAVTextureObject@@PBDW4TextureHandleType@@_N@Z 0043b590 f   gTexManager.obj
 0001:0003a610       ?refresh@TextureHandle@@QAEXXZ 0043b610 f   gTexManager.obj
 0001:0003a620       ?refresh@TextureHandle@@QAEXPAVGBitmap@@@Z 0043b620 f   gTexManager.obj
 0001:0003a640       ?refresh@ChunkedTextureManager@@CAXPAVChunkedTextureObject@@@Z 0043b640 f   gTexManager.obj
 0001:0003a940       ?makeZombie@ChunkedTextureManager@@SAXXZ 0043b940 f   gTexManager.obj
 0001:0003a990       ?resurrect@ChunkedTextureManager@@SAXXZ 0043b990 f   gTexManager.obj
 0001:0003a9e0       ?getSubTexture@ChunkedTextureHandle@@QAE?AVTextureHandle@@II@Z 0043b9e0 f   gTexManager.obj
 0001:0003aa30       ??A?$Vector@PAVTextureObject@@@@QAEAAPAVTextureObject@@H@Z 0043ba30 f i gTexManager.obj
 0001:0003aa40       ??A?$Vector@UEventCallbackEntry@@@@QAEAAUEventCallbackEntry@@H@Z 0043ba40 f i gTexManager.obj
 0001:0003aa50       ?erase@?$Vector@UEventCallbackEntry@@@@QAEXI@Z 0043ba50 f i gTexManager.obj
 0001:0003aaa0       ?increment@?$Vector@UEventCallbackEntry@@@@QAEXI@Z 0043baa0 f i gTexManager.obj
 0001:0003aad0       ?reserve@?$Vector@PAVTextureObject@@@@QAEXI@Z 0043bad0 f i gTexManager.obj
 0001:0003ab00       ?increment@?$Vector@PAVTextureObject@@@@QAEXI@Z 0043bb00 f i gTexManager.obj
 0001:0003ab30       ?registerEventCallback@TextureManager@@SAIP6AXIPAX@Z0@Z 0043bb30 f   gTexManager.obj
 0001:0003abc0       ?unregisterEventCallback@TextureManager@@SAXI@Z 0043bbc0 f   gTexManager.obj
 0001:0003ac30       ?postTextureEvent@TextureManager@@CAXI@Z 0043bc30 f   gTexManager.obj
 0001:0003ac70       ?resurrect@TextureManager@@SAXXZ 0043bc70 f   gTexManager.obj
 0001:0003ad40       ?registerTexture@ChunkedTextureManager@@CAPAVChunkedTextureObject@@PBDPAVGBitmap@@_N@Z 0043bd40 f   gTexManager.obj
 0001:0003ae50       ?freeTexture@ChunkedTextureManager@@CAXPAVChunkedTextureObject@@@Z 0043be50 f   gTexManager.obj
 0001:0003aeb0       ?unlock@ChunkedTextureHandle@@AAEXXZ 0043beb0 f   gTexManager.obj
 0001:0003aed0       ??0?$Vector@PAVTextureObject@@@@QAE@I@Z 0043bed0 f i gTexManager.obj
 0001:0003af20       ?push_back@?$Vector@PAVTextureObject@@@@QAEXABQAVTextureObject@@@Z 0043bf20 f i gTexManager.obj
 0001:0003af60       ?clearHolds@TextureDictionary@@SAHXZ 0043bf60 f   gTexManager.obj
 0001:0003b050       ?makeZombie@TextureManager@@SAXXZ 0043c050 f   gTexManager.obj
 0001:0003b1b0       ?flush@TextureManager@@SAXXZ 0043c1b0 f   gTexManager.obj
 0001:0003b1c0       ?loadTexture@ChunkedTextureManager@@CAPAVChunkedTextureObject@@PBD@Z 0043c1c0 f   gTexManager.obj
 0001:0003b210       ??1?$Vector@PAULFlare@@@@QAE@XZ 0043c210 f i lensFlare.obj
 0001:0003b220       ?size@?$Vector@PAULFlare@@@@QBEHXZ 0043c220 f i lensFlare.obj
 0001:0003b230       ??A?$Vector@PAULFlare@@@@QAEAAPAULFlare@@I@Z 0043c230 f i lensFlare.obj
 0001:0003b240       ?resize@?$Vector@PAULFlare@@@@IAE_NI@Z 0043c240 f i lensFlare.obj
 0001:0003b260       ?areSmallTexturesActive@TextureManager@@SA_NXZ 0043c260 f i lensFlare.obj
 0001:0003b270       ?getGLName@TextureHandle@@QBEIXZ 0043c270 f i lensFlare.obj
 0001:0003b290       ??0Point2F@@QAE@MM@Z       0043c290 f i lensFlare.obj
 0001:0003b2b0       ?getRow@MatrixF@@QBEXHPAVPoint3F@@@Z 0043c2b0 f i lensFlare.obj
 0001:0003b2e0       ?getPosition@MatrixF@@QBE?AVPoint3F@@XZ 0043c2e0 f i lensFlare.obj
 0001:0003b300       ??0ColorF@@QAE@XZ          0043c300 f i lensFlare.obj
 0001:0003b310       ??BColorF@@QBEPBMXZ        0043c310 f i lensFlare.obj
 0001:0003b320       ??0LFlare@@QAE@XZ          0043c320 f i lensFlare.obj
 0001:0003b380       ??1LFlare@@QAE@XZ          0043c380 f i lensFlare.obj
 0001:0003b390       ??4LFlare@@QAEAAU0@ABU0@@Z 0043c390 f i lensFlare.obj
 0001:0003b3e0       ?renderFlare@LensFlare@@AAEXAAVPoint3F@@ABULFlare@@@Z 0043c3e0 f   lensFlare.obj
 0001:0003b4c0       ??A?$Vector@PAULFlare@@@@QAEAAPAULFlare@@H@Z 0043c4c0 f i lensFlare.obj
 0001:0003b4d0       ?increment@?$Vector@PAULFlare@@@@QAEXI@Z 0043c4d0 f i lensFlare.obj
 0001:0003b500       ??_GLFlare@@QAEPAXI@Z      0043c500 f i lensFlare.obj
 0001:0003b520       ?render@LensFlare@@QAEXABVMatrixF@@ABVPoint3F@@@Z 0043c520 f   lensFlare.obj
 0001:0003b650       ?push_back@?$Vector@PAULFlare@@@@QAEXABQAULFlare@@@Z 0043c650 f i lensFlare.obj
 0001:0003b690       ??1LensFlare@@QAE@XZ       0043c690 f   lensFlare.obj
 0001:0003b710       ?addFlare@LensFlare@@QAEXAAULFlare@@@Z 0043c710 f   lensFlare.obj
 0001:0003b7b0       ?set@TextureHandle@@QAE_NPBDW4TextureHandleType@@_N@Z 0043c7b0 f i materialList.obj
 0001:0003b800       ?set@TextureHandle@@QAE_NPBDPAVGBitmap@@W4TextureHandleType@@_N@Z 0043c800 f i materialList.obj
 0001:0003b850       ??1?$Vector@VTextureHandle@@@@QAE@XZ 0043c850 f i materialList.obj
 0001:0003b860       ?size@?$Vector@VTextureHandle@@@@QBEHXZ 0043c860 f i materialList.obj
 0001:0003b870       ??A?$Vector@VTextureHandle@@@@QBEABVTextureHandle@@I@Z 0043c870 f i materialList.obj
 0001:0003b880       ??A?$Vector@VTextureHandle@@@@QAEAAVTextureHandle@@I@Z 0043c880 f i materialList.obj
 0001:0003b890       ?last@?$Vector@VTextureHandle@@@@QAEAAVTextureHandle@@XZ 0043c890 f i materialList.obj
 0001:0003b8a0       ??$constructInPlace@VTextureHandle@@@@YAPAVTextureHandle@@PAV0@@Z 0043c8a0 f i materialList.obj
 0001:0003b8c0       ??A?$Vector@PAX@@QBEABQAXI@Z 0043c8c0 f i materialList.obj
 0001:0003b8d0       ?resize@?$Vector@VTextureHandle@@@@IAE_NI@Z 0043c8d0 f i materialList.obj
 0001:0003b8f0       ?size@MaterialList@@QAEIXZ 0043c8f0 f i materialList.obj
 0001:0003b900       ??1?$VectorPtr@PAD@@QAE@XZ 0043c900 f i materialList.obj
 0001:0003b910       ??_GTextureHandle@@QAEPAXI@Z 0043c910 f i materialList.obj
 0001:0003b930       ??A?$Vector@VTextureHandle@@@@QAEAAVTextureHandle@@H@Z 0043c930 f i materialList.obj
 0001:0003b940       ??A?$Vector@VTextureHandle@@@@QBEABVTextureHandle@@H@Z 0043c940 f i materialList.obj
 0001:0003b950       ?setSize@?$Vector@PAX@@QAEII@Z 0043c950 f i materialList.obj
 0001:0003b980       ??A?$VectorPtr@PAD@@QBEABQADI@Z 0043c980 f i materialList.obj
 0001:0003b990       ??A?$VectorPtr@PAD@@QAEAAPADI@Z 0043c990 f i materialList.obj
 0001:0003b9a0       ?last@?$VectorPtr@PAD@@QAEAAPADXZ 0043c9a0 f i materialList.obj
 0001:0003b9b0       ?reserve@?$Vector@VTextureHandle@@@@QAEXI@Z 0043c9b0 f i materialList.obj
 0001:0003b9e0       ?setSize@?$Vector@VTextureHandle@@@@QAEII@Z 0043c9e0 f i materialList.obj
 0001:0003ba10       ?increment@?$Vector@VTextureHandle@@@@QAEXI@Z 0043ca10 f i materialList.obj
 0001:0003ba40       ?set@MaterialList@@QAEXIPAPBD@Z 0043ca40 f   materialList.obj
 0001:0003bb10       ?load@MaterialList@@UAEXIPBD@Z 0043cb10 f   materialList.obj
 0001:0003bbc0       ?load@MaterialList@@QAE_NPBD@Z 0043cbc0 f   materialList.obj
 0001:0003bc20       ?unload@MaterialList@@QAEXXZ 0043cc20 f   materialList.obj
 0001:0003bc50       ?free@MaterialList@@UAEXXZ 0043cc50 f   materialList.obj
 0001:0003bca0       ?push_back@MaterialList@@QAEIVTextureHandle@@PBD@Z 0043cca0 f   materialList.obj
 0001:0003bdb0       ?push_back@MaterialList@@QAEIPBD@Z 0043cdb0 f   materialList.obj
 0001:0003be70       ?push_back@MaterialList@@QAEIPBDPAVGBitmap@@W4TextureHandleType@@_N@Z 0043ce70 f   materialList.obj
 0001:0003bf70       ?write@MaterialList@@QAE_NAAVStream@@@Z 0043cf70 f   materialList.obj
 0001:0003bfe0       ?readText@MaterialList@@QAE_NAAVStream@@E@Z 0043cfe0 f   materialList.obj
 0001:0003c170       ?readText@MaterialList@@QAE_NAAVStream@@@Z 0043d170 f   materialList.obj
 0001:0003c1a0       ?writeText@MaterialList@@QAE_NAAVStream@@@Z 0043d1a0 f   materialList.obj
 0001:0003c1f0       ??0?$VectorPtr@PAD@@QAE@XZ 0043d1f0 f i materialList.obj
 0001:0003c200       ??0?$Vector@VTextureHandle@@@@QAE@I@Z 0043d200 f i materialList.obj
 0001:0003c250       ??0MaterialList@@QAE@XZ    0043d250 f   materialList.obj
 0001:0003c2a0       ??0MaterialList@@QAE@PBV0@@Z 0043d2a0 f   materialList.obj
 0001:0003c420       ??0MaterialList@@QAE@IPAPBD@Z 0043d420 f   materialList.obj
 0001:0003c490       ??1MaterialList@@UAE@XZ    0043d490 f   materialList.obj
 0001:0003c500       ?read@MaterialList@@QAE_NAAVStream@@@Z 0043d500 f   materialList.obj
 0001:0003c710       ?constructMaterialList@@YAPAVResourceInstance@@AAVStream@@@Z 0043d710 f   materialList.obj
 0001:0003c770       ??_GMaterialList@@UAEPAXI@Z 0043d770 f i materialList.obj
 0001:0003c770       ??_EMaterialList@@UAEPAXI@Z 0043d770 f i materialList.obj
 0001:0003c790       ?getClassRep@MaterialPropertyMap@@UBEPAVAbstractClassRep@@XZ 0043d790 f   materialPropertyMap.obj
 0001:0003c7a0       ?getStaticClassRep@MaterialPropertyMap@@SAPAVAbstractClassRep@@XZ 0043d7a0 f   materialPropertyMap.obj
 0001:0003c7b0       ?getParentStaticClassRep@MaterialPropertyMap@@SAPAVAbstractClassRep@@XZ 0043d7b0 f   materialPropertyMap.obj
 0001:0003c7c0       ??1?$Vector@UMapEntry@MaterialPropertyMap@@@@QAE@XZ 0043d7c0 f i materialPropertyMap.obj
 0001:0003c7d0       ?size@?$Vector@UMapEntry@MaterialPropertyMap@@@@QBEHXZ 0043d7d0 f i materialPropertyMap.obj
 0001:0003c7e0       ??A?$Vector@UMapEntry@MaterialPropertyMap@@@@QBEABUMapEntry@MaterialPropertyMap@@I@Z 0043d7e0 f i materialPropertyMap.obj
 0001:0003c7f0       ?last@?$Vector@UMapEntry@MaterialPropertyMap@@@@QAEAAUMapEntry@MaterialPropertyMap@@XZ 0043d7f0 f i materialPropertyMap.obj
 0001:0003c800       ?resize@?$Vector@UMapEntry@MaterialPropertyMap@@@@IAE_NI@Z 0043d800 f i materialPropertyMap.obj
 0001:0003c820       ?reserve@?$Vector@UMapEntry@MaterialPropertyMap@@@@QAEXI@Z 0043d820 f i materialPropertyMap.obj
 0001:0003c850       ??1MaterialPropertyMap@@UAE@XZ 0043d850 f   materialPropertyMap.obj
 0001:0003c8b0       ??A?$Vector@UMapEntry@MaterialPropertyMap@@@@QBEABUMapEntry@MaterialPropertyMap@@H@Z 0043d8b0 f i materialPropertyMap.obj
 0001:0003c8c0       ??0?$Vector@UMapEntry@MaterialPropertyMap@@@@QAE@I@Z 0043d8c0 f i materialPropertyMap.obj
 0001:0003c910       ?increment@?$Vector@UMapEntry@MaterialPropertyMap@@@@QAEXI@Z 0043d910 f i materialPropertyMap.obj
 0001:0003c940       ??1?$ConcreteClassRep@VMaterialPropertyMap@@@@UAE@XZ 0043d940 f i materialPropertyMap.obj
 0001:0003c960       ??0MaterialPropertyMap@@QAE@XZ 0043d960 f   materialPropertyMap.obj
 0001:0003c9b0       ??_GMaterialPropertyMap@@UAEPAXI@Z 0043d9b0 f i materialPropertyMap.obj
 0001:0003c9b0       ??_EMaterialPropertyMap@@UAEPAXI@Z 0043d9b0 f i materialPropertyMap.obj
 0001:0003c9d0       ?getMapEntry@MaterialPropertyMap@@QBEPBUMapEntry@1@PBD@Z 0043d9d0 f   materialPropertyMap.obj
 0001:0003ca20       ?getMapEntryFromIndex@MaterialPropertyMap@@QBEPBUMapEntry@1@H@Z 0043da20 f   materialPropertyMap.obj
 0001:0003ca40       ?getIndexFromName@MaterialPropertyMap@@QBEHPBD@Z 0043da40 f   materialPropertyMap.obj
 0001:0003ca90       ?getNCMapEntry@MaterialPropertyMap@@AAEPAUMapEntry@1@PBD@Z 0043da90 f   materialPropertyMap.obj
 0001:0003caa0       ?addMapping@MaterialPropertyMap@@QAE_NHPAPBD@Z 0043daa0 f   materialPropertyMap.obj
 0001:0003cea0       ??0?$ConcreteClassRep@VMaterialPropertyMap@@@@QAE@PBDHHH@Z 0043dea0 f i materialPropertyMap.obj
 0001:0003cf20       ?init@?$ConcreteClassRep@VMaterialPropertyMap@@@@UBEXXZ 0043df20 f i materialPropertyMap.obj
 0001:0003cf50       ?create@?$ConcreteClassRep@VMaterialPropertyMap@@@@UBEPAVConsoleObject@@XZ 0043df50 f i materialPropertyMap.obj
 0001:0003cf80       ??_E?$ConcreteClassRep@VMaterialPropertyMap@@@@UAEPAXI@Z 0043df80 f i materialPropertyMap.obj
 0001:0003cf80       ??_G?$ConcreteClassRep@VMaterialPropertyMap@@@@UAEPAXI@Z 0043df80 f i materialPropertyMap.obj
 0001:0003cfa0       ?swap@?A0x1aa6e9e2@@YAXAAM0@Z 0043dfa0 f i rectClipper.obj
 0001:0003cfc0       ?clipLine@RectClipper@@QBE_NABVPoint2I@@0AAV2@1@Z 0043dfc0 f   rectClipper.obj
 0001:0003d2b0       ?clipRect@RectClipper@@QBE_NABVRectI@@AAV2@@Z 0043e2b0 f   rectClipper.obj
 0001:0003d370       ?drawSplineBeam@SplineUtil@@YAXABVPoint3F@@IMAAVSplinePatch@@MM@Z 0043e370 f   splineUtil.obj
 0001:0003d6a0       ?drawSplineBeam@SplineUtil@@YAXAAUSplineBeamInfo@1@@Z 0043e6a0 f   splineUtil.obj
 0001:0003d9f0       ??BColorI@@QBEPBEXZ        0043e9f0 f i stripCache.obj
 0001:0003da00       _dglDoesSupportCompiledVertexArray 0043ea00 f i stripCache.obj
 0001:0003da20       ?flushCache@StripCache@@QAEXXZ 0043ea20 f   stripCache.obj
 0001:0003daf0       ?emitStrip@StripCache@@QAEXIIABVColorI@@@Z 0043eaf0 f   stripCache.obj
 0001:0003dba0       ?getClassRep@CreatorTree@@UBEPAVAbstractClassRep@@XZ 0043eba0 f   creator.obj
 0001:0003dbb0       ?getStaticClassRep@CreatorTree@@SAPAVAbstractClassRep@@XZ 0043ebb0 f   creator.obj
 0001:0003dbc0       ?getParentStaticClassRep@CreatorTree@@SAPAVAbstractClassRep@@XZ 0043ebc0 f   creator.obj
 0001:0003dbd0       ?sort@CreatorTree@@QAEXXZ  0043ebd0 f   creator.obj
 0001:0003dc40       ?onMouseUp@CreatorTree@@UAEXABUGuiEvent@@@Z 0043ec40 f   creator.obj
 0001:0003dc50       ?onMouseDragged@CreatorTree@@UAEXABUGuiEvent@@@Z 0043ec50 f   creator.obj
 0001:0003dc60       ??C?$Resource@VGFont@@@@QAEPAVGFont@@XZ 0043ec60 f i creator.obj
 0001:0003dc70       ??B?$Resource@VGFont@@@@QBEPAVGFont@@XZ 0043ec70 f i creator.obj
 0001:0003dc80       ??1?$Vector@PAVNode@CreatorTree@@@@QAE@XZ 0043ec80 f i creator.obj
 0001:0003dc90       ?size@?$Vector@PAVNode@CreatorTree@@@@QBEHXZ 0043ec90 f i creator.obj
 0001:0003dca0       ??A?$Vector@PAVNode@CreatorTree@@@@QAEAAPAVNode@CreatorTree@@I@Z 0043eca0 f i creator.obj
 0001:0003dcb0       ?clear@?$Vector@PAVNode@CreatorTree@@@@QAEXXZ 0043ecb0 f i creator.obj
 0001:0003dcc0       ?resize@?$Vector@PAVNode@CreatorTree@@@@IAE_NI@Z 0043ecc0 f i creator.obj
 0001:0003dce0       ??0Point2I@@QAE@ABV0@@Z    0043ece0 f i creator.obj
 0001:0003dd00       ?set@Point2I@@QAEXHH@Z     0043ed00 f i creator.obj
 0001:0003dd10       ?select@Node@CreatorTree@@QAEX_N@Z 0043ed10 f i creator.obj
 0001:0003dd30       ?isGroup@Node@CreatorTree@@QAE_NXZ 0043ed30 f i creator.obj
 0001:0003dd40       ?isExpanded@Node@CreatorTree@@QAE_NXZ 0043ed40 f i creator.obj
 0001:0003dd50       ?isSelected@Node@CreatorTree@@QAE_NXZ 0043ed50 f i creator.obj
 0001:0003dd60       ?isRoot@Node@CreatorTree@@QAE_NXZ 0043ed60 f i creator.obj
 0001:0003dd70       ?getId@Node@CreatorTree@@QAEHXZ 0043ed70 f i creator.obj
 0001:0003dd80       ??1Node@CreatorTree@@QAE@XZ 0043ed80 f   creator.obj
 0001:0003de00       ??_GNode@CreatorTree@@QAEPAXI@Z 0043ee00 f i creator.obj
 0001:0003de20       ?expand@Node@CreatorTree@@QAEX_N@Z 0043ee20 f   creator.obj
 0001:0003de80       ?find@Node@CreatorTree@@QAEPAV12@H@Z 0043ee80 f   creator.obj
 0001:0003ded0       ?hasChildItem@Node@CreatorTree@@QAE_NXZ 0043eed0 f   creator.obj
 0001:0003df20       ?getSelected@Node@CreatorTree@@QAEHXZ 0043ef20 f   creator.obj
 0001:0003df70       ?findNode@CreatorTree@@QAEPAVNode@1@H@Z 0043ef70 f   creator.obj
 0001:0003e050       ??A?$Vector@PAVNode@CreatorTree@@@@QAEAAPAVNode@CreatorTree@@H@Z 0043f050 f i creator.obj
 0001:0003e060       ?reserve@?$Vector@PAVNode@CreatorTree@@@@QAEXI@Z 0043f060 f i creator.obj
 0001:0003e090       ?increment@?$Vector@PAVNode@CreatorTree@@@@QAEXI@Z 0043f090 f i creator.obj
 0001:0003e0c0       ?getSelected@CreatorTree@@QAEHXZ 0043f0c0 f i creator.obj
 0001:0003e0d0       ??1?$ConcreteClassRep@VCreatorTree@@@@UAE@XZ 0043f0d0 f i creator.obj
 0001:0003e0f0       ?isFirst@Node@CreatorTree@@QAE_NXZ 0043f0f0 f   creator.obj
 0001:0003e110       ?isLast@Node@CreatorTree@@QAE_NXZ 0043f110 f   creator.obj
 0001:0003e130       ??1GuiArrayCtrl@@UAE@XZ    0043f130 f i creator.obj
 0001:0003e1a0       ??1CreatorTree@@UAE@XZ     0043f1a0 f   creator.obj
 0001:0003e300       ?onRenderCell@CreatorTree@@UAEXVPoint2I@@0_N1@Z 0043f300 f   creator.obj
 0001:0003e5b0       ??0?$Vector@PAVNode@CreatorTree@@@@QAE@I@Z 0043f5b0 f i creator.obj
 0001:0003e600       ?push_back@?$Vector@PAVNode@CreatorTree@@@@QAEXABQAVNode@CreatorTree@@@Z 0043f600 f i creator.obj
 0001:0003e640       ??0Node@CreatorTree@@QAE@XZ 0043f640 f   creator.obj
 0001:0003e660       ??_ECreatorTree@@UAEPAXI@Z 0043f660 f i creator.obj
 0001:0003e660       ??_GCreatorTree@@UAEPAXI@Z 0043f660 f i creator.obj
 0001:0003e680       ?addNode@CreatorTree@@QAE_NPAVNode@1@0@Z 0043f680 f   creator.obj
 0001:0003e6e0       ?buildNode@CreatorTree@@QAEXPAVNode@1@I@Z 0043f6e0 f   creator.obj
 0001:0003e7d0       ?build@CreatorTree@@QAEXXZ 0043f7d0 f   creator.obj
 0001:0003e830       ?onWake@CreatorTree@@UAE_NXZ 0043f830 f   creator.obj
 0001:0003e890       ?onMouseDown@CreatorTree@@UAEXABUGuiEvent@@@Z 0043f890 f   creator.obj
 0001:0003e980       ??0?$ConcreteClassRep@VCreatorTree@@@@QAE@PBDHHH@Z 0043f980 f i creator.obj
 0001:0003ea00       ?init@?$ConcreteClassRep@VCreatorTree@@@@UBEXXZ 0043fa00 f i creator.obj
 0001:0003ea30       ??_E?$ConcreteClassRep@VCreatorTree@@@@UAEPAXI@Z 0043fa30 f i creator.obj
 0001:0003ea30       ??_G?$ConcreteClassRep@VCreatorTree@@@@UAEPAXI@Z 0043fa30 f i creator.obj
 0001:0003ea50       ?createNode@CreatorTree@@QAEPAVNode@1@PBD0_NPAV21@@Z 0043fa50 f   creator.obj
 0001:0003eb40       ?clear@CreatorTree@@QAEXXZ 0043fb40 f   creator.obj
 0001:0003ecd0       ??0CreatorTree@@QAE@XZ     0043fcd0 f   creator.obj
 0001:0003ede0       ?create@?$ConcreteClassRep@VCreatorTree@@@@UBEPAVConsoleObject@@XZ 0043fde0 f i creator.obj
 0001:0003ee10       ?getClassRep@EditManager@@UBEPAVAbstractClassRep@@XZ 0043fe10 f   editor.obj
 0001:0003ee20       ?getStaticClassRep@EditManager@@SAPAVAbstractClassRep@@XZ 0043fe20 f   editor.obj
 0001:0003ee30       ?getParentStaticClassRep@EditManager@@SAPAVAbstractClassRep@@XZ 0043fe30 f   editor.obj
 0001:0003ee40       ??1EditManager@@UAE@XZ     0043fe40 f   editor.obj
 0001:0003ee50       ??B?$SimObjectPtr@VNetConnection@@@@QBEPAVNetConnection@@XZ 0043fe50 f i editor.obj
 0001:0003ee60       ??B?$SimObjectPtr@VShapeBase@@@@QBEPAVShapeBase@@XZ 0043fe60 f i editor.obj
 0001:0003ee70       ??DSimSetIterator@@QAEPAVSimObject@@XZ 0043fe70 f i editor.obj
 0001:0003ee90       ?getLocalClientConnection@GameConnection@@SAPAV1@XZ 0043fe90 f i editor.obj
 0001:0003eec0       ?getControlObject@GameConnection@@QAEPAVShapeBase@@XZ 0043fec0 f i editor.obj
 0001:0003eed0       ??1?$ConcreteClassRep@VEditManager@@@@UAE@XZ 0043fed0 f i editor.obj
 0001:0003eef0       ??_GEditManager@@UAEPAXI@Z 0043fef0 f i editor.obj
 0001:0003eef0       ??_EEditManager@@UAEPAXI@Z 0043fef0 f i editor.obj
 0001:0003ef10       ?onAdd@EditManager@@UAE_NXZ 0043ff10 f   editor.obj
 0001:0003f020       ??1SimSetIterator@@QAE@XZ  00440020 f i editor.obj
 0001:0003f030       ??_FMatrixF@@QAEXXZ        00440030 f i editor.obj
 0001:0003f040       ??1SimGroupIterator@@QAE@XZ 00440040 f i editor.obj
 0001:0003f0e0       ??0SimGroupIterator@@QAE@PAVSimGroup@@@Z 004400e0 f i editor.obj
 0001:0003f100       ??0EditManager@@QAE@XZ     00440100 f   editor.obj
 0001:0003f1c0       ?onWake@EditManager@@UAE_NXZ 004401c0 f   editor.obj
 0001:0003f260       ?onSleep@EditManager@@UAEXXZ 00440260 f   editor.obj
 0001:0003f2f0       ??0?$ConcreteClassRep@VEditManager@@@@QAE@PBDHHH@Z 004402f0 f i editor.obj
 0001:0003f370       ?init@?$ConcreteClassRep@VEditManager@@@@UBEXXZ 00440370 f i editor.obj
 0001:0003f3a0       ??_E?$ConcreteClassRep@VEditManager@@@@UAEPAXI@Z 004403a0 f i editor.obj
 0001:0003f3a0       ??_G?$ConcreteClassRep@VEditManager@@@@UAEPAXI@Z 004403a0 f i editor.obj
 0001:0003f3c0       ?create@?$ConcreteClassRep@VEditManager@@@@UBEPAVConsoleObject@@XZ 004403c0 f i editor.obj
 0001:0003f3f0       ?getClassRep@EditTSCtrl@@UBEPAVAbstractClassRep@@XZ 004403f0 f   editTSCtrl.obj
 0001:0003f400       ?getStaticClassRep@EditTSCtrl@@SAPAVAbstractClassRep@@XZ 00440400 f   editTSCtrl.obj
 0001:0003f410       ?getParentStaticClassRep@EditTSCtrl@@SAPAVAbstractClassRep@@XZ 00440410 f   editTSCtrl.obj
 0001:0003f420       ??1GuiTSCtrl@@UAE@XZ       00440420 f i editTSCtrl.obj
 0001:0003f430       ??1EditTSCtrl@@UAE@XZ      00440430 f   editTSCtrl.obj
 0001:0003f440       ?initPersistFields@EditTSCtrl@@SAXXZ 00440440 f   editTSCtrl.obj
 0001:0003f540       ?getMax@@YAMMM@Z           00440540 f i editTSCtrl.obj
 0001:0003f560       ?consoleInit@EditTSCtrl@@SAXXZ 00440560 f   editTSCtrl.obj
 0001:0003f580       ?get3DCursor@EditTSCtrl@@UAEXAAPAVGuiCursor@@AA_NABUGui3DMouseEvent@@@Z 00440580 f   editTSCtrl.obj
 0001:0003f5a0       ?onInputEvent@EditTSCtrl@@EAE_NABUInputEvent@@@Z 004405a0 f   editTSCtrl.obj
 0001:0003f620       _acosf                     00440620 f i editTSCtrl.obj
 0001:0003f630       ?acos@@YAMM@Z              00440630 f i editTSCtrl.obj
 0001:0003f640       ?mClampF@@YAMMMM@Z         00440640 f i editTSCtrl.obj
 0001:0003f670       ?mAcos@@YAMM@Z             00440670 f i editTSCtrl.obj
 0001:0003f680       ??1?$Vector@USortInfo@@@@QAE@XZ 00440680 f i editTSCtrl.obj
 0001:0003f690       ?size@?$Vector@USortInfo@@@@QBEHXZ 00440690 f i editTSCtrl.obj
 0001:0003f6a0       ??A?$Vector@USortInfo@@@@QAEAAUSortInfo@@I@Z 004406a0 f i editTSCtrl.obj
 0001:0003f6b0       ?address@?$Vector@USortInfo@@@@QBEPAUSortInfo@@XZ 004406b0 f i editTSCtrl.obj
 0001:0003f6c0       ?magnitudeSafe@Point3F@@QAEMXZ 004406c0 f i editTSCtrl.obj
 0001:0003f730       ?resize@?$Vector@USortInfo@@@@IAE_NI@Z 00440730 f i editTSCtrl.obj
 0001:0003f750       ?reserve@?$Vector@USortInfo@@@@QAEXI@Z 00440750 f i editTSCtrl.obj
 0001:0003f780       ?isExpanded@SimObject@@QBE_NXZ 00440780 f i editTSCtrl.obj
 0001:0003f790       ??0AngAxisF@@QAE@XZ        00440790 f i editTSCtrl.obj
 0001:0003f7a0       ?updateGuiInfo@EditTSCtrl@@EAEXXZ 004407a0 f i editTSCtrl.obj
 0001:0003f7b0       ?renderScene@EditTSCtrl@@EAEXABVRectI@@@Z 004407b0 f i editTSCtrl.obj
 0001:0003f7c0       ?on3DMouseUp@EditTSCtrl@@UAEXABUGui3DMouseEvent@@@Z 004407c0 f i editTSCtrl.obj
 0001:0003f7d0       ?on3DMouseDown@EditTSCtrl@@UAEXABUGui3DMouseEvent@@@Z 004407d0 f i editTSCtrl.obj
 0001:0003f7e0       ?on3DMouseMove@EditTSCtrl@@UAEXABUGui3DMouseEvent@@@Z 004407e0 f i editTSCtrl.obj
 0001:0003f7f0       ?on3DMouseDragged@EditTSCtrl@@UAEXABUGui3DMouseEvent@@@Z 004407f0 f i editTSCtrl.obj
 0001:0003f800       ?on3DMouseEnter@EditTSCtrl@@UAEXABUGui3DMouseEvent@@@Z 00440800 f i editTSCtrl.obj
 0001:0003f810       ?on3DMouseLeave@EditTSCtrl@@UAEXABUGui3DMouseEvent@@@Z 00440810 f i editTSCtrl.obj
 0001:0003f820       ?on3DRightMouseDown@EditTSCtrl@@UAEXABUGui3DMouseEvent@@@Z 00440820 f i editTSCtrl.obj
 0001:0003f830       ?on3DRightMouseUp@EditTSCtrl@@UAEXABUGui3DMouseEvent@@@Z 00440830 f i editTSCtrl.obj
 0001:0003f840       ?on3DRightMouseDragged@EditTSCtrl@@UAEXABUGui3DMouseEvent@@@Z 00440840 f i editTSCtrl.obj
 0001:0003f850       ?getServerConnection@NetConnection@@SAPAV1@XZ 00440850 f i editTSCtrl.obj
 0001:0003f870       ?getArea@MissionArea@@QAEABVRectI@@XZ 00440870 f i editTSCtrl.obj
 0001:0003f880       ?findSquare@TerrainBlock@@QAEPAUGridSquare@@IVPoint2I@@@Z 00440880 f i editTSCtrl.obj
 0001:0003f8c0       ??1?$ConcreteClassRep@VEditTSCtrl@@@@UAE@XZ 004408c0 f i editTSCtrl.obj
 0001:0003f8e0       ??_EEditTSCtrl@@UAEPAXI@Z  004408e0 f i editTSCtrl.obj
 0001:0003f8e0       ??_GEditTSCtrl@@UAEPAXI@Z  004408e0 f i editTSCtrl.obj
 0001:0003f900       ??0GuiEvent@@QAE@XZ        00440900 f i editTSCtrl.obj
 0001:0003f910       ?onAdd@EditTSCtrl@@UAE_NXZ 00440910 f   editTSCtrl.obj
 0001:0003f930       ?onRender@EditTSCtrl@@UAEXVPoint2I@@ABVRectI@@@Z 00440930 f   editTSCtrl.obj
 0001:0003f960       ?make3DMouseEvent@EditTSCtrl@@AAEXAAUGui3DMouseEvent@@ABUGuiEvent@@@Z 00440960 f   editTSCtrl.obj
 0001:0003fa20       ?getCursor@EditTSCtrl@@EAEXAAPAVGuiCursor@@AA_NABUGuiEvent@@@Z 00440a20 f   editTSCtrl.obj
 0001:0003fa50       ?onMouseUp@EditTSCtrl@@EAEXABUGuiEvent@@@Z 00440a50 f   editTSCtrl.obj
 0001:0003fa80       ?onMouseDown@EditTSCtrl@@EAEXABUGuiEvent@@@Z 00440a80 f   editTSCtrl.obj
 0001:0003fab0       ?onMouseMove@EditTSCtrl@@EAEXABUGuiEvent@@@Z 00440ab0 f   editTSCtrl.obj
 0001:0003fae0       ?onMouseDragged@EditTSCtrl@@EAEXABUGuiEvent@@@Z 00440ae0 f   editTSCtrl.obj
 0001:0003fb10       ?onMouseEnter@EditTSCtrl@@EAEXABUGuiEvent@@@Z 00440b10 f   editTSCtrl.obj
 0001:0003fb40       ?onMouseLeave@EditTSCtrl@@EAEXABUGuiEvent@@@Z 00440b40 f   editTSCtrl.obj
 0001:0003fb70       ?onRightMouseDown@EditTSCtrl@@EAEXABUGuiEvent@@@Z 00440b70 f   editTSCtrl.obj
 0001:0003fbd0       ?onRightMouseUp@EditTSCtrl@@EAEXABUGuiEvent@@@Z 00440bd0 f   editTSCtrl.obj
 0001:0003fc00       ?onRightMouseDragged@EditTSCtrl@@EAEXABUGuiEvent@@@Z 00440c00 f   editTSCtrl.obj
 0001:0003fc30       ?renderMissionArea@EditTSCtrl@@AAEXXZ 00440c30 f   editTSCtrl.obj
 0001:00040090       ?processCameraQuery@EditTSCtrl@@UAE_NPAUCameraQuery@@@Z 00441090 f   editTSCtrl.obj
 0001:00040410       ??0?$Vector@USortInfo@@@@QAE@I@Z 00441410 f i editTSCtrl.obj
 0001:00040460       ?setSize@?$Vector@USortInfo@@@@QAEII@Z 00441460 f i editTSCtrl.obj
 0001:00040490       ?normalizeSafe@Point3F@@QAEXXZ 00441490 f i editTSCtrl.obj
 0001:000404d0       ??0Gui3DMouseEvent@@QAE@XZ 004414d0 f i editTSCtrl.obj
 0001:000404e0       ?renderWorld@EditTSCtrl@@EAEXABVRectI@@@Z 004414e0 f   editTSCtrl.obj
 0001:00040aa0       ??0EditTSCtrl@@QAE@XZ      00441aa0 f   editTSCtrl.obj
 0001:00040ff0       ??0?$ConcreteClassRep@VEditTSCtrl@@@@QAE@PBDHHH@Z 00441ff0 f i editTSCtrl.obj
 0001:00041070       ?init@?$ConcreteClassRep@VEditTSCtrl@@@@UBEXXZ 00442070 f i editTSCtrl.obj
 0001:000410b0       ??_G?$ConcreteClassRep@VEditTSCtrl@@@@UAEPAXI@Z 004420b0 f i editTSCtrl.obj
 0001:000410b0       ??_E?$ConcreteClassRep@VEditTSCtrl@@@@UAEPAXI@Z 004420b0 f i editTSCtrl.obj
 0001:000410d0       ?create@?$ConcreteClassRep@VEditTSCtrl@@@@UBEPAVConsoleObject@@XZ 004420d0 f i editTSCtrl.obj
 0001:00041120       ?getClassRep@GuiTerrPreviewCtrl@@UBEPAVAbstractClassRep@@XZ 00442120 f   guiTerrPreviewCtrl.obj
 0001:00041130       ?getStaticClassRep@GuiTerrPreviewCtrl@@SAPAVAbstractClassRep@@XZ 00442130 f   guiTerrPreviewCtrl.obj
 0001:00041140       ?getParentStaticClassRep@GuiTerrPreviewCtrl@@SAPAVAbstractClassRep@@XZ 00442140 f   guiTerrPreviewCtrl.obj
 0001:00041150       ?initPersistFields@GuiTerrPreviewCtrl@@SAXXZ 00442150 f   guiTerrPreviewCtrl.obj
 0001:00041160       ?onWake@GuiTerrPreviewCtrl@@UAE_NXZ 00442160 f   guiTerrPreviewCtrl.obj
 0001:00041170       ?onSleep@GuiTerrPreviewCtrl@@UAEXXZ 00442170 f   guiTerrPreviewCtrl.obj
 0001:00041180       ?setRoot@GuiTerrPreviewCtrl@@QAEXABVPoint2F@@@Z 00442180 f   guiTerrPreviewCtrl.obj
 0001:000411a0       ?setOrigin@GuiTerrPreviewCtrl@@QAEXABVPoint2F@@@Z 004421a0 f   guiTerrPreviewCtrl.obj
 0001:000411c0       ?onPreRender@GuiTerrPreviewCtrl@@UAEXXZ 004421c0 f   guiTerrPreviewCtrl.obj
 0001:000411d0       _tanf                      004421d0 f i guiTerrPreviewCtrl.obj
 0001:000411e0       ?tan@@YAMM@Z               004421e0 f i guiTerrPreviewCtrl.obj
 0001:000411f0       ?mTan@@YAMM@Z              004421f0 f i guiTerrPreviewCtrl.obj
 0001:00041200       ??0Point2F@@QAE@ABV0@@Z    00442200 f i guiTerrPreviewCtrl.obj
 0001:00041220       ??HPoint2F@@QBE?AV0@ABV0@@Z 00442220 f i guiTerrPreviewCtrl.obj
 0001:00041240       ??GPoint2F@@QBE?AV0@ABV0@@Z 00442240 f i guiTerrPreviewCtrl.obj
 0001:00041260       ??YPoint2F@@QAEAAV0@ABV0@@Z 00442260 f i guiTerrPreviewCtrl.obj
 0001:00041280       ??DPoint2F@@QBE?AV0@M@Z    00442280 f i guiTerrPreviewCtrl.obj
 0001:000412a0       ??KPoint2F@@QBE?AV0@M@Z    004422a0 f i guiTerrPreviewCtrl.obj
 0001:000412c0       ??XPoint2F@@QAEAAV0@M@Z    004422c0 f i guiTerrPreviewCtrl.obj
 0001:000412e0       ?getSquareSize@TerrainBlock@@QAEHXZ 004422e0 f i guiTerrPreviewCtrl.obj
 0001:000412f0       ?getRoot@GuiTerrPreviewCtrl@@QAEABVPoint2F@@XZ 004422f0 f i guiTerrPreviewCtrl.obj
 0001:00041300       ?getOrigin@GuiTerrPreviewCtrl@@QAEABVPoint2F@@XZ 00442300 f i guiTerrPreviewCtrl.obj
 0001:00041310       ??1?$ConcreteClassRep@VGuiTerrPreviewCtrl@@@@UAE@XZ 00442310 f i guiTerrPreviewCtrl.obj
 0001:00041330       ??0GuiTerrPreviewCtrl@@QAE@XZ 00442330 f   guiTerrPreviewCtrl.obj
 0001:000414a0       ?setBitmap@GuiTerrPreviewCtrl@@QAEXABVTextureHandle@@@Z 004424a0 f   guiTerrPreviewCtrl.obj
 0001:000414d0       ?reset@GuiTerrPreviewCtrl@@QAEXXZ 004424d0 f   guiTerrPreviewCtrl.obj
 0001:000414f0       ?setRoot@GuiTerrPreviewCtrl@@QAEXXZ 004424f0 f   guiTerrPreviewCtrl.obj
 0001:00041530       ?wrap@GuiTerrPreviewCtrl@@AAEAAVPoint2F@@ABV2@@Z 00442530 f   guiTerrPreviewCtrl.obj
 0001:00041640       ?worldToTexture@GuiTerrPreviewCtrl@@AAEAAVPoint2F@@ABV2@@Z 00442640 f   guiTerrPreviewCtrl.obj
 0001:000416c0       ?worldToCtrl@GuiTerrPreviewCtrl@@AAEAAVPoint2F@@ABV2@@Z 004426c0 f   guiTerrPreviewCtrl.obj
 0001:00041770       ??0CameraQuery@@QAE@XZ     00442770 f i guiTerrPreviewCtrl.obj
 0001:00041780       ??_GGuiTerrPreviewCtrl@@UAEPAXI@Z 00442780 f i guiTerrPreviewCtrl.obj
 0001:00041780       ??_EGuiTerrPreviewCtrl@@UAEPAXI@Z 00442780 f i guiTerrPreviewCtrl.obj
 0001:000417a0       ??1GuiTerrPreviewCtrl@@UAE@XZ 004427a0 f i guiTerrPreviewCtrl.obj
 0001:00041a00       ?onRender@GuiTerrPreviewCtrl@@UAEXVPoint2I@@ABVRectI@@@Z 00442a00 f   guiTerrPreviewCtrl.obj
 0001:00042150       ??0?$ConcreteClassRep@VGuiTerrPreviewCtrl@@@@QAE@PBDHHH@Z 00443150 f i guiTerrPreviewCtrl.obj
 0001:000421d0       ?init@?$ConcreteClassRep@VGuiTerrPreviewCtrl@@@@UBEXXZ 004431d0 f i guiTerrPreviewCtrl.obj
 0001:00042200       ?create@?$ConcreteClassRep@VGuiTerrPreviewCtrl@@@@UBEPAVConsoleObject@@XZ 00443200 f i guiTerrPreviewCtrl.obj
 0001:00042230       ??_G?$ConcreteClassRep@VGuiTerrPreviewCtrl@@@@UAEPAXI@Z 00443230 f i guiTerrPreviewCtrl.obj
 0001:00042230       ??_E?$ConcreteClassRep@VGuiTerrPreviewCtrl@@@@UAEPAXI@Z 00443230 f i guiTerrPreviewCtrl.obj
 0001:00042250       ?getClassRep@MissionAreaEditor@@UBEPAVAbstractClassRep@@XZ 00443250 f   missionAreaEditor.obj
 0001:00042260       ?getStaticClassRep@MissionAreaEditor@@SAPAVAbstractClassRep@@XZ 00443260 f   missionAreaEditor.obj
 0001:00042270       ?getParentStaticClassRep@MissionAreaEditor@@SAPAVAbstractClassRep@@XZ 00443270 f   missionAreaEditor.obj
 0001:00042280       ?getCursor@MissionAreaEditor@@EAEXAAPAVGuiCursor@@AA_NABUGuiEvent@@@Z 00443280 f   missionAreaEditor.obj
 0001:000422a0       ?setCursor@MissionAreaEditor@@AAEXI@Z 004432a0 f   missionAreaEditor.obj
 0001:000422c0       ?grabCursors@MissionAreaEditor@@AAE_NXZ 004432c0 f   missionAreaEditor.obj
 0001:000423d0       ?onAdd@MissionAreaEditor@@UAE_NXZ 004433d0 f   missionAreaEditor.obj
 0001:000423f0       _ceilf                     004433f0 f i missionAreaEditor.obj
 0001:00042410       _floorf                    00443410 f i missionAreaEditor.obj
 0001:00042430       ?ceil@@YAMM@Z              00443430 f i missionAreaEditor.obj
 0001:00042450       ?floor@@YAMM@Z             00443450 f i missionAreaEditor.obj
 0001:00042470       ?mFloor@@YAMM@Z            00443470 f i missionAreaEditor.obj
 0001:00042490       ?mCeil@@YAMM@Z             00443490 f i missionAreaEditor.obj
 0001:000424b0       ?inNut@MissionAreaEditor@@AAE_NABVPoint2I@@HH@Z 004434b0 f   missionAreaEditor.obj
 0001:000424f0       ?getSizingHitKnobs@MissionAreaEditor@@AAEHABVPoint2I@@ABVRectI@@@Z 004434f0 f   missionAreaEditor.obj
 0001:000426c0       ?mDegToRad@@YAMM@Z         004436c0 f i missionAreaEditor.obj
 0001:000426e0       ?updateCursor@MissionAreaEditor@@AAEXH@Z 004436e0 f   missionAreaEditor.obj
 0001:00042790       ??GPoint2I@@QBE?AV0@ABV0@@Z 00443790 f i missionAreaEditor.obj
 0001:000427b0       ??YPoint2I@@QAEAAV0@ABV0@@Z 004437b0 f i missionAreaEditor.obj
 0001:000427d0       ??ZPoint2I@@QAEAAV0@ABV0@@Z 004437d0 f i missionAreaEditor.obj
 0001:000427f0       ?onMouseEnter@MissionAreaEditor@@UAEXABUGuiEvent@@@Z 004437f0 f   missionAreaEditor.obj
 0001:00042810       ?onMouseLeave@MissionAreaEditor@@UAEXABUGuiEvent@@@Z 00443810 f   missionAreaEditor.obj
 0001:00042830       ?initPersistFields@MissionAreaEditor@@SAXXZ 00443830 f   missionAreaEditor.obj
 0001:000429a0       ??0?$SimObjectPtr@VMissionArea@@@@QAE@XZ 004439a0 f i missionAreaEditor.obj
 0001:000429b0       ??1?$SimObjectPtr@VMissionArea@@@@QAE@XZ 004439b0 f i missionAreaEditor.obj
 0001:000429c0       ??4?$SimObjectPtr@VMissionArea@@@@QAEAAV0@PAVMissionArea@@@Z 004439c0 f i missionAreaEditor.obj
 0001:000429f0       ?isNull@?$SimObjectPtr@VMissionArea@@@@QBE_NXZ 004439f0 f i missionAreaEditor.obj
 0001:00042a00       ??C?$SimObjectPtr@VMissionArea@@@@QBEPAVMissionArea@@XZ 00443a00 f i missionAreaEditor.obj
 0001:00042a10       ??B?$SimObjectPtr@VMissionArea@@@@QBEPAVMissionArea@@XZ 00443a10 f i missionAreaEditor.obj
 0001:00042a20       ??0?$SimObjectPtr@VTerrainBlock@@@@QAE@XZ 00443a20 f i missionAreaEditor.obj
 0001:00042a30       ??1?$SimObjectPtr@VTerrainBlock@@@@QAE@XZ 00443a30 f i missionAreaEditor.obj
 0001:00042a40       ??4?$SimObjectPtr@VTerrainBlock@@@@QAEAAV0@PAVTerrainBlock@@@Z 00443a40 f i missionAreaEditor.obj
 0001:00042a70       ??C?$SimObjectPtr@VTerrainBlock@@@@QBEPAVTerrainBlock@@XZ 00443a70 f i missionAreaEditor.obj
 0001:00042a80       ??B?$SimObjectPtr@VTerrainBlock@@@@QBEPAVTerrainBlock@@XZ 00443a80 f i missionAreaEditor.obj
 0001:00042a90       ??0RectF@@QAE@XZ           00443a90 f i missionAreaEditor.obj
 0001:00042aa0       ?getGhostAlwaysSet@Sim@@YAPAVSimSet@@XZ 00443aa0 f i missionAreaEditor.obj
 0001:00042ab0       ?getPosition@GuiControl@@QAEABVPoint2I@@XZ 00443ab0 f i missionAreaEditor.obj
 0001:00042ac0       ?getExtent@GuiControl@@QAEABVPoint2I@@XZ 00443ac0 f i missionAreaEditor.obj
 0001:00042ad0       ?missionAreaObjValid@MissionAreaEditor@@QAE_NXZ 00443ad0 f i missionAreaEditor.obj
 0001:00042ae0       ?getTypeMask@SceneObject@@QAEIXZ 00443ae0 f i missionAreaEditor.obj
 0001:00042af0       ?findObjects@Container@@QAEXIP6AXPAVSceneObject@@PAX@Z1@Z 00443af0 f i missionAreaEditor.obj
 0001:00042b40       ?getHeight@TerrainBlock@@QAEGII@Z 00443b40 f i missionAreaEditor.obj
 0001:00042b70       ?getHeightAddress@TerrainBlock@@QAEPAGII@Z 00443b70 f i missionAreaEditor.obj
 0001:00042ba0       ?getMaterial@TerrainBlock@@QAEPAUMaterial@1@II@Z 00443ba0 f i missionAreaEditor.obj
 0001:00042bc0       ?getBaseMaterial@TerrainBlock@@QAEEII@Z 00443bc0 f i missionAreaEditor.obj
 0001:00042bf0       ?getBaseMaterialAddress@TerrainBlock@@QAEPAEII@Z 00443bf0 f i missionAreaEditor.obj
 0001:00042c20       ?fixedToFloat@@YAMG@Z      00443c20 f i missionAreaEditor.obj
 0001:00042c40       ??1?$ConcreteClassRep@VMissionAreaEditor@@@@UAE@XZ 00443c40 f i missionAreaEditor.obj
 0001:00042c60       ?round_local@?A0xc908a522@@YAMM@Z 00443c60 f   missionAreaEditor.obj
 0001:00042cc0       ?clamp@?A0xc908a522@@YAHHH@Z 00443cc0 f   missionAreaEditor.obj
 0001:00042ce0       ??1GuiBitmapCtrl@@UAE@XZ   00443ce0 f i missionAreaEditor.obj
 0001:00042d30       ?getArea@MissionAreaEditor@@QAEABVRectI@@XZ 00443d30 f   missionAreaEditor.obj
 0001:00042d50       ?clampArea@MissionAreaEditor@@AAE_NAAVRectI@@@Z 00443d50 f   missionAreaEditor.obj
 0001:00042e30       ??0RectI@@QAE@ABV0@@Z      00443e30 f i missionAreaEditor.obj
 0001:00042e50       ?createTerrainBitmap@MissionAreaEditor@@AAEPAVGBitmap@@XZ 00443e50 f   missionAreaEditor.obj
 0001:00042f60       ?updateTerrainBitmap@MissionAreaEditor@@QAEXXZ 00443f60 f   missionAreaEditor.obj
 0001:00042fe0       ?onSleep@MissionAreaEditor@@UAEXXZ 00443fe0 f   missionAreaEditor.obj
 0001:00043090       ?onUpdate@MissionAreaEditor@@AAEXXZ 00444090 f   missionAreaEditor.obj
 0001:000430f0       ?parentResized@MissionAreaEditor@@UAEXABVPoint2I@@0@Z 004440f0 f   missionAreaEditor.obj
 0001:00043170       ?worldToScreen@MissionAreaEditor@@AAE?AVPoint2F@@ABV2@@Z 00444170 f   missionAreaEditor.obj
 0001:000431a0       ?screenToWorld@MissionAreaEditor@@AAE?AVPoint2F@@ABV2@@Z 004441a0 f   missionAreaEditor.obj
 0001:000431d0       ?getScreenMissionArea@MissionAreaEditor@@AAEXAAVRectI@@@Z 004441d0 f   missionAreaEditor.obj
 0001:000432c0       ?getScreenMissionArea@MissionAreaEditor@@AAEXAAVRectF@@@Z 004442c0 f   missionAreaEditor.obj
 0001:00043360       ?setupScreenTransform@MissionAreaEditor@@AAEXABVPoint2I@@@Z 00444360 f   missionAreaEditor.obj
 0001:00043420       ?drawNut@MissionAreaEditor@@AAEXABVPoint2I@@@Z 00444420 f   missionAreaEditor.obj
 0001:000434a0       ?drawNuts@MissionAreaEditor@@AAEXAAVRectI@@@Z 004444a0 f   missionAreaEditor.obj
 0001:00043590       ?onMouseUp@MissionAreaEditor@@UAEXABUGuiEvent@@@Z 00444590 f   missionAreaEditor.obj
 0001:000435e0       ?onMouseMove@MissionAreaEditor@@UAEXABUGuiEvent@@@Z 004445e0 f   missionAreaEditor.obj
 0001:00043630       ?setControlObjPos@MissionAreaEditor@@AAEXABVPoint2F@@@Z 00444630 f   missionAreaEditor.obj
 0001:00043790       ?increment@?$Vector@PAVSceneObject@@@@QAEXI@Z 00444790 f i missionAreaEditor.obj
 0001:000437c0       ??0MissionAreaEditor@@QAE@XZ 004447c0 f   missionAreaEditor.obj
 0001:00043930       ??_EMissionAreaEditor@@UAEPAXI@Z 00444930 f i missionAreaEditor.obj
 0001:00043930       ??_GMissionAreaEditor@@UAEPAXI@Z 00444930 f i missionAreaEditor.obj
 0001:00043950       ??1MissionAreaEditor@@UAE@XZ 00444950 f i missionAreaEditor.obj
 0001:000439d0       ?setArea@MissionAreaEditor@@QAEXABVRectI@@@Z 004449d0 f   missionAreaEditor.obj
 0001:00043a30       ?getTerrainObj@MissionAreaEditor@@QAEPAVTerrainBlock@@XZ 00444a30 f   missionAreaEditor.obj
 0001:00043a80       ?onWake@MissionAreaEditor@@UAE_NXZ 00444a80 f   missionAreaEditor.obj
 0001:00043b60       ?onMouseDown@MissionAreaEditor@@UAEXABUGuiEvent@@@Z 00444b60 f   missionAreaEditor.obj
 0001:00043c20       ?onMouseDragged@MissionAreaEditor@@UAEXABUGuiEvent@@@Z 00444c20 f   missionAreaEditor.obj
 0001:00044550       ?push_back@?$Vector@PAVSceneObject@@@@QAEXABQAVSceneObject@@@Z 00445550 f i missionAreaEditor.obj
 0001:000445d0       ?onRender@MissionAreaEditor@@UAEXVPoint2I@@ABVRectI@@@Z 004455d0 f   missionAreaEditor.obj
 0001:000451d0       ??0?$ConcreteClassRep@VMissionAreaEditor@@@@QAE@PBDHHH@Z 004461d0 f i missionAreaEditor.obj
 0001:00045250       ?init@?$ConcreteClassRep@VMissionAreaEditor@@@@UBEXXZ 00446250 f i missionAreaEditor.obj
 0001:00045280       ??_G?$ConcreteClassRep@VMissionAreaEditor@@@@UAEPAXI@Z 00446280 f i missionAreaEditor.obj
 0001:00045280       ??_E?$ConcreteClassRep@VMissionAreaEditor@@@@UAEPAXI@Z 00446280 f i missionAreaEditor.obj
 0001:000452a0       ?create@?$ConcreteClassRep@VMissionAreaEditor@@@@UBEPAVConsoleObject@@XZ 004462a0 f i missionAreaEditor.obj
 0001:000452d0       ??1Heightfield@@QAE@XZ     004462d0 f   terraformer.obj
 0001:00045300       ??4Heightfield@@QAEAAU0@ABU0@@Z 00446300 f   terraformer.obj
 0001:00045340       ??_GHeightfield@@QAEPAXI@Z 00446340 f i terraformer.obj
 0001:00045390       ?setTerrainInfo@Terraformer@@QAEXIMMMM@Z 00446390 f   terraformer.obj
 0001:000453e0       ?mCos@@YANN@Z              004463e0 f i terraformer.obj
 0001:00045530       ??0?$Resource@VTerrainFile@@@@QAE@XZ 00446530 f i terraformer.obj
 0001:00045540       ??B?$Resource@VTerrainFile@@@@QBE_NXZ 00446540 f i terraformer.obj
 0001:00045560       ??C?$Resource@VTerrainFile@@@@QAEPAVTerrainFile@@XZ 00446560 f i terraformer.obj
 0001:00045570       ?_unlock@?$Resource@VTerrainFile@@@@AAEXXZ 00446570 f i terraformer.obj
 0001:00045590       ?unlock@?$Resource@VTerrainFile@@@@QAEXXZ 00446590 f i terraformer.obj
 0001:000455b0       ??0?$Vector@M@@QAE@PBDI@Z  004465b0 f i terraformer.obj
 0001:000455c0       ??1?$Vector@M@@QAE@XZ      004465c0 f i terraformer.obj
 0001:000455d0       ??$findObject@VGuiTerrPreviewCtrl@@@Sim@@YA_NPBDAAPAVGuiTerrPreviewCtrl@@@Z 004465d0 f i terraformer.obj
 0001:00045610       ?interpolate@ColorI@@QAEXABV1@0M@Z 00446610 f i terraformer.obj
 0001:000456f0       ?getHeight@TerrainFile@@QAEGII@Z 004466f0 f i terraformer.obj
 0001:00045710       ?floatToFixed@@YAGM@Z      00446710 f i terraformer.obj
 0001:00045720       ??0Filter@@QAE@XZ          00446720 f i terraformer.obj
 0001:00045730       ?offset@Heightfield@@QAEHHH@Z 00446730 f i terraformer.obj
 0001:00045740       ?val@Heightfield@@QAEAAMH@Z 00446740 f i terraformer.obj
 0001:00045750       ?val@Heightfield@@QAEAAMHH@Z 00446750 f i terraformer.obj
 0001:00045770       ?wrap@Terraformer@@AAEHH@Z 00446770 f i terraformer.obj
 0001:00045780       ?block@Heightfield@@QAEXHHPAM@Z 00446780 f i terraformer.obj
 0001:00045830       ??0Heightfield@@QAE@II@Z   00446830 f   terraformer.obj
 0001:00045b40       ??1?$VectorPtr@PAUHeightfield@@@@QAE@XZ 00446b40 f i terraformer.obj
 0001:00045b50       ?setShift@Terraformer@@QAEXABVPoint2F@@@Z 00446b50 f   terraformer.obj
 0001:00045b70       ?setCameraPosition@Terraformer@@QAEXABVPoint3F@@@Z 00446b70 f   terraformer.obj
 0001:00045c90       ?getCameraPosition@Terraformer@@QAE?AVPoint3F@@XZ 00446c90 f   terraformer.obj
 0001:00045e30       ??1Filter@@QAE@XZ          00446e30 f i terraformer.obj
 0001:00046100       ??1?$Resource@VTerrainFile@@@@QAE@XZ 00447100 f i terraformer.obj
 0001:00046120       ??4?$Resource@VTerrainFile@@@@QAEAAV0@PAVResourceObject@@@Z 00447120 f i terraformer.obj
 0001:00046150       ?begin@?$VectorPtr@PAUHeightfield@@@@QAEPAPAUHeightfield@@XZ 00447150 f i terraformer.obj
 0001:00046160       ?end@?$VectorPtr@PAUHeightfield@@@@QAEPAPAUHeightfield@@XZ 00447160 f i terraformer.obj
 0001:00046170       ?last@?$VectorPtr@PAUHeightfield@@@@QAEAAPAUHeightfield@@XZ 00447170 f i terraformer.obj
 0001:00046180       ??1Terraformer@@UAE@XZ     00447180 f   terraformer.obj
 0001:000463d0       ??_ETerraformer@@UAEPAXI@Z 004473d0 f i terraformer.obj
 0001:000463d0       ??_GTerraformer@@UAEPAXI@Z 004473d0 f i terraformer.obj
 0001:000463f0       ??0?$VectorPtr@PAUHeightfield@@@@QAE@XZ 004473f0 f i terraformer.obj
 0001:00046400       ?push_back@?$VectorPtr@PAUHeightfield@@@@QAEXABQAUHeightfield@@@Z 00447400 f i terraformer.obj
 0001:00046440       ??0Terraformer@@QAE@XZ     00447440 f   terraformer.obj
 0001:00046500       ?getRegister@Terraformer@@AAEPAUHeightfield@@I@Z 00447500 f   terraformer.obj
 0001:000465b0       ?getScratch@Terraformer@@AAEPAUHeightfield@@I@Z 004475b0 f   terraformer.obj
 0001:00046660       ?getMinMax@Terraformer@@AAEXIPAM0@Z 00447660 f   terraformer.obj
 0001:000466d0       ?clearRegister@Terraformer@@QAEXI@Z 004476d0 f   terraformer.obj
 0001:00046730       ?getScaledGreyscale@Terraformer@@QAEPAVGBitmap@@I@Z 00447730 f   terraformer.obj
 0001:00046950       ?getGreyscale@Terraformer@@QAEPAVGBitmap@@I@Z 00447950 f   terraformer.obj
 0001:00046a40       ?saveGreyscale@Terraformer@@QAE_NIPBD@Z 00447a40 f   terraformer.obj
 0001:00046b10       ?loadGreyscale@Terraformer@@QAE_NIPBD@Z 00447b10 f   terraformer.obj
 0001:00046bf0       ?saveHeightField@Terraformer@@QAE_NIPBD@Z 00447bf0 f   terraformer.obj
 0001:00046db0       ?setTerrain@Terraformer@@QAE_NI@Z 00447db0 f   terraformer.obj
 0001:00046fa0       ?scale@Terraformer@@QAE_NIIMM@Z 00447fa0 f   terraformer.obj
 0001:00047040       ?smooth@Terraformer@@QAE_NIIMI@Z 00448040 f   terraformer.obj
 0001:00047260       ?smoothWater@Terraformer@@QAE_NIIMI@Z 00448260 f   terraformer.obj
 0001:000474a0       ?smoothRidges@Terraformer@@QAE_NIIMIM@Z 004484a0 f   terraformer.obj
 0001:00047780       ?blend@Terraformer@@QAE_NIIIMW4BlendOperation@1@@Z 00448780 f   terraformer.obj
 0001:00047900       ?filter@Terraformer@@QAE_NIIABVFilter@@@Z 00448900 f   terraformer.obj
 0001:00047990       ?shift@Terraformer@@QAE_NI@Z 00448990 f   terraformer.obj
 0001:00047ad0       ?sinus@Terraformer@@QAE_NIABVFilter@@I@Z 00448ad0 f   terraformer.obj
 0001:00047cd0       ?setHeight@Terraformer@@QAE_NIM@Z 00448cd0 f   terraformer.obj
 0001:00047d20       ?terrainData@Terraformer@@QAE_NI@Z 00448d20 f   terraformer.obj
 0001:00047f90       ?terrainFile@Terraformer@@QAE_NIPBD@Z 00448f90 f   terraformer.obj
 0001:00048250       ?fBm@Terraformer@@QAE_NIIMMI@Z 00449250 f   terraformer.obj
 0001:000482b0       ?rigidMultiFractal@Terraformer@@QAE_NIIMMI@Z 004492b0 f   terraformer.obj
 0001:00048310       ?canyonFractal@Terraformer@@QAE_NIIMI@Z 00449310 f   terraformer.obj
 0001:00048430       ?turbulence@Terraformer@@QAE_NIIMM@Z 00449430 f   terraformer.obj
 0001:000485e0       ?erodeThermal@Terraformer@@QAE_NIIMMI@Z 004495e0 f   terraformer.obj
 0001:00048b40       ?erodeHydraulic@Terraformer@@QAE_NIIIABVFilter@@@Z 00449b40 f   terraformer.obj
 0001:00049d70       ??0Noise2D@@QAE@XZ         0044ad70 f   terraformerNoise.obj
 0001:00049d90       ??1Noise2D@@QAE@XZ         0044ad90 f   terraformerNoise.obj
 0001:00049da0       ?getSeed@Noise2D@@QAEIXZ   0044ada0 f   terraformerNoise.obj
 0001:00049db0       ?lerp@Noise2D@@AAEMMMM@Z   0044adb0 f i terraformerNoise.obj
 0001:00049dd0       ?curve@Noise2D@@AAEMM@Z    0044add0 f i terraformerNoise.obj
 0001:00049df0       ?setup@Noise2D@@AAEXMAAH0AAM1@Z 0044adf0 f i terraformerNoise.obj
 0001:00049e40       ?dot@Noise2D@@AAEMPBMMM@Z  0044ae40 f i terraformerNoise.obj
 0001:00049e60       ?getValue@Noise2D@@QAEMMMH@Z 0044ae60 f   terraformerNoise.obj
 0001:00049fb0       _powf                      0044afb0 f i terraformerNoise.obj
 0001:00049fc0       ?pow@@YAMMM@Z              0044afc0 f i terraformerNoise.obj
 0001:00049fd0       ?mPow@@YAMMM@Z             0044afd0 f i terraformerNoise.obj
 0001:00049fe0       ?randI@MRandomGenerator@@QAEHHH@Z 0044afe0 f i terraformerNoise.obj
 0001:0004a000       ?randF@MRandomGenerator@@QAEMMM@Z 0044b000 f i terraformerNoise.obj
 0001:0004a020       ?randI@MRandomLCG@@QAEHHH@Z 0044b020 f i terraformerNoise.obj
 0001:0004a040       ?normalize@Noise2D@@AAEXQAM@Z 0044b040 f   terraformerNoise.obj
 0001:0004a070       ?setSeed@Noise2D@@QAEXI@Z  0044b070 f   terraformerNoise.obj
 0001:0004a180       ?fBm@Noise2D@@QAEXPAUHeightfield@@IIMM@Z 0044b180 f   terraformerNoise.obj
 0001:0004a440       ?rigidMultiFractal@Noise2D@@QAEXPAUHeightfield@@0IIMM@Z 0044b440 f   terraformerNoise.obj
 0001:0004a8a0       ?turbulence@Noise2D@@QAEMMMM@Z 0044b8a0 f   terraformerNoise.obj
 0001:0004a920       ?lerp@@YAMMMM@Z            0044b920 f i terraformerTexture.obj
 0001:0004a940       ??0?$Resource@VMaterialList@@@@QAE@PAVResourceObject@@@Z 0044b940 f i terraformerTexture.obj
 0001:0004a950       ??C?$Resource@VMaterialList@@@@QAEPAVMaterialList@@XZ 0044b950 f i terraformerTexture.obj
 0001:0004a960       ??1?$Vector@H@@QAE@XZ      0044b960 f i terraformerTexture.obj
 0001:0004a970       ?size@?$Vector@H@@QBEHXZ   0044b970 f i terraformerTexture.obj
 0001:0004a980       ??A?$Vector@H@@QAEAAHI@Z   0044b980 f i terraformerTexture.obj
 0001:0004a990       ?unlock@?$Resource@VMaterialList@@@@QAEXXZ 0044b990 f i terraformerTexture.obj
 0001:0004a9b0       ??XColorI@@QAEAAV0@M@Z     0044b9b0 f i terraformerTexture.obj
 0001:0004aa40       ?getMaterial@MaterialList@@QAEAAVTextureHandle@@I@Z 0044ba40 f i terraformerTexture.obj
 0001:0004aa50       ?getMaterialAlphaMap@TerrainBlock@@QAEPAEI@Z 0044ba50 f i terraformerTexture.obj
 0001:0004aad0       ?getLocalClientConnection@NetConnection@@SAPAV1@XZ 0044bad0 f i terraformerTexture.obj
 0001:0004aaf0       ?getAlpha@@YAMIIPAUHeightfield@@@Z 0044baf0 f   terraformerTexture.obj
 0001:0004ab90       ??1?$VectorPtr@PAVGBitmap@@@@QAE@XZ 0044bb90 f i terraformerTexture.obj
 0001:0004aba0       ?maskFBm@Terraformer@@QAE_NIIMIABVFilter@@_NI@Z 0044bba0 f   terraformerTexture.obj
 0001:0004ac90       ?maskHeight@Terraformer@@QAE_NIIABVFilter@@_NI@Z 0044bc90 f   terraformerTexture.obj
 0001:0004ad50       ?maskSlope@Terraformer@@QAE_NIIABVFilter@@_NI@Z 0044bd50 f   terraformerTexture.obj
 0001:0004afc0       ?maskWater@Terraformer@@QAE_NII_NI@Z 0044bfc0 f   terraformerTexture.obj
 0001:0004b090       ??A?$Vector@H@@QAEAAHH@Z   0044c090 f i terraformerTexture.obj
 0001:0004b0a0       ??1?$Resource@VMaterialList@@@@QAE@XZ 0044c0a0 f i terraformerTexture.obj
 0001:0004b0c0       ??A?$VectorPtr@PAUHeightfield@@@@QAEAAPAUHeightfield@@I@Z 0044c0c0 f i terraformerTexture.obj
 0001:0004b0d0       ?begin@?$VectorPtr@PAVGBitmap@@@@QAEPAPAVGBitmap@@XZ 0044c0d0 f i terraformerTexture.obj
 0001:0004b0e0       ?end@?$VectorPtr@PAVGBitmap@@@@QAEPAPAVGBitmap@@XZ 0044c0e0 f i terraformerTexture.obj
 0001:0004b0f0       ?reserve@?$Vector@H@@QAEXI@Z 0044c0f0 f i terraformerTexture.obj
 0001:0004b120       ?merge@@YAPAVGBitmap@@AAV?$VectorPtr@PAUHeightfield@@@@AAV?$VectorPtr@PAVGBitmap@@@@@Z 0044c120 f   terraformerTexture.obj
 0001:0004b330       ??0?$Vector@H@@QAE@I@Z     0044c330 f i terraformerTexture.obj
 0001:0004b380       ?push_back@?$VectorPtr@PAD@@QAEXABQAD@Z 0044c380 f i terraformerTexture.obj
 0001:0004b3c0       ??0?$VectorPtr@PAVGBitmap@@@@QAE@XZ 0044c3c0 f i terraformerTexture.obj
 0001:0004b3d0       ?push_back@?$VectorPtr@PAVGBitmap@@@@QAEXABQAVGBitmap@@@Z 0044c3d0 f i terraformerTexture.obj
 0001:0004b410       ?setMaterials@Terraformer@@QAE_NPBD0@Z 0044c410 f   terraformerTexture.obj
 0001:0004bad0       ?mergeMasks@Terraformer@@QAE_NPBDI@Z 0044cad0 f   terraformerTexture.obj
 0001:0004bcc0       ?mCross@@YAXPBM0PAM@Z      0044ccc0 f i terrainActions.obj
 0001:0004bd00       ??0?$SimObjectPtr@VGuiCursor@@@@QAE@XZ 0044cd00 f i terrainActions.obj
 0001:0004bd10       ??1?$SimObjectPtr@VGuiCursor@@@@QAE@XZ 0044cd10 f i terrainActions.obj
 0001:0004bd20       ??4?$SimObjectPtr@VGuiCursor@@@@QAEAAV0@PAVGuiCursor@@@Z 0044cd20 f i terrainActions.obj
 0001:0004bd50       ?size@?$Vector@VGridInfo@@@@QBEHXZ 0044cd50 f i terrainActions.obj
 0001:0004bd60       ??A?$Vector@VGridInfo@@@@QAEAAVGridInfo@@I@Z 0044cd60 f i terrainActions.obj
 0001:0004bd80       ?len@Point2F@@QBEMXZ       0044cd80 f i terrainActions.obj
 0001:0004bda0       ?resize@?$Vector@VGridInfo@@@@IAE_NI@Z 0044cda0 f i terrainActions.obj
 0001:0004bdc0       ?intersect@PlaneF@@QBEMABVPoint3F@@0@Z 0044cdc0 f i terrainActions.obj
 0001:0004be30       ?getSize@Brush@@QAE?AVPoint2I@@XZ 0044ce30 f i terrainActions.obj
 0001:0004be50       ?lockSelection@TerrainEditor@@QAEX_N@Z 0044ce50 f i terrainActions.obj
 0001:0004be60       ?getUndoSel@TerrainEditor@@QAEPAVSelection@@XZ 0044ce60 f i terrainActions.obj
 0001:0004be70       ?getCurrentSel@TerrainEditor@@QAEPAVSelection@@XZ 0044ce70 f i terrainActions.obj
 0001:0004be80       ?getTerrainBlock@TerrainEditor@@QAEPAVTerrainBlock@@XZ 0044ce80 f i terrainActions.obj
 0001:0004be90       ?setMissionDirty@TerrainEditor@@QAEXXZ 0044ce90 f i terrainActions.obj
 0001:0004bea0       ?setGridInfoHeight@TerrainEditor@@QAEXABVGridInfo@@@Z 0044cea0 f i terrainActions.obj
 0001:0004bec0       ??1TerrainAction@@UAE@XZ   0044cec0 f i terrainActions.obj
 0001:0004bed0       ??0TerrainAction@@QAE@PAVTerrainEditor@@@Z 0044ced0 f i terrainActions.obj
 0001:0004bef0       ?useMouseBrush@TerrainAction@@UAE_NXZ 0044cef0 f i terrainActions.obj
 0001:0004bf00       ??_ETerrainAction@@UAEPAXI@Z 0044cf00 f i terrainActions.obj
 0001:0004bf00       ??_GTerrainAction@@UAEPAXI@Z 0044cf00 f i terrainActions.obj
 0001:0004bf20       ??0BrushAdjustHeightAction@@QAE@PAVTerrainEditor@@@Z 0044cf20 f i terrainActions.obj
 0001:0004bf40       ?getName@BrushAdjustHeightAction@@UAEPBDXZ 0044cf40 f i terrainActions.obj
 0001:0004bf50       ??1BrushAdjustHeightAction@@UAE@XZ 0044cf50 f i terrainActions.obj
 0001:0004bf60       ?setCursorPos@GuiCanvas@@QAEXABVPoint2I@@@Z 0044cf60 f i terrainActions.obj
 0001:0004bf80       ??0GridInfo@@QAE@XZ        0044cf80 f i terrainActions.obj
 0001:0004bf90       ?process@OutlineSelectAction@@UAEXPAVSelection@@ABUGui3DMouseEvent@@_NW4Type@TerrainAction@@@Z 0044cf90 f   terrainActions.obj
 0001:0004bfd0       ?process@PaintMaterialAction@@UAEXPAVSelection@@ABUGui3DMouseEvent@@_NW4Type@TerrainAction@@@Z 0044cfd0 f   terrainActions.obj
 0001:0004c140       ?process@RaiseHeightAction@@UAEXPAVSelection@@ABUGui3DMouseEvent@@_NW4Type@TerrainAction@@@Z 0044d140 f   terrainActions.obj
 0001:0004c260       ?process@LowerHeightAction@@UAEXPAVSelection@@ABUGui3DMouseEvent@@_NW4Type@TerrainAction@@@Z 0044d260 f   terrainActions.obj
 0001:0004c390       ?process@SetHeightAction@@UAEXPAVSelection@@ABUGui3DMouseEvent@@_NW4Type@TerrainAction@@@Z 0044d390 f   terrainActions.obj
 0001:0004c400       ?process@SetEmptyAction@@UAEXPAVSelection@@ABUGui3DMouseEvent@@_NW4Type@TerrainAction@@@Z 0044d400 f   terrainActions.obj
 0001:0004c480       ?process@ClearEmptyAction@@UAEXPAVSelection@@ABUGui3DMouseEvent@@_NW4Type@TerrainAction@@@Z 0044d480 f   terrainActions.obj
 0001:0004c500       ?process@SetModifiedAction@@UAEXPAVSelection@@ABUGui3DMouseEvent@@_NW4Type@TerrainAction@@@Z 0044d500 f   terrainActions.obj
 0001:0004c570       ?process@ClearModifiedAction@@UAEXPAVSelection@@ABUGui3DMouseEvent@@_NW4Type@TerrainAction@@@Z 0044d570 f   terrainActions.obj
 0001:0004c5e0       ?process@ScaleHeightAction@@UAEXPAVSelection@@ABUGui3DMouseEvent@@_NW4Type@TerrainAction@@@Z 0044d5e0 f   terrainActions.obj
 0001:0004c650       ?process@BrushAdjustHeightAction@@UAEXPAVSelection@@ABUGui3DMouseEvent@@_NW4Type@TerrainAction@@@Z 0044d650 f   terrainActions.obj
 0001:0004c970       ??0AdjustHeightAction@@QAE@PAVTerrainEditor@@@Z 0044d970 f   terrainActions.obj
 0001:0004c9e0       ?getName@AdjustHeightAction@@UAEPBDXZ 0044d9e0 f i terrainActions.obj
 0001:0004c9f0       ?useMouseBrush@AdjustHeightAction@@UAE_NXZ 0044d9f0 f i terrainActions.obj
 0001:0004ca00       ?process@AdjustHeightAction@@UAEXPAVSelection@@ABUGui3DMouseEvent@@_NW4Type@TerrainAction@@@Z 0044da00 f   terrainActions.obj
 0001:0004ca20       ?process@FlattenHeightAction@@UAEXPAVSelection@@ABUGui3DMouseEvent@@_NW4Type@TerrainAction@@@Z 0044da20 f   terrainActions.obj
 0001:0004cb80       ?process@SmoothHeightAction@@UAEXPAVSelection@@ABUGui3DMouseEvent@@_NW4Type@TerrainAction@@@Z 0044db80 f   terrainActions.obj
 0001:0004cc80       ?process@SetMaterialGroupAction@@UAEXPAVSelection@@ABUGui3DMouseEvent@@_NW4Type@TerrainAction@@@Z 0044dc80 f   terrainActions.obj
 0001:0004cd00       ??4?$Vector@H@@QAEAAV0@ABV0@@Z 0044dd00 f i terrainActions.obj
 0001:0004cd50       ??4?$Vector@VGridInfo@@@@QAEAAV0@ABV0@@Z 0044dd50 f i terrainActions.obj
 0001:0004cda0       ??_GBrushAdjustHeightAction@@UAEPAXI@Z 0044dda0 f i terrainActions.obj
 0001:0004cda0       ??_EBrushAdjustHeightAction@@UAEPAXI@Z 0044dda0 f i terrainActions.obj
 0001:0004cdc0       ?process@SelectAction@@UAEXPAVSelection@@ABUGui3DMouseEvent@@_NW4Type@TerrainAction@@@Z 0044ddc0 f   terrainActions.obj
 0001:0004cf10       ??4Selection@@QAEAAV0@ABV0@@Z 0044df10 f i terrainActions.obj
 0001:0004cfc0       ??_EAdjustHeightAction@@UAEPAXI@Z 0044dfc0 f i terrainActions.obj
 0001:0004cfc0       ??_GAdjustHeightAction@@UAEPAXI@Z 0044dfc0 f i terrainActions.obj
 0001:0004cfe0       ??1AdjustHeightAction@@UAE@XZ 0044dfe0 f i terrainActions.obj
 0001:0004d030       ?process@SoftSelectAction@@UAEXPAVSelection@@ABUGui3DMouseEvent@@_NW4Type@TerrainAction@@@Z 0044e030 f   terrainActions.obj
 0001:0004d340       ?getClassRep@TerrainEditor@@UBEPAVAbstractClassRep@@XZ 0044e340 f   terrainEditor.obj
 0001:0004d350       ?getStaticClassRep@TerrainEditor@@SAPAVAbstractClassRep@@XZ 0044e350 f   terrainEditor.obj
 0001:0004d360       ?getParentStaticClassRep@TerrainEditor@@SAPAVAbstractClassRep@@XZ 0044e360 f   terrainEditor.obj
 0001:0004d370       ?getPosition@Brush@@QAEABVPoint2I@@XZ 0044e370 f   terrainEditor.obj
 0001:0004d380       ?update@Brush@@QAEXXZ      0044e380 f   terrainEditor.obj
 0001:0004d390       _fmodf                     0044e390 f i terrainEditor.obj
 0001:0004d3a0       ?fmod@@YAMMM@Z             0044e3a0 f i terrainEditor.obj
 0001:0004d3b0       ?onAdd@TerrainEditor@@UAE_NXZ 0044e3b0 f   terrainEditor.obj
 0001:0004d400       ?onDeleteNotify@TerrainEditor@@UAEXPAVSimObject@@@Z 0044e400 f   terrainEditor.obj
 0001:0004d440       ?setCursor@TerrainEditor@@QAEXPAVGuiCursor@@@Z 0044e440 f   terrainEditor.obj
 0001:0004d460       ?gridToCenter@TerrainEditor@@QAE_NABVPoint2I@@AAV2@@Z 0044e460 f   terrainEditor.obj
 0001:0004d4a0       ?mFmod@@YAMMM@Z            0044e4a0 f i terrainEditor.obj
 0001:0004d4b0       ??8Point2I@@QBE_NABV0@@Z   0044e4b0 f i terrainEditor.obj
 0001:0004d4d0       ??9Point2I@@QBE_NABV0@@Z   0044e4d0 f i terrainEditor.obj
 0001:0004d510       ?rebuild@TerrainEditor@@AAEXXZ 0044e510 f   terrainEditor.obj
 0001:0004d540       ?getCursor@TerrainEditor@@UAEXAAPAVGuiCursor@@AA_NABUGuiEvent@@@Z 0044e540 f   terrainEditor.obj
 0001:0004d560       ?attachTerrain@TerrainEditor@@QAEXPAVTerrainBlock@@@Z 0044e560 f   terrainEditor.obj
 0001:0004d570       ?setBrushSize@TerrainEditor@@QAEXHH@Z 0044e570 f   terrainEditor.obj
 0001:0004d5a0       ?getBrushPos@TerrainEditor@@QAEPBDXZ 0044e5a0 f   terrainEditor.obj
 0001:0004d5e0       ?getCurrentAction@TerrainEditor@@QAEPBDXZ 0044e5e0 f   terrainEditor.obj
 0001:0004d5f0       ?interpolate@Point3F@@QAEXABV1@0M@Z 0044e5f0 f i terrainEditor.obj
 0001:0004d6c0       ?initPersistFields@TerrainEditor@@SAXXZ 0044e6c0 f   terrainEditor.obj
 0001:0004d8e0       ?interpolate@ColorF@@QAEXABV1@0M@Z 0044e8e0 f i terrainEditor.obj
 0001:0004d940       ?_lock@?$Resource@VTerrainFile@@@@AAEXXZ 0044e940 f i terrainEditor.obj
 0001:0004d950       ??0?$Vector@VGridInfo@@@@QAE@PBDI@Z 0044e950 f i terrainEditor.obj
 0001:0004d960       ??1?$Vector@VGridInfo@@@@QAE@XZ 0044e960 f i terrainEditor.obj
 0001:0004d970       ??A?$Vector@VGridInfo@@@@QBEABVGridInfo@@I@Z 0044e970 f i terrainEditor.obj
 0001:0004d990       ?clear@?$Vector@VGridInfo@@@@QAEXXZ 0044e990 f i terrainEditor.obj
 0001:0004d9a0       ??1?$Vector@PAVTerrainAction@@@@QAE@XZ 0044e9a0 f i terrainEditor.obj
 0001:0004d9b0       ?size@?$Vector@PAVTerrainAction@@@@QBEHXZ 0044e9b0 f i terrainEditor.obj
 0001:0004d9c0       ??A?$Vector@PAVTerrainAction@@@@QAEAAPAVTerrainAction@@I@Z 0044e9c0 f i terrainEditor.obj
 0001:0004d9d0       ??1?$Vector@PAVSelection@@@@QAE@XZ 0044e9d0 f i terrainEditor.obj
 0001:0004d9e0       ?size@?$Vector@PAVSelection@@@@QBEHXZ 0044e9e0 f i terrainEditor.obj
 0001:0004d9f0       ??A?$Vector@PAVSelection@@@@QAEAAPAVSelection@@I@Z 0044e9f0 f i terrainEditor.obj
 0001:0004da00       ?clear@?$Vector@PAVSelection@@@@QAEXXZ 0044ea00 f i terrainEditor.obj
 0001:0004da10       ??1?$Vector@PAUBaseMaterialInfo@@@@QAE@XZ 0044ea10 f i terrainEditor.obj
 0001:0004da20       ?size@?$Vector@PAUBaseMaterialInfo@@@@QBEHXZ 0044ea20 f i terrainEditor.obj
 0001:0004da30       ??A?$Vector@PAUBaseMaterialInfo@@@@QAEAAPAUBaseMaterialInfo@@I@Z 0044ea30 f i terrainEditor.obj
 0001:0004da40       ?size@?$Vector@UZone@Interior@@@@QBEHXZ 0044ea40 f i terrainEditor.obj
 0001:0004da50       ??1?$Vector@UTerrVertex@@@@QAE@XZ 0044ea50 f i terrainEditor.obj
 0001:0004da60       ?size@?$Vector@UTerrVertex@@@@QBEHXZ 0044ea60 f i terrainEditor.obj
 0001:0004da70       ??A?$Vector@UTerrVertex@@@@QAEAAUTerrVertex@@I@Z 0044ea70 f i terrainEditor.obj
 0001:0004da80       ??1?$Vector@PAVInteriorInstance@@@@QAE@XZ 0044ea80 f i terrainEditor.obj
 0001:0004da90       ?size@?$Vector@PAVInteriorInstance@@@@QBEHXZ 0044ea90 f i terrainEditor.obj
 0001:0004daa0       ??A?$Vector@PAVInteriorInstance@@@@QAEAAPAVInteriorInstance@@I@Z 0044eaa0 f i terrainEditor.obj
 0001:0004dab0       ??0Box3F@@QAE@XZ           0044eab0 f i terrainEditor.obj
 0001:0004dac0       ?decrement@?$Vector@VGridInfo@@@@QAEXI@Z 0044eac0 f i terrainEditor.obj
 0001:0004dae0       ?begin@?$Vector@PAVSelection@@@@QAEPAPAVSelection@@XZ 0044eae0 f i terrainEditor.obj
 0001:0004daf0       ?decrement@?$Vector@PAVSelection@@@@QAEXI@Z 0044eaf0 f i terrainEditor.obj
 0001:0004db10       ?begin@?$Vector@PAUBaseMaterialInfo@@@@QAEPAPAUBaseMaterialInfo@@XZ 0044eb10 f i terrainEditor.obj
 0001:0004db20       ?resize@?$Vector@UTerrVertex@@@@IAE_NI@Z 0044eb20 f i terrainEditor.obj
 0001:0004db40       ?reserve@?$Vector@UTerrVertex@@@@QAEXI@Z 0044eb40 f i terrainEditor.obj
 0001:0004db70       ?resize@?$Vector@PAVTerrainAction@@@@IAE_NI@Z 0044eb70 f i terrainEditor.obj
 0001:0004db90       ?resize@?$Vector@PAVSelection@@@@IAE_NI@Z 0044eb90 f i terrainEditor.obj
 0001:0004dbb0       ?increment@?$Vector@PAVSelection@@@@QAEXI@Z 0044ebb0 f i terrainEditor.obj
 0001:0004dbe0       ?resize@?$Vector@PAUBaseMaterialInfo@@@@IAE_NI@Z 0044ebe0 f i terrainEditor.obj
 0001:0004dc00       ?increment@?$Vector@PAUBaseMaterialInfo@@@@QAEXI@Z 0044ec00 f i terrainEditor.obj
 0001:0004dc30       ?decrement@?$Vector@PAUBaseMaterialInfo@@@@QAEXI@Z 0044ec30 f i terrainEditor.obj
 0001:0004dc50       ?resize@?$Vector@PAVInteriorInstance@@@@IAE_NI@Z 0044ec50 f i terrainEditor.obj
 0001:0004dc70       ?isServerObject@NetObject@@QBE_NXZ 0044ec70 f i terrainEditor.obj
 0001:0004dc80       ?getWorldTransform@SceneObject@@QBEABVMatrixF@@XZ 0044ec80 f i terrainEditor.obj
 0001:0004dc90       ?resetCurrentSel@TerrainEditor@@QAEXXZ 0044ec90 f i terrainEditor.obj
 0001:0004dca0       ?getBrushSize@TerrainEditor@@QAE?AVPoint2I@@XZ 0044eca0 f i terrainEditor.obj
 0001:0004dcc0       ?terrainBlockValid@TerrainEditor@@QAE_NXZ 0044ecc0 f i terrainEditor.obj
 0001:0004dcd0       ?setDirty@TerrainEditor@@QAEXXZ 0044ecd0 f i terrainEditor.obj
 0001:0004dce0       ??0SelectAction@@QAE@PAVTerrainEditor@@@Z 0044ece0 f i terrainEditor.obj
 0001:0004dd00       ?getName@SelectAction@@UAEPBDXZ 0044ed00 f i terrainEditor.obj
 0001:0004dd10       ??0PaintMaterialAction@@QAE@PAVTerrainEditor@@@Z 0044ed10 f i terrainEditor.obj
 0001:0004dd30       ?getName@PaintMaterialAction@@UAEPBDXZ 0044ed30 f i terrainEditor.obj
 0001:0004dd40       ??0RaiseHeightAction@@QAE@PAVTerrainEditor@@@Z 0044ed40 f i terrainEditor.obj
 0001:0004dd60       ?getName@RaiseHeightAction@@UAEPBDXZ 0044ed60 f i terrainEditor.obj
 0001:0004dd70       ??0LowerHeightAction@@QAE@PAVTerrainEditor@@@Z 0044ed70 f i terrainEditor.obj
 0001:0004dd90       ?getName@LowerHeightAction@@UAEPBDXZ 0044ed90 f i terrainEditor.obj
 0001:0004dda0       ??0SetHeightAction@@QAE@PAVTerrainEditor@@@Z 0044eda0 f i terrainEditor.obj
 0001:0004ddc0       ?getName@SetHeightAction@@UAEPBDXZ 0044edc0 f i terrainEditor.obj
 0001:0004ddd0       ??0SetEmptyAction@@QAE@PAVTerrainEditor@@@Z 0044edd0 f i terrainEditor.obj
 0001:0004ddf0       ?getName@SetEmptyAction@@UAEPBDXZ 0044edf0 f i terrainEditor.obj
 0001:0004de00       ??0ClearEmptyAction@@QAE@PAVTerrainEditor@@@Z 0044ee00 f i terrainEditor.obj
 0001:0004de20       ?getName@ClearEmptyAction@@UAEPBDXZ 0044ee20 f i terrainEditor.obj
 0001:0004de30       ??0SetModifiedAction@@QAE@PAVTerrainEditor@@@Z 0044ee30 f i terrainEditor.obj
 0001:0004de50       ?getName@SetModifiedAction@@UAEPBDXZ 0044ee50 f i terrainEditor.obj
 0001:0004de60       ??0ClearModifiedAction@@QAE@PAVTerrainEditor@@@Z 0044ee60 f i terrainEditor.obj
 0001:0004de80       ?getName@ClearModifiedAction@@UAEPBDXZ 0044ee80 f i terrainEditor.obj
 0001:0004de90       ??0ScaleHeightAction@@QAE@PAVTerrainEditor@@@Z 0044ee90 f i terrainEditor.obj
 0001:0004deb0       ?getName@ScaleHeightAction@@UAEPBDXZ 0044eeb0 f i terrainEditor.obj
 0001:0004dec0       ??0FlattenHeightAction@@QAE@PAVTerrainEditor@@@Z 0044eec0 f i terrainEditor.obj
 0001:0004dee0       ?getName@FlattenHeightAction@@UAEPBDXZ 0044eee0 f i terrainEditor.obj
 0001:0004def0       ??0SmoothHeightAction@@QAE@PAVTerrainEditor@@@Z 0044eef0 f i terrainEditor.obj
 0001:0004df10       ?getName@SmoothHeightAction@@UAEPBDXZ 0044ef10 f i terrainEditor.obj
 0001:0004df20       ??0SetMaterialGroupAction@@QAE@PAVTerrainEditor@@@Z 0044ef20 f i terrainEditor.obj
 0001:0004df40       ?getName@SetMaterialGroupAction@@UAEPBDXZ 0044ef40 f i terrainEditor.obj
 0001:0004df50       ?getNumZones@Interior@@QBEHXZ 0044ef50 f i terrainEditor.obj
 0001:0004df60       ??1Selection@@UAE@XZ       0044ef60 f   terrainEditor.obj
 0001:0004dfc0       ?reset@Selection@@QAEXXZ   0044efc0 f   terrainEditor.obj
 0001:0004dff0       ?getHashIndex@Selection@@AAEIABVPoint2I@@@Z 0044eff0 f   terrainEditor.obj
 0001:0004e060       ?getAvgHeight@Selection@@QAEMXZ 0044f060 f   terrainEditor.obj
 0001:0004e0e0       ?setPosition@Brush@@QAEXABVPoint2I@@@Z 0044f0e0 f   terrainEditor.obj
 0001:0004e100       ?rebuild@SelectionBrush@@UAEXXZ 0044f100 f   terrainEditor.obj
 0001:0004e130       ?lookupAction@TerrainEditor@@QAEPAVTerrainAction@@PBD@Z 0044f130 f   terrainEditor.obj
 0001:0004e190       ?getClientTerrain@TerrainEditor@@QAEPAVTerrainBlock@@XZ 0044f190 f   terrainEditor.obj
 0001:0004e1f0       ?worldToGrid@TerrainEditor@@QAE_NABVPoint3F@@AAVPoint2I@@@Z 0044f1f0 f   terrainEditor.obj
 0001:0004e2a0       ?getGridHeight@TerrainEditor@@AAEMABVPoint2I@@@Z 0044f2a0 f   terrainEditor.obj
 0001:0004e2e0       ?gridUpdateComplete@TerrainEditor@@QAEXXZ 0044f2e0 f   terrainEditor.obj
 0001:0004e350       ?materialUpdateComplete@TerrainEditor@@QAEXXZ 0044f350 f   terrainEditor.obj
 0001:0004e400       ?setGridHeight@TerrainEditor@@AAEXABVPoint2I@@M@Z 0044f400 f   terrainEditor.obj
 0001:0004e480       ?getGridMaterial@TerrainEditor@@AAE?AUMaterial@TerrainBlock@@ABVPoint2I@@@Z 0044f480 f   terrainEditor.obj
 0001:0004e4c0       ?setGridMaterial@TerrainEditor@@AAEXABVPoint2I@@ABUMaterial@TerrainBlock@@@Z 0044f4c0 f   terrainEditor.obj
 0001:0004e520       ?getGridMaterialGroup@TerrainEditor@@AAEEABVPoint2I@@@Z 0044f520 f   terrainEditor.obj
 0001:0004e560       ?setGridMaterialGroup@TerrainEditor@@AAEXABVPoint2I@@E@Z 0044f560 f   terrainEditor.obj
 0001:0004e590       ??0Collision@@QAE@XZ       0044f590 f i terrainEditor.obj
 0001:0004e5a0       ?updateGuiInfo@TerrainEditor@@UAEXXZ 0044f5a0 f   terrainEditor.obj
 0001:0004e630       ?clearUndo@TerrainEditor@@AAEXAAV?$Vector@PAVSelection@@@@@Z 0044f630 f   terrainEditor.obj
 0001:0004e670       ??0TerrainProcessActionEvent@@QAE@I@Z 0044f670 f i terrainEditor.obj
 0001:0004e690       ?processActionTick@TerrainEditor@@QAEXI@Z 0044f690 f   terrainEditor.obj
 0001:0004e710       ?checkTerrainBlock@@YA_NPAVTerrainEditor@@PBD@Z 0044f710 f   terrainEditor.obj
 0001:0004e740       ?setBrushPos@TerrainEditor@@QAEXVPoint2I@@@Z 0044f740 f   terrainEditor.obj
 0001:0004e760       ?setAction@TerrainEditor@@QAEXPBD@Z 0044f760 f   terrainEditor.obj
 0001:0004e7d0       ?getActionName@TerrainEditor@@QAEPBDI@Z 0044f7d0 f   terrainEditor.obj
 0001:0004e800       ?getNumActions@TerrainEditor@@QAEHXZ 0044f800 f   terrainEditor.obj
 0001:0004e810       ?clearSelection@TerrainEditor@@QAEXXZ 0044f810 f   terrainEditor.obj
 0001:0004e840       ?buildMaterialMap@TerrainEditor@@QAEXXZ 0044f840 f   terrainEditor.obj
 0001:0004e870       ?getNumTextures@TerrainEditor@@QAEHXZ 0044f870 f   terrainEditor.obj
 0001:0004e8e0       ?getTextureName@TerrainEditor@@QAEPBDH@Z 0044f8e0 f   terrainEditor.obj
 0001:0004e9d0       ?clearModifiedFlags@TerrainEditor@@QAEXXZ 0044f9d0 f   terrainEditor.obj
 0001:0004ea70       ?setLoneBaseMaterial@TerrainEditor@@QAEXPBD@Z 0044fa70 f   terrainEditor.obj
 0001:0004ed10       ??0?$Resource@VTerrainFile@@@@QAE@ABV0@@Z 0044fd10 f i terrainEditor.obj
 0001:0004ed30       ??A?$Vector@VGridInfo@@@@QAEAAVGridInfo@@H@Z 0044fd30 f i terrainEditor.obj
 0001:0004ed50       ??A?$Vector@PAVTerrainAction@@@@QAEAAPAVTerrainAction@@H@Z 0044fd50 f i terrainEditor.obj
 0001:0004ed60       ??A?$Vector@PAVSelection@@@@QAEAAPAVSelection@@H@Z 0044fd60 f i terrainEditor.obj
 0001:0004ed70       ??A?$Vector@UTerrVertex@@@@QAEAAUTerrVertex@@H@Z 0044fd70 f i terrainEditor.obj
 0001:0004ed80       ?setSize@?$Vector@H@@QAEII@Z 0044fd80 f i terrainEditor.obj
 0001:0004edb0       ?pop_back@?$Vector@VGridInfo@@@@QAEXXZ 0044fdb0 f i terrainEditor.obj
 0001:0004edd0       ?front@?$Vector@PAVSelection@@@@QAEAAPAVSelection@@XZ 0044fdd0 f i terrainEditor.obj
 0001:0004ede0       ?pop_back@?$Vector@PAVSelection@@@@QAEXXZ 0044fde0 f i terrainEditor.obj
 0001:0004ee00       ?front@?$Vector@PAUBaseMaterialInfo@@@@QAEAAPAUBaseMaterialInfo@@XZ 0044fe00 f i terrainEditor.obj
 0001:0004ee10       ??0?$Vector@UTerrVertex@@@@QAE@I@Z 0044fe10 f i terrainEditor.obj
 0001:0004ee60       ?setSize@?$Vector@UTerrVertex@@@@QAEII@Z 0044fe60 f i terrainEditor.obj
 0001:0004ee90       ?increment@?$Vector@VGridInfo@@@@QAEXI@Z 0044fe90 f i terrainEditor.obj
 0001:0004eec0       ?reserve@?$Vector@PAVTerrainAction@@@@QAEXI@Z 0044fec0 f i terrainEditor.obj
 0001:0004eef0       ?increment@?$Vector@PAVTerrainAction@@@@QAEXI@Z 0044fef0 f i terrainEditor.obj
 0001:0004ef20       ?insert@?$Vector@PAVSelection@@@@QAEXI@Z 0044ff20 f i terrainEditor.obj
 0001:0004ef70       ?erase@?$Vector@PAVSelection@@@@QAEXI@Z 0044ff70 f i terrainEditor.obj
 0001:0004efb0       ?reserve@?$Vector@PAVSelection@@@@QAEXI@Z 0044ffb0 f i terrainEditor.obj
 0001:0004efe0       ?insert@?$Vector@PAUBaseMaterialInfo@@@@QAEXI@Z 0044ffe0 f i terrainEditor.obj
 0001:0004f030       ?erase@?$Vector@PAUBaseMaterialInfo@@@@QAEXI@Z 00450030 f i terrainEditor.obj
 0001:0004f070       ?reserve@?$Vector@PAUBaseMaterialInfo@@@@QAEXI@Z 00450070 f i terrainEditor.obj
 0001:0004f0a0       ?reserve@?$Vector@PAVInteriorInstance@@@@QAEXI@Z 004500a0 f i terrainEditor.obj
 0001:0004f0d0       ?getFile@TerrainBlock@@QAE?AV?$Resource@VTerrainFile@@@@XZ 004500d0 f i terrainEditor.obj
 0001:0004f0f0       ??1Brush@@UAE@XZ           004500f0 f i terrainEditor.obj
 0001:0004f100       ?setSize@Brush@@UAEXABVPoint2I@@@Z 00450100 f i terrainEditor.obj
 0001:0004f120       ??_GBrush@@UAEPAXI@Z       00450120 f i terrainEditor.obj
 0001:0004f120       ??_EBrush@@UAEPAXI@Z       00450120 f i terrainEditor.obj
 0001:0004f140       ??_ESelectAction@@UAEPAXI@Z 00450140 f i terrainEditor.obj
 0001:0004f140       ??_GSelectAction@@UAEPAXI@Z 00450140 f i terrainEditor.obj
 0001:0004f160       ??1SelectAction@@UAE@XZ    00450160 f i terrainEditor.obj
 0001:0004f170       ??0SoftSelectAction@@QAE@PAVTerrainEditor@@@Z 00450170 f i terrainEditor.obj
 0001:0004f190       ?getName@SoftSelectAction@@UAEPBDXZ 00450190 f i terrainEditor.obj
 0001:0004f1a0       ??_ESoftSelectAction@@UAEPAXI@Z 004501a0 f i terrainEditor.obj
 0001:0004f1a0       ??_GSoftSelectAction@@UAEPAXI@Z 004501a0 f i terrainEditor.obj
 0001:0004f1c0       ??1SoftSelectAction@@UAE@XZ 004501c0 f i terrainEditor.obj
 0001:0004f210       ??_EPaintMaterialAction@@UAEPAXI@Z 00450210 f i terrainEditor.obj
 0001:0004f210       ??_GPaintMaterialAction@@UAEPAXI@Z 00450210 f i terrainEditor.obj
 0001:0004f230       ??1PaintMaterialAction@@UAE@XZ 00450230 f i terrainEditor.obj
 0001:0004f240       ??_ERaiseHeightAction@@UAEPAXI@Z 00450240 f i terrainEditor.obj
 0001:0004f240       ??_GRaiseHeightAction@@UAEPAXI@Z 00450240 f i terrainEditor.obj
 0001:0004f260       ??1RaiseHeightAction@@UAE@XZ 00450260 f i terrainEditor.obj
 0001:0004f270       ??_GLowerHeightAction@@UAEPAXI@Z 00450270 f i terrainEditor.obj
 0001:0004f270       ??_ELowerHeightAction@@UAEPAXI@Z 00450270 f i terrainEditor.obj
 0001:0004f290       ??1LowerHeightAction@@UAE@XZ 00450290 f i terrainEditor.obj
 0001:0004f2a0       ??_ESetHeightAction@@UAEPAXI@Z 004502a0 f i terrainEditor.obj
 0001:0004f2a0       ??_GSetHeightAction@@UAEPAXI@Z 004502a0 f i terrainEditor.obj
 0001:0004f2c0       ??1SetHeightAction@@UAE@XZ 004502c0 f i terrainEditor.obj
 0001:0004f2d0       ??_GSetEmptyAction@@UAEPAXI@Z 004502d0 f i terrainEditor.obj
 0001:0004f2d0       ??_ESetEmptyAction@@UAEPAXI@Z 004502d0 f i terrainEditor.obj
 0001:0004f2f0       ??1SetEmptyAction@@UAE@XZ  004502f0 f i terrainEditor.obj
 0001:0004f300       ??_EClearEmptyAction@@UAEPAXI@Z 00450300 f i terrainEditor.obj
 0001:0004f300       ??_GClearEmptyAction@@UAEPAXI@Z 00450300 f i terrainEditor.obj
 0001:0004f320       ??1ClearEmptyAction@@UAE@XZ 00450320 f i terrainEditor.obj
 0001:0004f330       ??_GSetModifiedAction@@UAEPAXI@Z 00450330 f i terrainEditor.obj
 0001:0004f330       ??_ESetModifiedAction@@UAEPAXI@Z 00450330 f i terrainEditor.obj
 0001:0004f350       ??1SetModifiedAction@@UAE@XZ 00450350 f i terrainEditor.obj
 0001:0004f360       ??_GClearModifiedAction@@UAEPAXI@Z 00450360 f i terrainEditor.obj
 0001:0004f360       ??_EClearModifiedAction@@UAEPAXI@Z 00450360 f i terrainEditor.obj
 0001:0004f380       ??1ClearModifiedAction@@UAE@XZ 00450380 f i terrainEditor.obj
 0001:0004f390       ??_GScaleHeightAction@@UAEPAXI@Z 00450390 f i terrainEditor.obj
 0001:0004f390       ??_EScaleHeightAction@@UAEPAXI@Z 00450390 f i terrainEditor.obj
 0001:0004f3b0       ??1ScaleHeightAction@@UAE@XZ 004503b0 f i terrainEditor.obj
 0001:0004f3c0       ??_GFlattenHeightAction@@UAEPAXI@Z 004503c0 f i terrainEditor.obj
 0001:0004f3c0       ??_EFlattenHeightAction@@UAEPAXI@Z 004503c0 f i terrainEditor.obj
 0001:0004f3e0       ??1FlattenHeightAction@@UAE@XZ 004503e0 f i terrainEditor.obj
 0001:0004f3f0       ??_GSmoothHeightAction@@UAEPAXI@Z 004503f0 f i terrainEditor.obj
 0001:0004f3f0       ??_ESmoothHeightAction@@UAEPAXI@Z 004503f0 f i terrainEditor.obj
 0001:0004f410       ??1SmoothHeightAction@@UAE@XZ 00450410 f i terrainEditor.obj
 0001:0004f420       ??_GSetMaterialGroupAction@@UAEPAXI@Z 00450420 f i terrainEditor.obj
 0001:0004f420       ??_ESetMaterialGroupAction@@UAEPAXI@Z 00450420 f i terrainEditor.obj
 0001:0004f440       ??1SetMaterialGroupAction@@UAE@XZ 00450440 f i terrainEditor.obj
 0001:0004f450       ??1?$ConcreteClassRep@VTerrainEditor@@@@UAE@XZ 00450450 f i terrainEditor.obj
 0001:0004f470       ??0Selection@@QAE@XZ       00450470 f   terrainEditor.obj
 0001:0004f520       ??_GSelection@@UAEPAXI@Z   00450520 f i terrainEditor.obj
 0001:0004f520       ??_ESelection@@UAEPAXI@Z   00450520 f i terrainEditor.obj
 0001:0004f540       ?lookup@Selection@@AAEHABVPoint2I@@@Z 00450540 f   terrainEditor.obj
 0001:0004f590       ?remove@Selection@@QAE_NABVGridInfo@@@Z 00450590 f   terrainEditor.obj
 0001:0004f6f0       ?getInfo@Selection@@QAE_NVPoint2I@@AAVGridInfo@@@Z 004506f0 f   terrainEditor.obj
 0001:0004f730       ?setInfo@Selection@@QAE_NAAVGridInfo@@@Z 00450730 f   terrainEditor.obj
 0001:0004f790       ??0Brush@@QAE@PAVTerrainEditor@@@Z 00450790 f   terrainEditor.obj
 0001:0004f7c0       ?setPosition@Brush@@QAEXABVPoint3F@@@Z 004507c0 f   terrainEditor.obj
 0001:0004f800       ??0SelectionBrush@@QAE@PAVTerrainEditor@@@Z 00450800 f   terrainEditor.obj
 0001:0004f840       ?setSize@SelectionBrush@@UAEXABVPoint2I@@@Z 00450840 f i terrainEditor.obj
 0001:0004f850       ??1TerrainEditor@@UAE@XZ   00450850 f   terrainEditor.obj
 0001:0004fa00       ?getPaintMaterial@TerrainEditor@@QAEHXZ 00450a00 f   terrainEditor.obj
 0001:0004fa20       ?gridToWorld@TerrainEditor@@QAE_NABVPoint2I@@AAVPoint3F@@@Z 00450a20 f   terrainEditor.obj
 0001:0004fad0       ?getGridInfo@TerrainEditor@@QAE_NABVPoint2I@@AAVGridInfo@@@Z 00450ad0 f   terrainEditor.obj
 0001:0004fbd0       ?setGridInfo@TerrainEditor@@QAEXABVGridInfo@@@Z 00450bd0 f   terrainEditor.obj
 0001:0004fc50       ??0RayInfo@@QAE@XZ         00450c50 f i terrainEditor.obj
 0001:0004fc60       ?renderSelection@TerrainEditor@@AAEXABVSelection@@ABVColorF@@111_N2@Z 00450c60 f   terrainEditor.obj
 0001:000501e0       ?renderBorder@TerrainEditor@@AAEXXZ 004511e0 f   terrainEditor.obj
 0001:00050720       ?process@TerrainProcessActionEvent@@UAEXPAVSimObject@@@Z 00451720 f i terrainEditor.obj
 0001:00050730       ??_GTerrainProcessActionEvent@@UAEPAXI@Z 00451730 f i terrainEditor.obj
 0001:00050730       ??_ETerrainProcessActionEvent@@UAEPAXI@Z 00451730 f i terrainEditor.obj
 0001:00050750       ??1TerrainProcessActionEvent@@UAE@XZ 00451750 f i terrainEditor.obj
 0001:00050760       ?on3DMouseDown@TerrainEditor@@UAEXABUGui3DMouseEvent@@@Z 00451760 f   terrainEditor.obj
 0001:00050ca0       ?push_back@?$Vector@VGridInfo@@@@QAEXABVGridInfo@@@Z 00451ca0 f i terrainEditor.obj
 0001:00050cf0       ??0?$Vector@PAVTerrainAction@@@@QAE@I@Z 00451cf0 f i terrainEditor.obj
 0001:00050d40       ?push_back@?$Vector@PAVTerrainAction@@@@QAEXABQAVTerrainAction@@@Z 00451d40 f i terrainEditor.obj
 0001:00050d80       ??0?$Vector@PAVSelection@@@@QAE@I@Z 00451d80 f i terrainEditor.obj
 0001:00050dd0       ?push_front@?$Vector@PAVSelection@@@@QAEXABQAVSelection@@@Z 00451dd0 f i terrainEditor.obj
 0001:00050e20       ?pop_front@?$Vector@PAVSelection@@@@QAEXXZ 00451e20 f i terrainEditor.obj
 0001:00050e60       ??0?$Vector@PAUBaseMaterialInfo@@@@QAE@I@Z 00451e60 f i terrainEditor.obj
 0001:00050eb0       ?push_front@?$Vector@PAUBaseMaterialInfo@@@@QAEXABQAUBaseMaterialInfo@@@Z 00451eb0 f i terrainEditor.obj
 0001:00050f00       ?pop_front@?$Vector@PAUBaseMaterialInfo@@@@QAEXXZ 00451f00 f i terrainEditor.obj
 0001:00050f40       ??0?$Vector@PAVInteriorInstance@@@@QAE@I@Z 00451f40 f i terrainEditor.obj
 0001:00050f90       ??0BoxBrush@@QAE@PAVTerrainEditor@@@Z 00451f90 f i terrainEditor.obj
 0001:00050fd0       ??_EBoxBrush@@UAEPAXI@Z    00451fd0 f i terrainEditor.obj
 0001:00050fd0       ??_GBoxBrush@@UAEPAXI@Z    00451fd0 f i terrainEditor.obj
 0001:00050ff0       ??1BoxBrush@@UAE@XZ        00451ff0 f i terrainEditor.obj
 0001:00051000       ??0EllipseBrush@@QAE@PAVTerrainEditor@@@Z 00452000 f i terrainEditor.obj
 0001:00051040       ??_EEllipseBrush@@UAEPAXI@Z 00452040 f i terrainEditor.obj
 0001:00051040       ??_GEllipseBrush@@UAEPAXI@Z 00452040 f i terrainEditor.obj
 0001:00051060       ??1EllipseBrush@@UAE@XZ    00452060 f i terrainEditor.obj
 0001:00051070       ??0OutlineSelectAction@@QAE@PAVTerrainEditor@@@Z 00452070 f i terrainEditor.obj
 0001:00051090       ?getName@OutlineSelectAction@@UAEPBDXZ 00452090 f i terrainEditor.obj
 0001:000510a0       ?useMouseBrush@OutlineSelectAction@@UAE_NXZ 004520a0 f i terrainEditor.obj
 0001:000510b0       ??_GOutlineSelectAction@@UAEPAXI@Z 004520b0 f i terrainEditor.obj
 0001:000510b0       ??_EOutlineSelectAction@@UAEPAXI@Z 004520b0 f i terrainEditor.obj
 0001:000510d0       ??1OutlineSelectAction@@UAE@XZ 004520d0 f i terrainEditor.obj
 0001:000510e0       ?insert@Selection@@AAEXAAVGridInfo@@@Z 004520e0 f   terrainEditor.obj
 0001:00051160       ?add@Selection@@QAE_NAAVGridInfo@@@Z 00452160 f   terrainEditor.obj
 0001:00051190       ?rebuild@BoxBrush@@UAEXXZ  00452190 f   terrainEditor.obj
 0001:000513e0       ?rebuild@EllipseBrush@@UAEXXZ 004523e0 f   terrainEditor.obj
 0001:00051660       ??_ESelectionBrush@@UAEPAXI@Z 00452660 f i terrainEditor.obj
 0001:00051660       ??_GSelectionBrush@@UAEPAXI@Z 00452660 f i terrainEditor.obj
 0001:00051680       ??1SelectionBrush@@UAE@XZ  00452680 f i terrainEditor.obj
 0001:00051690       ??0TerrainEditor@@QAE@XZ   00452690 f   terrainEditor.obj
 0001:00051e50       ??_ETerrainEditor@@UAEPAXI@Z 00452e50 f i terrainEditor.obj
 0001:00051e50       ??_GTerrainEditor@@UAEPAXI@Z 00452e50 f i terrainEditor.obj
 0001:00051e70       ?getGridInfo@TerrainEditor@@QAE_NABVPoint3F@@AAVGridInfo@@@Z 00452e70 f   terrainEditor.obj
 0001:00051ea0       ?collide@TerrainEditor@@QAE_NABUGui3DMouseEvent@@AAVPoint3F@@@Z 00452ea0 f   terrainEditor.obj
 0001:00052070       ?renderScene@TerrainEditor@@UAEXABVRectI@@@Z 00453070 f   terrainEditor.obj
 0001:00052210       ?addUndo@TerrainEditor@@AAEXAAV?$Vector@PAVSelection@@@@PAVSelection@@@Z 00453210 f   terrainEditor.obj
 0001:000522a0       ?processUndo@TerrainEditor@@AAE_NAAV?$Vector@PAVSelection@@@@0@Z 004532a0 f   terrainEditor.obj
 0001:000523e0       ?on3DMouseUp@TerrainEditor@@UAEXABUGui3DMouseEvent@@@Z 004533e0 f   terrainEditor.obj
 0001:000524b0       ?on3DMouseMove@TerrainEditor@@UAEXABUGui3DMouseEvent@@@Z 004534b0 f   terrainEditor.obj
 0001:00052550       ?on3DMouseDragged@TerrainEditor@@UAEXABUGui3DMouseEvent@@@Z 00453550 f   terrainEditor.obj
 0001:00052670       ?setBrushType@TerrainEditor@@QAEXPBD@Z 00453670 f   terrainEditor.obj
 0001:00052770       ?resetSelWeights@TerrainEditor@@QAEX_N@Z 00453770 f   terrainEditor.obj
 0001:000528f0       ?undo@TerrainEditor@@QAEXXZ 004538f0 f   terrainEditor.obj
 0001:00052930       ?redo@TerrainEditor@@QAEXXZ 00453930 f   terrainEditor.obj
 0001:00052970       ?processAction@TerrainEditor@@QAEXPBD@Z 00453970 f   terrainEditor.obj
 0001:00052ad0       ?markEmptySquares@TerrainEditor@@QAEXXZ 00453ad0 f   terrainEditor.obj
 0001:00052e70       ?mirrorTerrain@TerrainEditor@@QAEXH@Z 00453e70 f   terrainEditor.obj
 0001:000531f0       ?popBaseMaterialInfo@TerrainEditor@@QAEXXZ 004541f0 f   terrainEditor.obj
 0001:00053300       ?pushBaseMaterialInfo@TerrainEditor@@QAEXXZ 00454300 f   terrainEditor.obj
 0001:000536b0       ??0?$ConcreteClassRep@VTerrainEditor@@@@QAE@PBDHHH@Z 004546b0 f i terrainEditor.obj
 0001:00053730       ?init@?$ConcreteClassRep@VTerrainEditor@@@@UBEXXZ 00454730 f i terrainEditor.obj
 0001:00053760       ??_G?$ConcreteClassRep@VTerrainEditor@@@@UAEPAXI@Z 00454760 f i terrainEditor.obj
 0001:00053760       ??_E?$ConcreteClassRep@VTerrainEditor@@@@UAEPAXI@Z 00454760 f i terrainEditor.obj
 0001:00053780       ?create@?$ConcreteClassRep@VTerrainEditor@@@@UBEPAVConsoleObject@@XZ 00454780 f i terrainEditor.obj
 0001:000537b0       ?getClassRep@WorldEditor@@UBEPAVAbstractClassRep@@XZ 004547b0 f   worldEditor.obj
 0001:000537c0       ?getStaticClassRep@WorldEditor@@SAPAVAbstractClassRep@@XZ 004547c0 f   worldEditor.obj
 0001:000537d0       ?getParentStaticClassRep@WorldEditor@@SAPAVAbstractClassRep@@XZ 004547d0 f   worldEditor.obj
 0001:000537e0       _asinf                     004547e0 f i worldEditor.obj
 0001:000537f0       ?asin@@YAMM@Z              004547f0 f i worldEditor.obj
 0001:00053800       ?mAsin@@YAMM@Z             00454800 f i worldEditor.obj
 0001:00053810       ?mTan@@YANN@Z              00454810 f i worldEditor.obj
 0001:00053820       ?mRadToDeg@@YAMM@Z         00454820 f i worldEditor.obj
 0001:00053840       ?mDegToRad@@YANN@Z         00454840 f i worldEditor.obj
 0001:00053860       ?grabCursors@WorldEditor@@AAE_NXZ 00454860 f   worldEditor.obj
 0001:00053950       ?setCursor@WorldEditor@@AAEXI@Z 00454950 f   worldEditor.obj
 0001:00053970       ??KPoint3F@@QBE?AV0@M@Z    00454970 f i worldEditor.obj
 0001:000539a0       ?get3DCursor@WorldEditor@@EAEXAAPAVGuiCursor@@AA_NABUGui3DMouseEvent@@@Z 004549a0 f   worldEditor.obj
 0001:000539c0       ?set@RectI@@QAEXABVPoint2I@@0@Z 004549c0 f i worldEditor.obj
 0001:000539e0       ?pointInRect@RectI@@QBE_NABVPoint2I@@@Z 004549e0 f i worldEditor.obj
 0001:00053a20       ?on3DMouseEnter@WorldEditor@@UAEXABUGui3DMouseEvent@@@Z 00454a20 f   worldEditor.obj
 0001:00053a30       ?on3DMouseLeave@WorldEditor@@UAEXABUGui3DMouseEvent@@@Z 00454a30 f   worldEditor.obj
 0001:00053a40       ?on3DRightMouseDown@WorldEditor@@UAEXABUGui3DMouseEvent@@@Z 00454a40 f   worldEditor.obj
 0001:00053a50       ?on3DRightMouseUp@WorldEditor@@UAEXABUGui3DMouseEvent@@@Z 00454a50 f   worldEditor.obj
 0001:00053a60       ?updateGuiInfo@WorldEditor@@UAEXXZ 00454a60 f   worldEditor.obj
 0001:00053aa0       ?initPersistFields@WorldEditor@@SAXXZ 00454aa0 f   worldEditor.obj
 0001:00053ed0       ?getMode@WorldEditor@@QAEPBDXZ 00454ed0 f   worldEditor.obj
 0001:00053f00       ?setMode@WorldEditor@@QAE_NPBD@Z 00454f00 f   worldEditor.obj
 0001:00053f80       ?redirectConsole@WorldEditor@@QAEXH@Z 00454f80 f   worldEditor.obj
 0001:00053f90       ?setSelected@SimObject@@QAEX_N@Z 00454f90 f i worldEditor.obj
 0001:00054030       ??0?$SimObjectPtr@VSceneObject@@@@QAE@XZ 00455030 f i worldEditor.obj
 0001:00054040       ??1?$SimObjectPtr@VSceneObject@@@@QAE@XZ 00455040 f i worldEditor.obj
 0001:00054050       ??4?$SimObjectPtr@VSceneObject@@@@QAEAAV0@PAVSceneObject@@@Z 00455050 f i worldEditor.obj
 0001:00054080       ??C?$SimObjectPtr@VSceneObject@@@@QBEPAVSceneObject@@XZ 00455080 f i worldEditor.obj
 0001:00054090       ??B?$SimObjectPtr@VSceneObject@@@@QBEPAVSceneObject@@XZ 00455090 f i worldEditor.obj
 0001:000540a0       ?getHeight@GFont@@QAEIXZ   004550a0 f i worldEditor.obj
 0001:000540b0       ??0TextureHandle@@QAE@PBDW4TextureHandleType@@_N@Z 004550b0 f i worldEditor.obj
 0001:000540e0       ??1?$Vector@UEntry@SelectionState@WorldEditor@@@@QAE@XZ 004550e0 f i worldEditor.obj
 0001:000540f0       ?size@?$Vector@UEntry@SelectionState@WorldEditor@@@@QBEHXZ 004550f0 f i worldEditor.obj
 0001:00054100       ??A?$Vector@UEntry@SelectionState@WorldEditor@@@@QAEAAUEntry@SelectionState@WorldEditor@@I@Z 00455100 f i worldEditor.obj
 0001:00054110       ??1?$Vector@PAUSelectionState@WorldEditor@@@@QAE@XZ 00455110 f i worldEditor.obj
 0001:00054120       ?size@?$Vector@PAUSelectionState@WorldEditor@@@@QBEHXZ 00455120 f i worldEditor.obj
 0001:00054130       ??A?$Vector@PAUSelectionState@WorldEditor@@@@QAEAAPAUSelectionState@WorldEditor@@I@Z 00455130 f i worldEditor.obj
 0001:00054140       ?clear@?$Vector@PAUSelectionState@WorldEditor@@@@QAEXXZ 00455140 f i worldEditor.obj
 0001:00054150       ??1?$Vector@$$BY0IAA@E@@QAE@XZ 00455150 f i worldEditor.obj
 0001:00054160       ?size@?$Vector@$$BY0IAA@E@@QBEHXZ 00455160 f i worldEditor.obj
 0001:00054170       ??A?$Vector@$$BY0IAA@E@@QAEAAY0IAA@EI@Z 00455170 f i worldEditor.obj
 0001:00054180       ?clear@?$Vector@$$BY0IAA@E@@QAEXXZ 00455180 f i worldEditor.obj
 0001:00054190       ?last@?$Vector@$$BY0IAA@E@@QAEAAY0IAA@EXZ 00455190 f i worldEditor.obj
 0001:000541a0       ??1?$Vector@PAUEntry@ClassInfo@WorldEditor@@@@QAE@XZ 004551a0 f i worldEditor.obj
 0001:000541b0       ?size@?$Vector@PAUEntry@ClassInfo@WorldEditor@@@@QBEHXZ 004551b0 f i worldEditor.obj
 0001:000541c0       ??A?$Vector@PAUEntry@ClassInfo@WorldEditor@@@@QAEAAPAUEntry@ClassInfo@WorldEditor@@I@Z 004551c0 f i worldEditor.obj
 0001:000541d0       ?idx@MatrixF@@SAIII@Z      004551d0 f i worldEditor.obj
 0001:000541e0       ??1?$Vector@VQuatF@@@@QAE@XZ 004551e0 f i worldEditor.obj
 0001:000541f0       ??$findObject@VSceneObject@@@Sim@@YA_NPBDAAPAVSceneObject@@@Z 004551f0 f i worldEditor.obj
 0001:00054230       ?set@MatrixF@@QAEAAV1@ABVPoint3F@@0@Z 00455230 f i worldEditor.obj
 0001:00054250       ?begin@?$Vector@PAUSelectionState@WorldEditor@@@@QAEPAPAUSelectionState@WorldEditor@@XZ 00455250 f i worldEditor.obj
 0001:00054260       ?decrement@?$Vector@PAUSelectionState@WorldEditor@@@@QAEXI@Z 00455260 f i worldEditor.obj
 0001:00054280       ?resize@?$Vector@$$BY0IAA@E@@IAE_NI@Z 00455280 f i worldEditor.obj
 0001:000542a0       ?reserve@?$Vector@$$BY0IAA@E@@QAEXI@Z 004552a0 f i worldEditor.obj
 0001:000542e0       ?normalize@MatrixF@@QAEXXZ 004552e0 f i worldEditor.obj
 0001:000542f0       ?mulV@MatrixF@@QBEXAAVPoint3F@@@Z 004552f0 f i worldEditor.obj
 0001:00054360       ?resize@?$Vector@UEntry@SelectionState@WorldEditor@@@@IAE_NI@Z 00455360 f i worldEditor.obj
 0001:00054380       ?resize@?$Vector@PAUSelectionState@WorldEditor@@@@IAE_NI@Z 00455380 f i worldEditor.obj
 0001:000543a0       ?increment@?$Vector@PAUSelectionState@WorldEditor@@@@QAEXI@Z 004553a0 f i worldEditor.obj
 0001:000543d0       ?resize@?$Vector@PAUEntry@ClassInfo@WorldEditor@@@@IAE_NI@Z 004553d0 f i worldEditor.obj
 0001:000543f0       ?resize@?$Vector@VQuatF@@@@IAE_NI@Z 004553f0 f i worldEditor.obj
 0001:00054410       ??0AngAxisF@@QAE@ABVMatrixF@@@Z 00455410 f i worldEditor.obj
 0001:00054430       ?isClientObject@NetObject@@QBE_NXZ 00455430 f i worldEditor.obj
 0001:00054440       ?getHotSpot@GuiCursor@@QAE?AVPoint2I@@XZ 00455440 f i worldEditor.obj
 0001:00054460       ?getExtent@GuiCursor@@QAE?AVPoint2I@@XZ 00455460 f i worldEditor.obj
 0001:00054480       ?size@Selection@WorldEditor@@QAEIXZ 00455480 f i worldEditor.obj
 0001:00054490       ?autoSelect@Selection@WorldEditor@@QAEX_N@Z 00455490 f i worldEditor.obj
 0001:000544a0       ?invalidateCentroid@Selection@WorldEditor@@QAEXXZ 004554a0 f i worldEditor.obj
 0001:000544b0       ?setDirty@WorldEditor@@QAEXXZ 004554b0 f i worldEditor.obj
 0001:000544c0       ?isLooping@Path@@QAE_NXZ   004554c0 f i worldEditor.obj
 0001:000544d0       ??0Knot@CameraSpline@@QAE@XZ 004554d0 f i worldEditor.obj
 0001:000544e0       ?size@CameraSpline@@QAEHXZ 004554e0 f i worldEditor.obj
 0001:000544f0       ?front@CameraSpline@@QAEPAUKnot@1@XZ 004554f0 f i worldEditor.obj
 0001:00054500       ?back@CameraSpline@@QAEPAUKnot@1@XZ 00455500 f i worldEditor.obj
 0001:00054510       ?push_front@CameraSpline@@QAEXPAUKnot@1@@Z 00455510 f i worldEditor.obj
 0001:00054530       ?getBoxNormalIndex@?A0x0a4cfc48@@YAIABVPoint3F@@@Z 00455530 f   worldEditor.obj
 0001:000545b0       ?parseObjectFormat@?A0x0a4cfc48@@YAPBDPAVSimObject@@PBD@Z 004555b0 f   worldEditor.obj
 0001:00054730       ?snapFloat@?A0x0a4cfc48@@YAMMM@Z 00455730 f   worldEditor.obj
 0001:00054790       ?extractEuler@?A0x0a4cfc48@@YA?AVPoint3F@@ABVMatrixF@@@Z 00455790 f   worldEditor.obj
 0001:00054800       ?getClientObj@WorldEditor@@SAPAVSceneObject@@PAV2@@Z 00455800 f   worldEditor.obj
 0001:00054860       ?setClientObjInfo@WorldEditor@@SAXPAVSceneObject@@ABVMatrixF@@ABVPoint3F@@@Z 00455860 f   worldEditor.obj
 0001:00054890       ??1SelectionState@WorldEditor@@QAE@XZ 00455890 f i worldEditor.obj
 0001:000548a0       ??0CollisionInfo@WorldEditor@@QAE@XZ 004558a0 f i worldEditor.obj
 0001:000548b0       ?getControlObject@WorldEditor@@AAEPAVSceneObject@@XZ 004558b0 f   worldEditor.obj
 0001:000548f0       ?renderObjectBox@WorldEditor@@AAEXPAVSceneObject@@ABVColorI@@@Z 004558f0 f   worldEditor.obj
 0001:00055110       ?renderObjectFace@WorldEditor@@AAEXPAVSceneObject@@ABVPoint3F@@ABVColorI@@@Z 00456110 f   worldEditor.obj
 0001:00055660       ?renderPlane@WorldEditor@@AAEXABVPoint3F@@@Z 00456660 f   worldEditor.obj
 0001:00055970       ?renderAxisGizmoText@WorldEditor@@AAEXXZ 00456970 f   worldEditor.obj
 0001:00055bd0       ?snapPoint@WorldEditor@@AAE?AVPoint3F@@ABV2@@Z 00456bd0 f   worldEditor.obj
 0001:00055c60       ??1Entry@ClassInfo@WorldEditor@@QAE@XZ 00456c60 f i worldEditor.obj
 0001:00055cc0       ?getClassEntry@WorldEditor@@AAEPAUEntry@ClassInfo@1@PBD@Z 00456cc0 f   worldEditor.obj
 0001:00055d10       ?getClassEntry@WorldEditor@@AAEPAUEntry@ClassInfo@1@PBVSceneObject@@@Z 00456d10 f   worldEditor.obj
 0001:00055d30       ??0Entry@ClassInfo@WorldEditor@@QAE@XZ 00456d30 f i worldEditor.obj
 0001:00055d40       ?onAdd@WorldEditor@@UAE_NXZ 00456d40 f   worldEditor.obj
 0001:00055ec0       ?clearIgnoreList@WorldEditor@@QAEXXZ 00456ec0 f   worldEditor.obj
 0001:00055ef0       ?getSelectionSize@WorldEditor@@QAEHXZ 00456ef0 f   worldEditor.obj
 0001:00055f40       ?canPasteSelection@WorldEditor@@QAE_NXZ 00456f40 f   worldEditor.obj
 0001:00055ff0       ??A?$Vector@PAUSelectionState@WorldEditor@@@@QAEAAPAUSelectionState@WorldEditor@@H@Z 00456ff0 f i worldEditor.obj
 0001:00056000       ?front@?$Vector@PAUSelectionState@WorldEditor@@@@QAEAAPAUSelectionState@WorldEditor@@XZ 00457000 f i worldEditor.obj
 0001:00056010       ?pop_back@?$Vector@PAUSelectionState@WorldEditor@@@@QAEXXZ 00457010 f i worldEditor.obj
 0001:00056030       ??0?$Vector@$$BY0IAA@E@@QAE@I@Z 00457030 f i worldEditor.obj
 0001:00056080       ??0PlaneF@@QAE@ABVPoint3F@@0@Z 00457080 f i worldEditor.obj
 0001:000560d0       ?increment@?$Vector@$$BY0IAA@E@@QAEXI@Z 004570d0 f i worldEditor.obj
 0001:00056100       ?setPosition@MatrixF@@QAEXABVPoint3F@@@Z 00457100 f i worldEditor.obj
 0001:00056120       ??0MatrixF@@QAE@ABVPoint3F@@0@Z 00457120 f i worldEditor.obj
 0001:00056140       ?reserve@?$Vector@UEntry@SelectionState@WorldEditor@@@@QAEXI@Z 00457140 f i worldEditor.obj
 0001:00056170       ?increment@?$Vector@UEntry@SelectionState@WorldEditor@@@@QAEXI@Z 00457170 f i worldEditor.obj
 0001:000561a0       ?insert@?$Vector@PAUSelectionState@WorldEditor@@@@QAEXI@Z 004571a0 f i worldEditor.obj
 0001:000561f0       ?erase@?$Vector@PAUSelectionState@WorldEditor@@@@QAEXI@Z 004571f0 f i worldEditor.obj
 0001:00056230       ?reserve@?$Vector@PAUSelectionState@WorldEditor@@@@QAEXI@Z 00457230 f i worldEditor.obj
 0001:00056260       ?reserve@?$Vector@PAUEntry@ClassInfo@WorldEditor@@@@QAEXI@Z 00457260 f i worldEditor.obj
 0001:00056290       ?increment@?$Vector@PAUEntry@ClassInfo@WorldEditor@@@@QAEXI@Z 00457290 f i worldEditor.obj
 0001:000562c0       ?reserve@?$Vector@VQuatF@@@@QAEXI@Z 004572c0 f i worldEditor.obj
 0001:000562f0       ??ASelection@WorldEditor@@QAEPAVSceneObject@@H@Z 004572f0 f i worldEditor.obj
 0001:00056300       ??1?$ConcreteClassRep@VWorldEditor@@@@UAE@XZ 00457300 f i worldEditor.obj
 0001:00056320       ?getBoundingBoxCenter@?A0x0a4cfc48@@YA?AVPoint3F@@PAVSceneObject@@@Z 00457320 f   worldEditor.obj
 0001:00056b70       ?objInSet@Selection@WorldEditor@@QAE_NPAVSceneObject@@@Z 00457b70 f   worldEditor.obj
 0001:00056ba0       ?addObject@Selection@WorldEditor@@QAE_NPAVSceneObject@@@Z 00457ba0 f   worldEditor.obj
 0001:00056c10       ?removeObject@Selection@WorldEditor@@QAE_NPAVSceneObject@@@Z 00457c10 f   worldEditor.obj
 0001:00056c80       ?clear@Selection@WorldEditor@@QAEXXZ 00457c80 f   worldEditor.obj
 0001:00056cb0       ?onDeleteNotify@Selection@WorldEditor@@UAEXPAVSimObject@@@Z 00457cb0 f   worldEditor.obj
 0001:00056cc0       ?updateCentroid@Selection@WorldEditor@@AAEXXZ 00457cc0 f   worldEditor.obj
 0001:00056dd0       ?getCentroid@Selection@WorldEditor@@QAEABVPoint3F@@XZ 00457dd0 f   worldEditor.obj
 0001:00056de0       ?getBoxCentroid@Selection@WorldEditor@@QAEABVPoint3F@@XZ 00457de0 f   worldEditor.obj
 0001:00056df0       ?enableCollision@Selection@WorldEditor@@QAEXXZ 00457df0 f   worldEditor.obj
 0001:00056e20       ?disableCollision@Selection@WorldEditor@@QAEXXZ 00457e20 f   worldEditor.obj
 0001:00056e50       ?offset@Selection@WorldEditor@@QAEXABVPoint3F@@@Z 00457e50 f   worldEditor.obj
 0001:00056ef0       ?orient@Selection@WorldEditor@@QAEXABVMatrixF@@ABVPoint3F@@@Z 00457ef0 f   worldEditor.obj
 0001:00056f60       ?rotate@Selection@WorldEditor@@QAEXABVPoint3F@@0@Z 00457f60 f   worldEditor.obj
 0001:00057420       ?scale@Selection@WorldEditor@@QAEXABVPoint3F@@@Z 00458420 f   worldEditor.obj
 0001:000574a0       ?updateClientTransforms@WorldEditor@@SAXAAVSelection@1@@Z 004584a0 f   worldEditor.obj
 0001:00057550       ??0Entry@SelectionState@WorldEditor@@QAE@XZ 00458550 f i worldEditor.obj
 0001:00057560       ??_GSelectionState@WorldEditor@@QAEPAXI@Z 00458560 f i worldEditor.obj
 0001:00057580       ?clearUndo@WorldEditor@@AAEXAAV?$Vector@PAUSelectionState@WorldEditor@@@@@Z 00458580 f   worldEditor.obj
 0001:000575c0       ?deleteSelection@WorldEditor@@QAE_NAAVSelection@1@@Z 004585c0 f   worldEditor.obj
 0001:00057600       ?copySelection@WorldEditor@@QAE_NAAVSelection@1@@Z 00458600 f   worldEditor.obj
 0001:00057710       ?hideSelection@WorldEditor@@QAEX_N@Z 00458710 f   worldEditor.obj
 0001:000577c0       ?lockSelection@WorldEditor@@QAEX_N@Z 004587c0 f   worldEditor.obj
 0001:00057800       ?collide@WorldEditor@@AAE_NABUGui3DMouseEvent@@AAUCollisionInfo@1@@Z 00458800 f   worldEditor.obj
 0001:00057930       ?renderSelectionWorldBox@WorldEditor@@AAEXAAVSelection@1@@Z 00458930 f   worldEditor.obj
 0001:00057e80       ?renderMousePopupInfo@WorldEditor@@AAEXXZ 00458e80 f   worldEditor.obj
 0001:00058170       ?renderScreenObj@WorldEditor@@AAEXPAVSceneObject@@VPoint2I@@@Z 00459170 f   worldEditor.obj
 0001:00058340       ?calcAxisInfo@WorldEditor@@AAEXXZ 00459340 f   worldEditor.obj
 0001:000585e0       ?collideAxisGizmo@WorldEditor@@AAE_NABUGui3DMouseEvent@@@Z 004595e0 f   worldEditor.obj
 0001:00058a40       ?renderAxisGizmo@WorldEditor@@AAEXXZ 00459a40 f   worldEditor.obj
 0001:00058b20       ??_GEntry@ClassInfo@WorldEditor@@QAEPAXI@Z 00459b20 f i worldEditor.obj
 0001:00058b40       ?objClassIgnored@WorldEditor@@AAE_NPBVSceneObject@@@Z 00459b40 f   worldEditor.obj
 0001:00058ba0       ?on3DMouseMove@WorldEditor@@UAEXABUGui3DMouseEvent@@@Z 00459ba0 f   worldEditor.obj
 0001:00058d30       ?on3DMouseDown@WorldEditor@@UAEXABUGui3DMouseEvent@@@Z 00459d30 f   worldEditor.obj
 0001:000590a0       ?on3DMouseUp@WorldEditor@@UAEXABUGui3DMouseEvent@@@Z 0045a0a0 f   worldEditor.obj
 0001:00059250       ?clearSelection@WorldEditor@@QAEXXZ 0045a250 f   worldEditor.obj
 0001:00059290       ?selectObject@WorldEditor@@QAEXPBD@Z 0045a290 f   worldEditor.obj
 0001:000592f0       ?unselectObject@WorldEditor@@QAEXPBD@Z 0045a2f0 f   worldEditor.obj
 0001:00059350       ?getSelectObject@WorldEditor@@QAEHH@Z 0045a350 f   worldEditor.obj
 0001:00059370       ?getSelectionCentroid@WorldEditor@@QAEPBDXZ 0045a370 f   worldEditor.obj
 0001:000593c0       ?deleteCurrentSelection@WorldEditor@@QAEXXZ 0045a3c0 f   worldEditor.obj
 0001:00059510       ?copyCurrentSelection@WorldEditor@@QAEXXZ 0045a510 f   worldEditor.obj
 0001:00059590       ??0?$Vector@UEntry@SelectionState@WorldEditor@@@@QAE@I@Z 0045a590 f i worldEditor.obj
 0001:000595e0       ?push_back@?$Vector@UEntry@SelectionState@WorldEditor@@@@QAEXABUEntry@SelectionState@WorldEditor@@@Z 0045a5e0 f i worldEditor.obj
 0001:00059630       ??0?$Vector@PAUSelectionState@WorldEditor@@@@QAE@I@Z 0045a630 f i worldEditor.obj
 0001:00059680       ?push_front@?$Vector@PAUSelectionState@WorldEditor@@@@QAEXABQAUSelectionState@WorldEditor@@@Z 0045a680 f i worldEditor.obj
 0001:000596d0       ?pop_front@?$Vector@PAUSelectionState@WorldEditor@@@@QAEXXZ 0045a6d0 f i worldEditor.obj
 0001:00059710       ??0?$Vector@PAUEntry@ClassInfo@WorldEditor@@@@QAE@I@Z 0045a710 f i worldEditor.obj
 0001:00059760       ?push_back@?$Vector@PAUEntry@ClassInfo@WorldEditor@@@@QAEXABQAUEntry@ClassInfo@WorldEditor@@@Z 0045a760 f i worldEditor.obj
 0001:000597a0       ??0?$Vector@VQuatF@@@@QAE@I@Z 0045a7a0 f i worldEditor.obj
 0001:000597f0       ??0SelectionState@WorldEditor@@QAE@XZ 0045a7f0 f i worldEditor.obj
 0001:00059800       ??1Selection@WorldEditor@@UAE@XZ 0045a800 f   worldEditor.obj
 0001:00059860       ?createUndo@WorldEditor@@AAEPAUSelectionState@1@AAVSelection@1@@Z 0045a860 f   worldEditor.obj
 0001:00059930       ?addUndo@WorldEditor@@AAEXAAV?$Vector@PAUSelectionState@WorldEditor@@@@PAUSelectionState@1@@Z 0045a930 f   worldEditor.obj
 0001:000599e0       ?processUndo@WorldEditor@@AAE_NAAV?$Vector@PAUSelectionState@WorldEditor@@@@0@Z 0045a9e0 f   worldEditor.obj
 0001:00059ae0       ?dropSelection@WorldEditor@@QAEXAAVSelection@1@@Z 0045aae0 f   worldEditor.obj
 0001:00059ed0       ?renderSplinePath@WorldEditor@@AAEXPAVPath@@@Z 0045aed0 f   worldEditor.obj
 0001:0005a3f0       ??1ClassInfo@WorldEditor@@QAE@XZ 0045b3f0 f   worldEditor.obj
 0001:0005a470       ?addClassEntry@WorldEditor@@AAE_NPAUEntry@ClassInfo@1@@Z 0045b470 f   worldEditor.obj
 0001:0005a4d0       ??0ClassInfo@WorldEditor@@QAE@XZ 0045b4d0 f i worldEditor.obj
 0001:0005a4e0       ??1WorldEditor@@UAE@XZ     0045b4e0 f   worldEditor.obj
 0001:0005a5e0       ?onEditorEnable@WorldEditor@@UAEXXZ 0045b5e0 f   worldEditor.obj
 0001:0005a6a0       ?on3DMouseDragged@WorldEditor@@UAEXABUGui3DMouseEvent@@@Z 0045b6a0 f   worldEditor.obj
 0001:0005b640       ?ignoreObjClass@WorldEditor@@QAEXIPAPBD@Z 0045c640 f   worldEditor.obj
 0001:0005b6e0       ?undo@WorldEditor@@QAEXXZ  0045c6e0 f   worldEditor.obj
 0001:0005b700       ?redo@WorldEditor@@QAEXXZ  0045c700 f   worldEditor.obj
 0001:0005b720       ?dropCurrentSelection@WorldEditor@@QAEXXZ 0045c720 f   worldEditor.obj
 0001:0005b730       ?addUndoState@WorldEditor@@QAEXXZ 0045c730 f   worldEditor.obj
 0001:0005b940       ??0?$ConcreteClassRep@VWorldEditor@@@@QAE@PBDHHH@Z 0045c940 f i worldEditor.obj
 0001:0005b9c0       ?init@?$ConcreteClassRep@VWorldEditor@@@@UBEXXZ 0045c9c0 f i worldEditor.obj
 0001:0005b9f0       ??_E?$ConcreteClassRep@VWorldEditor@@@@UAEPAXI@Z 0045c9f0 f i worldEditor.obj
 0001:0005b9f0       ??_G?$ConcreteClassRep@VWorldEditor@@@@UAEPAXI@Z 0045c9f0 f i worldEditor.obj
 0001:0005ba10       ??_ESelection@WorldEditor@@UAEPAXI@Z 0045ca10 f i worldEditor.obj
 0001:0005ba10       ??_GSelection@WorldEditor@@UAEPAXI@Z 0045ca10 f i worldEditor.obj
 0001:0005ba30       ?pasteSelection@WorldEditor@@QAE_NXZ 0045ca30 f   worldEditor.obj
 0001:0005baf0       ?renderPaths@WorldEditor@@AAEXPAVSimObject@@@Z 0045caf0 f   worldEditor.obj
 0001:0005bbf0       ??_GWorldEditor@@UAEPAXI@Z 0045cbf0 f i worldEditor.obj
 0001:0005bbf0       ??_EWorldEditor@@UAEPAXI@Z 0045cbf0 f i worldEditor.obj
 0001:0005bc10       ?renderScene@WorldEditor@@UAEXABVRectI@@@Z 0045cc10 f   worldEditor.obj
 0001:0005c110       ??0Selection@WorldEditor@@QAE@XZ 0045d110 f   worldEditor.obj
 0001:0005c170       ??0WorldEditor@@QAE@XZ     0045d170 f   worldEditor.obj
 0001:0005c4f0       ?create@?$ConcreteClassRep@VWorldEditor@@@@UBEPAVConsoleObject@@XZ 0045d4f0 f i worldEditor.obj
 0001:0005c520       ?getClassRep@AIConnection@@UBEPAVAbstractClassRep@@XZ 0045d520 f   aiConnection.obj
 0001:0005c530       ?getStaticClassRep@AIConnection@@SAPAVAbstractClassRep@@XZ 0045d530 f   aiConnection.obj
 0001:0005c540       ?getParentStaticClassRep@AIConnection@@SAPAVAbstractClassRep@@XZ 0045d540 f   aiConnection.obj
 0001:0005c550       ??0AIConnection@@QAE@XZ    0045d550 f   aiConnection.obj
 0001:0005c590       ?clearMoves@AIConnection@@UAEXI@Z 0045d590 f   aiConnection.obj
 0001:0005c5a0       ?setMove@AIConnection@@QAEXPAUMove@@@Z 0045d5a0 f   aiConnection.obj
 0001:0005c5c0       ?getMove@AIConnection@@QAEABUMove@@XZ 0045d5c0 f   aiConnection.obj
 0001:0005c5d0       ?getMoveList@AIConnection@@UAEXPAPAUMove@@PAI@Z 0045d5d0 f   aiConnection.obj
 0001:0005c7d0       ?getClientGroup@Sim@@YAPAVSimGroup@@XZ 0045d7d0 f i aiConnection.obj
 0001:0005c7e0       ??_EAIConnection@@WKA@AEPAXI@Z 0045d7e0 f i aiConnection.obj
 0001:0005c7f0       ??_EAIConnection@@UAEPAXI@Z 0045d7f0 f i aiConnection.obj
 0001:0005c7f0       ??_GAIConnection@@UAEPAXI@Z 0045d7f0 f i aiConnection.obj
 0001:0005c810       ??1AIConnection@@UAE@XZ    0045d810 f i aiConnection.obj
 0001:0005cc50       ??1?$ConcreteClassRep@VAIConnection@@@@UAE@XZ 0045dc50 f i aiConnection.obj
 0001:0005cca0       ??0?$ConcreteClassRep@VAIConnection@@@@QAE@PBDHHH@Z 0045dca0 f i aiConnection.obj
 0001:0005cd20       ?init@?$ConcreteClassRep@VAIConnection@@@@UBEXXZ 0045dd20 f i aiConnection.obj
 0001:0005cd50       ?create@?$ConcreteClassRep@VAIConnection@@@@UBEPAVConsoleObject@@XZ 0045dd50 f i aiConnection.obj
 0001:0005cd80       ??_E?$ConcreteClassRep@VAIConnection@@@@UAEPAXI@Z 0045dd80 f i aiConnection.obj
 0001:0005cd80       ??_G?$ConcreteClassRep@VAIConnection@@@@UAEPAXI@Z 0045dd80 f i aiConnection.obj
 0001:0005cda0       ?getClassRep@AIPlayer@@UBEPAVAbstractClassRep@@XZ 0045dda0 f   aiPlayer.obj
 0001:0005cdb0       ?getStaticClassRep@AIPlayer@@SAPAVAbstractClassRep@@XZ 0045ddb0 f   aiPlayer.obj
 0001:0005cdc0       ?getParentStaticClassRep@AIPlayer@@SAPAVAbstractClassRep@@XZ 0045ddc0 f   aiPlayer.obj
 0001:0005cdd0       ?stopMove@AIPlayer@@QAEXXZ 0045ddd0 f   aiPlayer.obj
 0001:0005cde0       ?setMoveDestination@AIPlayer@@QAEXABVPoint3F@@_N@Z 0045dde0 f   aiPlayer.obj
 0001:0005ce30       ??0?$SimObjectPtr@VGameBase@@@@QAE@XZ 0045de30 f i aiPlayer.obj
 0001:0005ce40       ??1?$SimObjectPtr@VGameBase@@@@QAE@XZ 0045de40 f i aiPlayer.obj
 0001:0005ce50       ??4?$SimObjectPtr@VGameBase@@@@QAEAAV0@PAVGameBase@@@Z 0045de50 f i aiPlayer.obj
 0001:0005ce80       ??C?$SimObjectPtr@VGameBase@@@@QBEPAVGameBase@@XZ 0045de80 f i aiPlayer.obj
 0001:0005ce90       ??B?$SimObjectPtr@VGameBase@@@@QBEPAVGameBase@@XZ 0045de90 f i aiPlayer.obj
 0001:0005cea0       ??$findObject@VGameBase@@@Sim@@YA_NPBDAAPAVGameBase@@@Z 0045dea0 f i aiPlayer.obj
 0001:0005cee0       ?getBoxCenter@SceneObject@@QBE?AVPoint3F@@XZ 0045dee0 f i aiPlayer.obj
 0001:0005cf40       ?getDataBlock@GameBase@@QAEPAUGameBaseData@@XZ 0045df40 f i aiPlayer.obj
 0001:0005cf50       ?getRotation@Player@@QAEABVPoint3F@@XZ 0045df50 f i aiPlayer.obj
 0001:0005cf60       ?getHeadRotation@Player@@QAEABVPoint3F@@XZ 0045df60 f i aiPlayer.obj
 0001:0005cf70       ?getAimObject@AIPlayer@@QBEPAVGameBase@@XZ 0045df70 f i aiPlayer.obj
 0001:0005cf80       ?getAimLocation@AIPlayer@@QBE?AVPoint3F@@XZ 0045df80 f i aiPlayer.obj
 0001:0005cfb0       ?getMoveDestination@AIPlayer@@QBE?AVPoint3F@@XZ 0045dfb0 f i aiPlayer.obj
 0001:0005cfe0       ?isZero@@YA_NM@Z           0045dfe0 f i aiPlayer.obj
 0001:0005d000       ??0AIPlayer@@QAE@XZ        0045e000 f   aiPlayer.obj
 0001:0005d0a0       ??1AIPlayer@@UAE@XZ        0045e0a0 f   aiPlayer.obj
 0001:0005d100       ?setMoveSpeed@AIPlayer@@QAEXM@Z 0045e100 f   aiPlayer.obj
 0001:0005d150       ?setMoveTolerance@AIPlayer@@QAEXM@Z 0045e150 f   aiPlayer.obj
 0001:0005d180       ?setAimObject@AIPlayer@@QAEXPAVGameBase@@@Z 0045e180 f   aiPlayer.obj
 0001:0005d1c0       ?setAimLocation@AIPlayer@@QAEXABVPoint3F@@@Z 0045e1c0 f   aiPlayer.obj
 0001:0005d210       ?clearAim@AIPlayer@@QAEXXZ 0045e210 f   aiPlayer.obj
 0001:0005d240       ?throwCallback@AIPlayer@@AAEXPBD@Z 0045e240 f   aiPlayer.obj
 0001:0005d5b0       ??1?$ConcreteClassRep@VAIPlayer@@@@UAE@XZ 0045e5b0 f i aiPlayer.obj
 0001:0005d5d0       ??_GAIPlayer@@UAEPAXI@Z    0045e5d0 f i aiPlayer.obj
 0001:0005d5d0       ??_EAIPlayer@@UAEPAXI@Z    0045e5d0 f i aiPlayer.obj
 0001:0005d700       ?getAIMove@AIPlayer@@UAE_NPAUMove@@@Z 0045e700 f   aiPlayer.obj
 0001:0005dd10       ??0?$ConcreteClassRep@VAIPlayer@@@@QAE@PBDHHH@Z 0045ed10 f i aiPlayer.obj
 0001:0005dd90       ?init@?$ConcreteClassRep@VAIPlayer@@@@UBEXXZ 0045ed90 f i aiPlayer.obj
 0001:0005ddc0       ?create@?$ConcreteClassRep@VAIPlayer@@@@UBEPAVConsoleObject@@XZ 0045edc0 f i aiPlayer.obj
 0001:0005ddf0       ??_E?$ConcreteClassRep@VAIPlayer@@@@UAEPAXI@Z 0045edf0 f i aiPlayer.obj
 0001:0005ddf0       ??_G?$ConcreteClassRep@VAIPlayer@@@@UAEPAXI@Z 0045edf0 f i aiPlayer.obj
 0001:0005de10       ?updateEmitter@AmbientAudioManager@@AAEXPAVAudioEmitter@@@Z 0045ee10 f   ambientAudioManager.obj
 0001:0005de50       ??0?$SimObjectPtr@VInteriorInstance@@@@QAE@XZ 0045ee50 f i ambientAudioManager.obj
 0001:0005de60       ??1?$SimObjectPtr@VInteriorInstance@@@@QAE@XZ 0045ee60 f i ambientAudioManager.obj
 0001:0005de70       ??4?$SimObjectPtr@VInteriorInstance@@@@QAEAAV0@PAVInteriorInstance@@@Z 0045ee70 f i ambientAudioManager.obj
 0001:0005dea0       ??C?$SimObjectPtr@VInteriorInstance@@@@QBEPAVInteriorInstance@@XZ 0045eea0 f i ambientAudioManager.obj
 0001:0005deb0       ??B?$SimObjectPtr@VInteriorInstance@@@@QBEPAVInteriorInstance@@XZ 0045eeb0 f i ambientAudioManager.obj
 0001:0005dec0       ??0?$SimObjectPtr@VAudioEnvironment@@@@QAE@XZ 0045eec0 f i ambientAudioManager.obj
 0001:0005ded0       ??1?$SimObjectPtr@VAudioEnvironment@@@@QAE@XZ 0045eed0 f i ambientAudioManager.obj
 0001:0005dee0       ??4?$SimObjectPtr@VAudioEnvironment@@@@QAEAAV0@PAVAudioEnvironment@@@Z 0045eee0 f i ambientAudioManager.obj
 0001:0005df10       ??B?$SimObjectPtr@VAudioEnvironment@@@@QBEPAVAudioEnvironment@@XZ 0045ef10 f i ambientAudioManager.obj
 0001:0005df20       ??0?$SimObjectPtr@VAudioProfile@@@@QAE@XZ 0045ef20 f i ambientAudioManager.obj
 0001:0005df30       ??1?$SimObjectPtr@VAudioProfile@@@@QAE@XZ 0045ef30 f i ambientAudioManager.obj
 0001:0005df40       ??4?$SimObjectPtr@VAudioProfile@@@@QAEAAV0@PAVAudioProfile@@@Z 0045ef40 f i ambientAudioManager.obj
 0001:0005df70       ??B?$SimObjectPtr@VAudioProfile@@@@QBEPAVAudioProfile@@XZ 0045ef70 f i ambientAudioManager.obj
 0001:0005df80       ??1?$Vector@PAVAudioEmitter@@@@QAE@XZ 0045ef80 f i ambientAudioManager.obj
 0001:0005df90       ?size@?$Vector@PAVAudioEmitter@@@@QBEHXZ 0045ef90 f i ambientAudioManager.obj
 0001:0005dfa0       ??A?$Vector@PAVAudioEmitter@@@@QAEAAPAVAudioEmitter@@I@Z 0045efa0 f i ambientAudioManager.obj
 0001:0005dfb0       ??A?$Vector@USurface@Interior@@@@QBEABUSurface@Interior@@I@Z 0045efb0 f i ambientAudioManager.obj
 0001:0005dfc0       ?decrement@?$Vector@PAVAudioEmitter@@@@QAEXI@Z 0045efc0 f i ambientAudioManager.obj
 0001:0005dfe0       ?resize@?$Vector@PAVAudioEmitter@@@@IAE_NI@Z 0045efe0 f i ambientAudioManager.obj
 0001:0005e000       ?alxGetListenerPoint3F@@YAXHPAVPoint3F@@@Z 0045f000 f i ambientAudioManager.obj
 0001:0005e020       ?inAlarmState@InteriorInstance@@QAE_NXZ 0045f020 f i ambientAudioManager.obj
 0001:0005e030       ?getAudioProfile@InteriorInstance@@QAEPAVAudioProfile@@XZ 0045f030 f i ambientAudioManager.obj
 0001:0005e040       ?getAudioEnvironment@InteriorInstance@@QAEPAVAudioEnvironment@@XZ 0045f040 f i ambientAudioManager.obj
 0001:0005e050       ?isSurfaceOutsideVisible@Interior@@QBE?B_NI@Z 0045f050 f i ambientAudioManager.obj
 0001:0005e070       ?getAudioEnvironment@WaterBlock@@QAEPAVAudioEnvironment@@XZ 0045f070 f i ambientAudioManager.obj
 0001:0005e080       ??1AmbientAudioManager@@QAE@XZ 0045f080 f i ambientAudioManager.obj
 0001:0005e1d0       ?stopInteriorAudio@AmbientAudioManager@@AAEXXZ 0045f1d0 f   ambientAudioManager.obj
 0001:0005e220       ?erase_fast@?$Vector@PAVAudioEmitter@@@@QAEXI@Z 0045f220 f i ambientAudioManager.obj
 0001:0005e260       ?reserve@?$Vector@PAVAudioEmitter@@@@QAEXI@Z 0045f260 f i ambientAudioManager.obj
 0001:0005e290       ?increment@?$Vector@PAVAudioEmitter@@@@QAEXI@Z 0045f290 f i ambientAudioManager.obj
 0001:0005e2c0       ?removeEmitter@AmbientAudioManager@@QAEXPAVAudioEmitter@@@Z 0045f2c0 f   ambientAudioManager.obj
 0001:0005e330       ??0?$Vector@PAVAudioEmitter@@@@QAE@I@Z 0045f330 f i ambientAudioManager.obj
 0001:0005e380       ?push_back@?$Vector@PAVAudioEmitter@@@@QAEXABQAVAudioEmitter@@@Z 0045f380 f i ambientAudioManager.obj
 0001:0005e3c0       ??0AmbientAudioManager@@QAE@XZ 0045f3c0 f   ambientAudioManager.obj
 0001:0005e3f0       ?addEmitter@AmbientAudioManager@@QAEXPAVAudioEmitter@@@Z 0045f3f0 f   ambientAudioManager.obj
 0001:0005e460       ?getOutsideScale@AmbientAudioManager@@AAE_NPAMPAPAVInteriorInstance@@@Z 0045f460 f   ambientAudioManager.obj
 0001:0005e620       ?updateEnvironment@AmbientAudioManager@@AAEXXZ 0045f620 f   ambientAudioManager.obj
 0001:0005e7b0       ?update@AmbientAudioManager@@QAEXXZ 0045f7b0 f   ambientAudioManager.obj
 0001:0005ea30       ?getClassRep@AudioEmitter@@UBEPAVAbstractClassRep@@XZ 0045fa30 f   audioEmitter.obj
 0001:0005ea40       ?getStaticClassRep@AudioEmitter@@SAPAVAbstractClassRep@@XZ 0045fa40 f   audioEmitter.obj
 0001:0005ea50       ?getParentStaticClassRep@AudioEmitter@@SAPAVAbstractClassRep@@XZ 0045fa50 f   audioEmitter.obj
 0001:0005ea60       ?clear@BitSet32@@QAEXXZ    0045fa60 f i audioEmitter.obj
 0001:0005ea70       ??4BitSet32@@QAEAAV0@I@Z   0045fa70 f i audioEmitter.obj
 0001:0005ea80       ?setScale@AudioEmitter@@UAEXABVPoint3F@@@Z 0045fa80 f   audioEmitter.obj
 0001:0005ea90       ?render3DVisualFeedBack@AudioEmitter@@QAEXXZ 0045fa90 f   audioEmitter.obj
 0001:0005efc0       ?mClamp@@YAHHHH@Z          0045ffc0 f i audioEmitter.obj
 0001:0005efe0       ??B?$Resource@VAudioBuffer@@@@QBE_NXZ 0045ffe0 f i audioEmitter.obj
 0001:0005f000       ??C?$Resource@VAudioBuffer@@@@QAEPAVAudioBuffer@@XZ 00460000 f i audioEmitter.obj
 0001:0005f010       ?unlock@?$Resource@VAudioBuffer@@@@QAEXXZ 00460010 f i audioEmitter.obj
 0001:0005f030       ??9Point3F@@QBE_NABV0@@Z   00460030 f i audioEmitter.obj
 0001:0005f080       ?setLastState@SceneObject@@IAEXPAVSceneState@@I@Z 00460080 f i audioEmitter.obj
 0001:0005f0a0       ?isLastState@SceneObject@@IBE_NPAVSceneState@@I@Z 004600a0 f i audioEmitter.obj
 0001:0005f0d0       ?writeRangedU32@BitStream@@QAEXIII@Z 004600d0 f i audioEmitter.obj
 0001:0005f110       ?readRangedU32@BitStream@@QAEIII@Z 00460110 f i audioEmitter.obj
 0001:0005f140       ?getDescription@AudioDescription@@QBEPBUDescription@Audio@@XZ 00460140 f i audioEmitter.obj
 0001:0005f150       ?getDescription@AudioProfile@@QBEPBUDescription@Audio@@XZ 00460150 f i audioEmitter.obj
 0001:0005f160       ??0Description@Audio@@QAE@XZ 00460160 f i audioEmitter.obj
 0001:0005f170       ??0AudioEmitterLoopEvent@@QAE@XZ 00460170 f i audioEmitter.obj
 0001:0005f180       ?onRemove@AudioEmitter@@UAEXXZ 00460180 f   audioEmitter.obj
 0001:0005f1c0       ?setTransform@AudioEmitter@@UAEXABVMatrixF@@@Z 004601c0 f   audioEmitter.obj
 0001:0005f220       ?renderObject@AudioEmitter@@UAEXPAVSceneState@@PAVSceneRenderImage@@@Z 00460220 f   audioEmitter.obj
 0001:0005f3f0       ?inspectPreApply@AudioEmitter@@UAEXXZ 004603f0 f   audioEmitter.obj
 0001:0005f480       ?inspectPostApply@AudioEmitter@@UAEXXZ 00460480 f   audioEmitter.obj
 0001:0005f7b0       ?packData@AudioEmitter@@QAEXPAVNetConnection@@IPAVBitStream@@@Z 004607b0 f   audioEmitter.obj
 0001:0005feb0       ?packUpdate@AudioEmitter@@UAEIPAVNetConnection@@IPAVBitStream@@@Z 00460eb0 f   audioEmitter.obj
 0001:0005fef0       ?readDirtyFlag@AudioEmitter@@AAE_NPAVBitStream@@I@Z 00460ef0 f   audioEmitter.obj
 0001:0005ff50       ?initPersistFields@AudioEmitter@@SAXXZ 00460f50 f   audioEmitter.obj
 0001:00060220       ??1?$Resource@VAudioBuffer@@@@QAE@XZ 00461220 f i audioEmitter.obj
 0001:00060240       ??0SceneRenderImage@@QAE@XZ 00461240 f i audioEmitter.obj
 0001:00060260       ??_GSceneRenderImage@@UAEPAXI@Z 00461260 f i audioEmitter.obj
 0001:00060260       ??_ESceneRenderImage@@UAEPAXI@Z 00461260 f i audioEmitter.obj
 0001:00060280       ??1?$ConcreteClassRep@VAudioEmitter@@@@UAE@XZ 00461280 f i audioEmitter.obj
 0001:000602a0       ??0AudioEmitter@@QAE@_N@Z  004612a0 f   audioEmitter.obj
 0001:00060350       ??_EAudioEmitter@@UAEPAXI@Z 00461350 f i audioEmitter.obj
 0001:00060350       ??_GAudioEmitter@@UAEPAXI@Z 00461350 f i audioEmitter.obj
 0001:00060370       ??1AudioEmitter@@UAE@XZ    00461370 f i audioEmitter.obj
 0001:00060380       ??_EAudioEmitterLoopEvent@@UAEPAXI@Z 00461380 f i audioEmitter.obj
 0001:00060380       ??_GAudioEmitterLoopEvent@@UAEPAXI@Z 00461380 f i audioEmitter.obj
 0001:000603a0       ??1AudioEmitterLoopEvent@@UAE@XZ 004613a0 f i audioEmitter.obj
 0001:000603b0       ?update@AudioEmitter@@QAE_NXZ 004613b0 f   audioEmitter.obj
 0001:000608e0       ?onAdd@AudioEmitter@@UAE_NXZ 004618e0 f   audioEmitter.obj
 0001:00060af0       ?prepRenderImage@AudioEmitter@@UAE_NPAVSceneState@@II_N@Z 00461af0 f   audioEmitter.obj
 0001:00060b80       ?unpackData@AudioEmitter@@QAEXPAVNetConnection@@PAVBitStream@@@Z 00461b80 f   audioEmitter.obj
 0001:00061090       ?unpackUpdate@AudioEmitter@@UAEXPAVNetConnection@@PAVBitStream@@@Z 00462090 f   audioEmitter.obj
 0001:000610c0       ?processLoopEvent@AudioEmitter@@QAEXXZ 004620c0 f   audioEmitter.obj
 0001:000611c0       ??0?$ConcreteClassRep@VAudioEmitter@@@@QAE@PBDHHH@Z 004621c0 f i audioEmitter.obj
 0001:00061240       ?init@?$ConcreteClassRep@VAudioEmitter@@@@UBEXXZ 00462240 f i audioEmitter.obj
 0001:00061270       ?create@?$ConcreteClassRep@VAudioEmitter@@@@UBEPAVConsoleObject@@XZ 00462270 f i audioEmitter.obj
 0001:000612a0       ??_G?$ConcreteClassRep@VAudioEmitter@@@@UAEPAXI@Z 004622a0 f i audioEmitter.obj
 0001:000612a0       ??_E?$ConcreteClassRep@VAudioEmitter@@@@UAEPAXI@Z 004622a0 f i audioEmitter.obj
 0001:000612c0       ?process@AudioEmitterLoopEvent@@UAEXPAVSimObject@@@Z 004622c0 f i audioEmitter.obj
 0001:000612d0       ?getClassRep@BanList@@UBEPAVAbstractClassRep@@XZ 004622d0 f   banList.obj
 0001:000612e0       ?getStaticClassRep@BanList@@SAPAVAbstractClassRep@@XZ 004622e0 f   banList.obj
 0001:000612f0       ?getParentStaticClassRep@BanList@@SAPAVAbstractClassRep@@XZ 004622f0 f   banList.obj
 0001:00061300       ??1?$Vector@UBanInfo@BanList@@@@QAE@XZ 00462300 f i banList.obj
 0001:00061310       ?begin@?$Vector@UBanInfo@BanList@@@@QAEPAUBanInfo@BanList@@XZ 00462310 f i banList.obj
 0001:00061320       ?end@?$Vector@UBanInfo@BanList@@@@QAEPAUBanInfo@BanList@@XZ 00462320 f i banList.obj
 0001:00061330       ?resize@?$Vector@UBanInfo@BanList@@@@IAE_NI@Z 00462330 f i banList.obj
 0001:00061350       ?decrement@?$Vector@UBanInfo@BanList@@@@QAEXI@Z 00462350 f i banList.obj
 0001:00061370       ??1BanList@@UAE@XZ         00462370 f i banList.obj
 0001:000613d0       ??_EBanList@@UAEPAXI@Z     004623d0 f i banList.obj
 0001:000613d0       ??_GBanList@@UAEPAXI@Z     004623d0 f i banList.obj
 0001:000613f0       ?isTAEq@BanList@@QAE_NPBD0@Z 004623f0 f   banList.obj
 0001:00061450       ?exportToFile@BanList@@QAEXPBD@Z 00462450 f   banList.obj
 0001:000615b0       ?erase@?$Vector@UBanInfo@BanList@@@@QAEXI@Z 004625b0 f i banList.obj
 0001:00061600       ?reserve@?$Vector@UBanInfo@BanList@@@@QAEXI@Z 00462600 f i banList.obj
 0001:00061640       ?increment@?$Vector@UBanInfo@BanList@@@@QAEXI@Z 00462640 f i banList.obj
 0001:00061670       ??1?$ConcreteClassRep@VBanList@@@@UAE@XZ 00462670 f i banList.obj
 0001:000616b0       ??0?$Vector@UBanInfo@BanList@@@@QAE@I@Z 004626b0 f i banList.obj
 0001:00061700       ?erase@?$Vector@UBanInfo@BanList@@@@QAEXPAUBanInfo@BanList@@@Z 00462700 f i banList.obj
 0001:00061760       ?push_back@?$Vector@UBanInfo@BanList@@@@QAEXABUBanInfo@BanList@@@Z 00462760 f i banList.obj
 0001:000617b0       ??0BanList@@QAE@XZ         004627b0 f i banList.obj
 0001:00061800       ?addBan@BanList@@QAEXHPBDH@Z 00462800 f   banList.obj
 0001:00061940       ?addBanRelative@BanList@@QAEXHPBDH@Z 00462940 f   banList.obj
 0001:00061970       ?removeBan@BanList@@QAEXHPBD@Z 00462970 f   banList.obj
 0001:000619c0       ?isBanned@BanList@@QAE_NHPBD@Z 004629c0 f   banList.obj
 0001:00061bd0       ??0?$ConcreteClassRep@VBanList@@@@QAE@PBDHHH@Z 00462bd0 f i banList.obj
 0001:00061c50       ?init@?$ConcreteClassRep@VBanList@@@@UBEXXZ 00462c50 f i banList.obj
 0001:00061c80       ??_G?$ConcreteClassRep@VBanList@@@@UAEPAXI@Z 00462c80 f i banList.obj
 0001:00061c80       ??_E?$ConcreteClassRep@VBanList@@@@UAEPAXI@Z 00462c80 f i banList.obj
 0001:00061ca0       ?create@?$ConcreteClassRep@VBanList@@@@UBEPAVConsoleObject@@XZ 00462ca0 f i banList.obj
 0001:00061cd0       ?getClassRep@CameraData@@UBEPAVAbstractClassRep@@XZ 00462cd0 f   camera.obj
 0001:00061ce0       ?getStaticClassRep@CameraData@@SAPAVAbstractClassRep@@XZ 00462ce0 f   camera.obj
 0001:00061cf0       ?getParentStaticClassRep@CameraData@@SAPAVAbstractClassRep@@XZ 00462cf0 f   camera.obj
 0001:00061d00       ?initPersistFields@CameraData@@SAXXZ 00462d00 f   camera.obj
 0001:00061d10       ?packData@CameraData@@UAEXPAVBitStream@@@Z 00462d10 f   camera.obj
 0001:00061d20       ?unpackData@CameraData@@UAEXPAVBitStream@@@Z 00462d20 f   camera.obj
 0001:00061d30       ?getClassRep@Camera@@UBEPAVAbstractClassRep@@XZ 00462d30 f   camera.obj
 0001:00061d40       ?getStaticClassRep@Camera@@SAPAVAbstractClassRep@@XZ 00462d40 f   camera.obj
 0001:00061d50       ?getParentStaticClassRep@Camera@@SAPAVAbstractClassRep@@XZ 00462d50 f   camera.obj
 0001:00061d60       ?initPersistFields@Camera@@SAXXZ 00462d60 f   camera.obj
 0001:00061d70       ?consoleInit@Camera@@SAXXZ 00462d70 f   camera.obj
 0001:00061d90       ?getCenter@Box3F@@QBEXPAVPoint3F@@@Z 00462d90 f i camera.obj
 0001:00061dd0       ?mul@MatrixF@@QAEAAV1@ABV1@0@Z 00462dd0 f i camera.obj
 0001:00061df0       ??0QuatF@@QAE@ABVAngAxisF@@@Z 00462df0 f i camera.obj
 0001:00061e10       ?getControllingClient@ShapeBase@@QAEPAVGameConnection@@XZ 00462e10 f i camera.obj
 0001:00061e20       ??1?$ConcreteClassRep@UCameraData@@@@UAE@XZ 00462e20 f i camera.obj
 0001:00061e40       ??1?$ConcreteClassRep@VCamera@@@@UAE@XZ 00462e40 f i camera.obj
 0001:00061e60       ??0StateDelta@Camera@@QAE@XZ 00462e60 f i camera.obj
 0001:00061e70       ??1Camera@@UAE@XZ          00462e70 f   camera.obj
 0001:00061ed0       ?onAdd@Camera@@UAE_NXZ     00462ed0 f   camera.obj
 0001:00061f60       ?onEditorEnable@Camera@@UAEXXZ 00462f60 f   camera.obj
 0001:00061f70       ?onEditorDisable@Camera@@UAEXXZ 00462f70 f   camera.obj
 0001:00061f80       ?onRemove@Camera@@UAEXXZ   00462f80 f   camera.obj
 0001:00061fa0       ?getCameraTransform@Camera@@UAEXPAMPAVMatrixF@@@Z 00462fa0 f   camera.obj
 0001:00062000       ?getCameraFov@Camera@@EAEMXZ 00463000 f   camera.obj
 0001:00062050       ?getDefaultCameraFov@Camera@@EAEMXZ 00463050 f   camera.obj
 0001:000620a0       ?isValidCameraFov@Camera@@EAE_NM@Z 004630a0 f   camera.obj
 0001:000620f0       ?setCameraFov@Camera@@EAEXM@Z 004630f0 f   camera.obj
 0001:00062140       ?onDeleteNotify@Camera@@UAEXPAVSimObject@@@Z 00463140 f   camera.obj
 0001:00062190       ?writePacketData@Camera@@UAEXPAVGameConnection@@PAVBitStream@@@Z 00463190 f   camera.obj
 0001:00062360       ?packUpdate@Camera@@UAEIPAVNetConnection@@IPAVBitStream@@@Z 00463360 f   camera.obj
 0001:00062450       ?getPosition@Camera@@QAEAAVPoint3F@@XZ 00463450 f   camera.obj
 0001:000624d0       ?renderImage@Camera@@UAEXPAVSceneState@@PAVSceneRenderImage@@@Z 004634d0 f   camera.obj
 0001:00062560       ?setFlyMode@Camera@@QAEXXZ 00463560 f   camera.obj
 0001:000625a0       ?getDamageFlash@Camera@@EBEMXZ 004635a0 f   camera.obj
 0001:000625f0       ?getWhiteOut@Camera@@EBEMXZ 004635f0 f   camera.obj
 0001:00062640       ??0Camera@@QAE@XZ          00463640 f   camera.obj
 0001:00062790       ??_GCamera@@UAEPAXI@Z      00463790 f i camera.obj
 0001:00062790       ??_ECamera@@UAEPAXI@Z      00463790 f i camera.obj
 0001:000627b0       ?setPosition@Camera@@AAEXABVPoint3F@@0@Z 004637b0 f   camera.obj
 0001:00062880       ?readPacketData@Camera@@UAEXPAVGameConnection@@PAVBitStream@@@Z 00463880 f   camera.obj
 0001:00062ab0       ?unpackUpdate@Camera@@UAEXPAVNetConnection@@PAVBitStream@@@Z 00463ab0 f   camera.obj
 0001:00062cd0       ?setOrbitMode@Camera@@QAEXPAVGameBase@@AAVPoint3F@@AAVAngAxisF@@MMM_N@Z 00463cd0 f   camera.obj
 0001:00062e90       ?setPosition@Camera@@AAEXABVPoint3F@@0PAVMatrixF@@@Z 00463e90 f   camera.obj
 0001:00062f50       ?setTransform@Camera@@EAEXABVMatrixF@@@Z 00463f50 f   camera.obj
 0001:00063130       ?validateEyePoint@Camera@@QAEXMPAVMatrixF@@@Z 00464130 f   camera.obj
 0001:000633a0       ??0?$ConcreteClassRep@UCameraData@@@@QAE@PBDHHH@Z 004643a0 f i camera.obj
 0001:00063420       ?init@?$ConcreteClassRep@UCameraData@@@@UBEXXZ 00464420 f i camera.obj
 0001:00063450       ?create@?$ConcreteClassRep@UCameraData@@@@UBEPAVConsoleObject@@XZ 00464450 f i camera.obj
 0001:00063480       ??0CameraData@@QAE@XZ      00464480 f i camera.obj
 0001:000634a0       ??_G?$ConcreteClassRep@UCameraData@@@@UAEPAXI@Z 004644a0 f i camera.obj
 0001:000634a0       ??_E?$ConcreteClassRep@UCameraData@@@@UAEPAXI@Z 004644a0 f i camera.obj
 0001:000634c0       ??_GCameraData@@UAEPAXI@Z  004644c0 f i camera.obj
 0001:000634c0       ??_ECameraData@@UAEPAXI@Z  004644c0 f i camera.obj
 0001:000634e0       ??1CameraData@@UAE@XZ      004644e0 f i camera.obj
 0001:000634f0       ??0?$ConcreteClassRep@VCamera@@@@QAE@PBDHHH@Z 004644f0 f i camera.obj
 0001:00063570       ?init@?$ConcreteClassRep@VCamera@@@@UBEXXZ 00464570 f i camera.obj
 0001:000635b0       ??_E?$ConcreteClassRep@VCamera@@@@UAEPAXI@Z 004645b0 f i camera.obj
 0001:000635b0       ??_G?$ConcreteClassRep@VCamera@@@@UAEPAXI@Z 004645b0 f i camera.obj
 0001:000635d0       ?create@?$ConcreteClassRep@VCamera@@@@UBEPAVConsoleObject@@XZ 004645d0 f i camera.obj
 0001:00063600       ?processTick@Camera@@UAEXPBUMove@@@Z 00464600 f   camera.obj
 0001:00063a50       ?interpolateTick@Camera@@UAEXM@Z 00464a50 f   camera.obj
 0001:00063bf0       ?getKnot@CameraSpline@@QAEPAUKnot@1@H@Z 00464bf0 f   cameraSpline.obj
 0001:00063c10       ?remove@CameraSpline@@QAEPAUKnot@1@PAU21@@Z 00464c10 f   cameraSpline.obj
 0001:00063c60       ??1?$Vector@UTimeMap@CameraSpline@@@@QAE@XZ 00464c60 f i cameraSpline.obj
 0001:00063c70       ?begin@?$Vector@UTimeMap@CameraSpline@@@@QAEPAUTimeMap@CameraSpline@@XZ 00464c70 f i cameraSpline.obj
 0001:00063c80       ?end@?$Vector@UTimeMap@CameraSpline@@@@QAEPAUTimeMap@CameraSpline@@XZ 00464c80 f i cameraSpline.obj
 0001:00063c90       ?clear@?$Vector@UTimeMap@CameraSpline@@@@QAEXXZ 00464c90 f i cameraSpline.obj
 0001:00063ca0       ?resize@?$Vector@UTimeMap@CameraSpline@@@@IAE_NI@Z 00464ca0 f i cameraSpline.obj
 0001:00063cc0       ?increment@?$Vector@UTimeMap@CameraSpline@@@@QAEXI@Z 00464cc0 f i cameraSpline.obj
 0001:00063cf0       ?mCatmullrom@@YAMMMMMM@Z   00464cf0 f i cameraSpline.obj
 0001:00063d00       ?next@CameraSpline@@QAEPAUKnot@1@PAU21@@Z 00464d00 f i cameraSpline.obj
 0001:00063d10       ?prev@CameraSpline@@QAEPAUKnot@1@PAU21@@Z 00464d10 f i cameraSpline.obj
 0001:00063d20       ??0Knot@CameraSpline@@QAE@ABU01@@Z 00464d20 f   cameraSpline.obj
 0001:00063d80       ??0Knot@CameraSpline@@QAE@ABVPoint3F@@ABVQuatF@@MW4Type@01@W4Path@01@@Z 00464d80 f   cameraSpline.obj
 0001:00063de0       ?push_back@CameraSpline@@QAEXPAUKnot@1@@Z 00464de0 f   cameraSpline.obj
 0001:00063e30       ?removeAll@CameraSpline@@QAEXXZ 00464e30 f   cameraSpline.obj
 0001:00063e90       ?getDistance@CameraSpline@@QAEMM@Z 00464e90 f   cameraSpline.obj
 0001:00063ef0       ?getTime@CameraSpline@@QAEMM@Z 00464ef0 f   cameraSpline.obj
 0001:00063f70       ?push_back@?$Vector@UTimeMap@CameraSpline@@@@QAEXABUTimeMap@CameraSpline@@@Z 00464f70 f i cameraSpline.obj
 0001:00063fb0       ?reserve@?$Vector@UTimeMap@CameraSpline@@@@QAEXI@Z 00464fb0 f i cameraSpline.obj
 0001:00063fe0       ??1CameraSpline@@QAE@XZ    00464fe0 f   cameraSpline.obj
 0001:00064030       ?buildTimeMap@CameraSpline@@AAEXXZ 00465030 f   cameraSpline.obj
 0001:000642c0       ?advanceDist@CameraSpline@@QAEMMM@Z 004652c0 f   cameraSpline.obj
 0001:000642f0       ?value@CameraSpline@@QAEXMPAUKnot@1@_N@Z 004652f0 f   cameraSpline.obj
 0001:000645f0       ??0?$Vector@UTimeMap@CameraSpline@@@@QAE@I@Z 004655f0 f i cameraSpline.obj
 0001:00064640       ??0CameraSpline@@QAE@XZ    00465640 f   cameraSpline.obj
 0001:00064660       ?renderTimeMap@CameraSpline@@QAEXXZ 00465660 f   cameraSpline.obj
 0001:00064770       ?advanceTime@CameraSpline@@QAEMMH@Z 00465770 f   cameraSpline.obj
 0001:000647c0       ??1?$Chunker@UBSPNode@@@@QAE@XZ 004657c0 f i collisionTest.obj
 0001:000647d0       ?consoleInit@CollisionTest@@SAXXZ 004657d0 f   collisionTest.obj
 0001:00064860       ?callback@CollisionTest@@SAXPAVSceneObject@@PAX@Z 00465860 f   collisionTest.obj
 0001:00064900       ??0?$Chunker@UBSPNode@@@@QAE@H@Z 00465900 f i collisionTest.obj
 0001:00064920       ?clear@?$Chunker@UBSPNode@@@@QAEXXZ 00465920 f i collisionTest.obj
 0001:00064930       ??1?$Vector@UEdge@Polyhedron@@@@QAE@XZ 00465930 f i collisionTest.obj
 0001:00064940       ??0SphereF@@QAE@XZ         00465940 f i collisionTest.obj
 0001:00064950       ?didIntersect@Polytope@@QAE_NXZ 00465950 f i collisionTest.obj
 0001:00064960       ??1Polytope@@QAE@XZ        00465960 f i collisionTest.obj
 0001:000649d0       ??1Polyhedron@@QAE@XZ      004659d0 f i collisionTest.obj
 0001:00064a30       ??1CollisionTest@@QAE@XZ   00465a30 f   collisionTest.obj
 0001:00064ac0       ?render@CollisionTest@@QAEXXZ 00465ac0 f   collisionTest.obj
 0001:00064bf0       ?reserve@?$Vector@UEdge@Polyhedron@@@@QAEXI@Z 00465bf0 f i collisionTest.obj
 0001:00064c20       ??0CollisionList@@QAE@XZ   00465c20 f i collisionTest.obj
 0001:00064c30       ?collide@CollisionTest@@QAEXABVMatrixF@@@Z 00465c30 f   collisionTest.obj
 0001:000658f0       ??0?$Vector@UEdge@Polyhedron@@@@QAE@I@Z 004668f0 f i collisionTest.obj
 0001:00065940       ??0Polyhedron@@QAE@XZ      00466940 f i collisionTest.obj
 0001:00065990       ??0CollisionTest@@QAE@XZ   00466990 f   collisionTest.obj
 0001:00065a50       ?getClassRep@DebrisData@@UBEPAVAbstractClassRep@@XZ 00466a50 f   debris.obj
 0001:00065a60       ?getStaticClassRep@DebrisData@@SAPAVAbstractClassRep@@XZ 00466a60 f   debris.obj
 0001:00065a70       ?getParentStaticClassRep@DebrisData@@SAPAVAbstractClassRep@@XZ 00466a70 f   debris.obj
 0001:00065a80       ??_GTSShapeInstance@@QAEPAXI@Z 00466a80 f i debris.obj
 0001:00065aa0       ?getClassRep@Debris@@UBEPAVAbstractClassRep@@XZ 00466aa0 f   debris.obj
 0001:00065ab0       ?getStaticClassRep@Debris@@SAPAVAbstractClassRep@@XZ 00466ab0 f   debris.obj
 0001:00065ac0       ?getParentStaticClassRep@Debris@@SAPAVAbstractClassRep@@XZ 00466ac0 f   debris.obj
 0001:00065ad0       ??_GTSPartInstance@@QAEPAXI@Z 00466ad0 f i debris.obj
 0001:00065af0       ?initPersistFields@Debris@@SAXXZ 00466af0 f   debris.obj
 0001:00065b30       ?onNewDataBlock@Debris@@UAE_NPAUGameBaseData@@@Z 00466b30 f   debris.obj
 0001:00065b80       ?processTick@Debris@@MAEXPBUMove@@@Z 00466b80 f   debris.obj
 0001:00065ba0       ?setSize@Debris@@QAEXM@Z   00466ba0 f   debris.obj
 0001:00065bb0       ??0?$Resource@VTSShape@@@@QAE@XZ 00466bb0 f i debris.obj
 0001:00065bc0       ??B?$Resource@VTSShape@@@@QBE_NXZ 00466bc0 f i debris.obj
 0001:00065be0       ??C?$Resource@VTSShape@@@@QAEPAVTSShape@@XZ 00466be0 f i debris.obj
 0001:00065bf0       ?_unlock@?$Resource@VTSShape@@@@AAEXXZ 00466bf0 f i debris.obj
 0001:00065c10       ?unlock@?$Resource@VTSShape@@@@QAEXXZ 00466c10 f i debris.obj
 0001:00065c30       ??$findObject@VParticleEmitterData@@@Sim@@YA_NIAAPAVParticleEmitterData@@@Z 00466c30 f i debris.obj
 0001:00065c70       ??$findObject@VExplosionData@@@Sim@@YA_NIAAPAVExplosionData@@@Z 00466c70 f i debris.obj
 0001:00065cb0       ??$findObject@UDebrisData@@@Sim@@YA_NPBDAAPAUDebrisData@@@Z 00466cb0 f i debris.obj
 0001:00065cf0       ??0Box3F@@QAE@ABVPoint3F@@0_N@Z 00466cf0 f i debris.obj
 0001:00065d40       ?removeFromProcessList@GameBase@@QAEXXZ 00466d40 f i debris.obj
 0001:00065d50       ?addObject@ProcessList@@QAEXPAVGameBase@@@Z 00466d50 f i debris.obj
 0001:00065d60       ?setVelocity@Debris@@QAEXABVPoint3F@@@Z 00466d60 f i debris.obj
 0001:00065d80       ?getCameraPosition@SceneState@@QBEABVPoint3F@@XZ 00466d80 f i debris.obj
 0001:00065d90       ?getFogColor@SceneState@@QAE?AVColorF@@XZ 00466d90 f i debris.obj
 0001:00065dc0       ?get@DetailManager@@CAPAV1@XZ 00466dc0 f i debris.obj
 0001:00065dd0       ?selectPotentialDetails@DetailManager@@SAXPAVTSShapeInstance@@MM@Z 00466dd0 f i debris.obj
 0001:00065df0       ?selectCurrentDetail@DetailManager@@SA_NPAVTSShapeInstance@@@Z 00466df0 f i debris.obj
 0001:00065e10       ?selectPotentialDetails@DetailManager@@SAXPAVTSPartInstance@@MM@Z 00466e10 f i debris.obj
 0001:00065e30       ?selectCurrentDetail@DetailManager@@SA_NPAVTSPartInstance@@@Z 00466e30 f i debris.obj
 0001:00065e50       ?setOverrideFade@TSMesh@@SAXM@Z 00466e50 f i debris.obj
 0001:00065e60       ?getSourceShapeInstance@TSPartInstance@@QAEPAVTSShapeInstance@@XZ 00466e60 f i debris.obj
 0001:00065e70       ?getBounds@TSPartInstance@@QAEAAVBox3F@@XZ 00466e70 f i debris.obj
 0001:00065e80       ?getRadius@TSPartInstance@@QAEAAMXZ 00466e80 f i debris.obj
 0001:00065e90       ?render@TSPartInstance@@QAEXPBVPoint3F@@@Z 00466e90 f i debris.obj
 0001:00065eb0       ?getCurrentObjectDetail@TSPartInstance@@QAEHXZ 00466eb0 f i debris.obj
 0001:00065ec0       ??1GameBaseData@@UAE@XZ    00466ec0 f i debris.obj
 0001:00065ed0       ?onAdd@DebrisData@@UAE_NXZ 00466ed0 f   debris.obj
 0001:00066200       ?setDataTypeDataBlockPtrDebrisData@@YAXPAXHPAPBDPAUEnumTable@@VBitSet32@@@Z 00467200 f   debris.obj
 0001:00066260       ?getDataTypeDataBlockPtrDebrisData@@YAPBDPAXPAUEnumTable@@VBitSet32@@@Z 00467260 f   debris.obj
 0001:00066280       ?initPersistFields@DebrisData@@SAXXZ 00467280 f   debris.obj
 0001:00066500       ?packData@DebrisData@@UAEXPAVBitStream@@@Z 00467500 f   debris.obj
 0001:000667d0       ?unpackData@DebrisData@@UAEXPAVBitStream@@@Z 004677d0 f   debris.obj
 0001:00066b10       ??1?$ConcreteClassRep@VDebris@@@@UAE@XZ 00467b10 f i debris.obj
 0001:00066b30       ??1Debris@@UAE@XZ          00467b30 f   debris.obj
 0001:00066bd0       ?init@Debris@@QAEXABVPoint3F@@0@Z 00467bd0 f   debris.obj
 0001:00066c00       ?onRemove@Debris@@MAEXXZ   00467c00 f   debris.obj
 0001:00066c80       ?render2D@Debris@@AAEXXZ   00467c80 f   debris.obj
 0001:00066d80       ??1?$Resource@VTSShape@@@@QAE@XZ 00467d80 f i debris.obj
 0001:00066da0       ??4?$Resource@VTSShape@@@@QAEAAV0@PAVResourceObject@@@Z 00467da0 f i debris.obj
 0001:00066dd0       ??1?$ConcreteClassRep@UDebrisData@@@@UAE@XZ 00467dd0 f i debris.obj
 0001:00066df0       ??0DebrisData@@QAE@XZ      00467df0 f   debris.obj
 0001:00066ee0       ?preload@DebrisData@@UAE_N_NQAD@Z 00467ee0 f   debris.obj
 0001:00067030       ??0Debris@@QAE@XZ          00468030 f   debris.obj
 0001:000671b0       ??_EDebris@@UAEPAXI@Z      004681b0 f i debris.obj
 0001:000671b0       ??_GDebris@@UAEPAXI@Z      004681b0 f i debris.obj
 0001:000671d0       ?onAdd@Debris@@MAE_NXZ     004681d0 f   debris.obj
 0001:00067730       ?rotate@Debris@@AAEXM@Z    00468730 f   debris.obj
 0001:00067850       ?explode@Debris@@AAEXXZ    00468850 f   debris.obj
 0001:000679b0       ?computeNewState@Debris@@AAEXAAVPoint3F@@0M@Z 004689b0 f   debris.obj
 0001:00067ab0       ?updateEmitters@Debris@@IAEXAAVPoint3F@@0I@Z 00468ab0 f   debris.obj
 0001:00067bc0       ?prepRenderImage@Debris@@MAE_NPAVSceneState@@II_N@Z 00468bc0 f   debris.obj
 0001:00067d70       ?renderObject@Debris@@MAEXPAVSceneState@@PAVSceneRenderImage@@@Z 00468d70 f   debris.obj
 0001:00067fd0       ??_EDebrisData@@UAEPAXI@Z  00468fd0 f i debris.obj
 0001:00067fd0       ??_GDebrisData@@UAEPAXI@Z  00468fd0 f i debris.obj
 0001:00067ff0       ??1DebrisData@@UAE@XZ      00468ff0 f i debris.obj
 0001:00068080       ?bounce@Debris@@AAE_NABVPoint3F@@M@Z 00469080 f   debris.obj
 0001:000683f0       ??0?$ConcreteClassRep@UDebrisData@@@@QAE@PBDHHH@Z 004693f0 f i debris.obj
 0001:00068470       ?init@?$ConcreteClassRep@UDebrisData@@@@UBEXXZ 00469470 f i debris.obj
 0001:000684a0       ?create@?$ConcreteClassRep@UDebrisData@@@@UBEPAVConsoleObject@@XZ 004694a0 f i debris.obj
 0001:000684d0       ??_E?$ConcreteClassRep@UDebrisData@@@@UAEPAXI@Z 004694d0 f i debris.obj
 0001:000684d0       ??_G?$ConcreteClassRep@UDebrisData@@@@UAEPAXI@Z 004694d0 f i debris.obj
 0001:000684f0       ??0?$ConcreteClassRep@VDebris@@@@QAE@PBDHHH@Z 004694f0 f i debris.obj
 0001:00068570       ?init@?$ConcreteClassRep@VDebris@@@@UBEXXZ 00469570 f i debris.obj
 0001:000685d0       ??_G?$ConcreteClassRep@VDebris@@@@UAEPAXI@Z 004695d0 f i debris.obj
 0001:000685d0       ??_E?$ConcreteClassRep@VDebris@@@@UAEPAXI@Z 004695d0 f i debris.obj
 0001:000685f0       ?create@?$ConcreteClassRep@VDebris@@@@UBEPAVConsoleObject@@XZ 004695f0 f i debris.obj
 0001:00068620       ?advanceTime@Debris@@MAEXM@Z 00469620 f   debris.obj
 0001:000687f0       ?getClassRep@DebugView@@UBEPAVAbstractClassRep@@XZ 004697f0 f   debugView.obj
 0001:00068800       ?getStaticClassRep@DebugView@@SAPAVAbstractClassRep@@XZ 00469800 f   debugView.obj
 0001:00068810       ?getParentStaticClassRep@DebugView@@SAPAVAbstractClassRep@@XZ 00469810 f   debugView.obj
 0001:00068820       ?clearTextLine@DebugView@@QAEXH@Z 00469820 f   debugView.obj
 0001:00068860       ??1?$Vector@UDebugLine@DebugView@@@@QAE@XZ 00469860 f i debugView.obj
 0001:00068870       ?clear@?$Vector@UDebugLine@DebugView@@@@QAEXXZ 00469870 f i debugView.obj
 0001:00068880       ?resize@?$Vector@UDebugLine@DebugView@@@@IAE_NI@Z 00469880 f i debugView.obj
 0001:000688a0       ??0DebugLine@DebugView@@QAE@ABVPoint3F@@0ABVColorI@@@Z 004698a0 f i debugView.obj
 0001:00068960       ??1?$ConcreteClassRep@VDebugView@@@@UAE@XZ 00469960 f i debugView.obj
 0001:000689d0       ?clearLines@DebugView@@QAEXXZ 004699d0 f   debugView.obj
 0001:000689e0       ?setTextLine@DebugView@@QAEXHPBDPAVColorF@@@Z 004699e0 f   debugView.obj
 0001:00068aa0       ?onRender@DebugView@@UAEXVPoint2I@@ABVRectI@@@Z 00469aa0 f   debugView.obj
 0001:00068b50       ?reserve@?$Vector@UDebugLine@DebugView@@@@QAEXI@Z 00469b50 f i debugView.obj
 0001:00068b80       ?increment@?$Vector@UDebugLine@DebugView@@@@QAEXI@Z 00469b80 f i debugView.obj
 0001:00068bb0       ??1GuiTextCtrl@@UAE@XZ     00469bb0 f i debugView.obj
 0001:00068d10       ??0?$Vector@UDebugLine@DebugView@@@@QAE@I@Z 00469d10 f i debugView.obj
 0001:00068d60       ?push_back@?$Vector@UDebugLine@DebugView@@@@QAEXABUDebugLine@DebugView@@@Z 00469d60 f i debugView.obj
 0001:00068db0       ??0DebugView@@QAE@XZ       00469db0 f   debugView.obj
 0001:00068e10       ??_GDebugView@@UAEPAXI@Z   00469e10 f i debugView.obj
 0001:00068e10       ??_EDebugView@@UAEPAXI@Z   00469e10 f i debugView.obj
 0001:00068e30       ??1DebugView@@UAE@XZ       00469e30 f i debugView.obj
 0001:00068ec0       ?addLine@DebugView@@QAEXABVPoint3F@@0ABVColorF@@@Z 00469ec0 f   debugView.obj
 0001:00068f40       ??0?$ConcreteClassRep@VDebugView@@@@QAE@PBDHHH@Z 00469f40 f i debugView.obj
 0001:00068fc0       ?init@?$ConcreteClassRep@VDebugView@@@@UBEXXZ 00469fc0 f i debugView.obj
 0001:00068ff0       ??_E?$ConcreteClassRep@VDebugView@@@@UAEPAXI@Z 00469ff0 f i debugView.obj
 0001:00068ff0       ??_G?$ConcreteClassRep@VDebugView@@@@UAEPAXI@Z 00469ff0 f i debugView.obj
 0001:00069010       ?create@?$ConcreteClassRep@VDebugView@@@@UBEPAVConsoleObject@@XZ 0046a010 f i debugView.obj
 0001:000692e0       ?GameGetCameraFov@@YAMXZ   0046a2e0 f   game.obj
 0001:000692f0       ?GameSetCameraFov@@YAXM@Z  0046a2f0 f   game.obj
 0001:00069310       ?GameSetCameraTargetFov@@YAXM@Z 0046a310 f   game.obj
 0001:00069320       ?GameInit@@YAXXZ           0046a320 f   game.obj
 0001:00069410       ?serverProcess@@YA_NI@Z    0046a410 f   game.obj
 0001:00069420       ?wireCube@@YAXMVPoint3F@@@Z 0046a420 f   game.obj
 0001:000694d0       ?convolveInverse@Point3F@@QAEXABV1@@Z 0046a4d0 f i game.obj
 0001:000694f0       ?getCurrentSky@SceneGraph@@QAEPAVSky@@XZ 0046a4f0 f i game.obj
 0001:00069500       ?getCurrentTerrain@SceneGraph@@QAEPAVTerrainBlock@@XZ 0046a500 f i game.obj
 0001:00069510       ?getObjectMount@ShapeBase@@QAEPAV1@XZ 0046a510 f i game.obj
 0001:00069520       ?getServerConnection@GameConnection@@SAPAV1@XZ 0046a520 f i game.obj
 0001:00069550       ?getDamageFlash@GameConnection@@QAEMXZ 0046a550 f i game.obj
 0001:00069560       ?getWhiteOut@GameConnection@@QAEMXZ 0046a560 f i game.obj
 0001:00069570       ?getVisibleDistance@Sky@@QBEMXZ 0046a570 f i game.obj
 0001:000697f0       ?GameGetCameraTransform@@YA_NPAVMatrixF@@PAVPoint3F@@@Z 0046a7f0 f   game.obj
 0001:00069970       ?GameUpdateCameraFov@@YAXXZ 0046a970 f   game.obj
 0001:00069be0       ?GameProcessCameraQuery@@YA_NPAUCameraQuery@@@Z 0046abe0 f   game.obj
 0001:00069c90       ?GameRenderFilters@@YAXABUCameraQuery@@@Z 0046ac90 f   game.obj
 0001:0006a390       ?GameRenderWorld@@YAXXZ    0046b390 f   game.obj
 0001:0006b3a0       ?clientProcess@@YA_NI@Z    0046c3a0 f   game.obj
 0001:0006b460       ?getClassRep@GameBaseData@@UBEPAVAbstractClassRep@@XZ 0046c460 f   gameBase.obj
 0001:0006b470       ?getStaticClassRep@GameBaseData@@SAPAVAbstractClassRep@@XZ 0046c470 f   gameBase.obj
 0001:0006b480       ?getParentStaticClassRep@GameBaseData@@SAPAVAbstractClassRep@@XZ 0046c480 f   gameBase.obj
 0001:0006b490       ?initPersistFields@GameBaseData@@SAXXZ 0046c490 f   gameBase.obj
 0001:0006b4d0       ?preload@GameBaseData@@UAE_N_NQAD@Z 0046c4d0 f   gameBase.obj
 0001:0006b500       ?unpackData@GameBaseData@@UAEXPAVBitStream@@@Z 0046c500 f   gameBase.obj
 0001:0006b520       ?getClassRep@GameBase@@UBEPAVAbstractClassRep@@XZ 0046c520 f   gameBase.obj
 0001:0006b530       ?getStaticClassRep@GameBase@@SAPAVAbstractClassRep@@XZ 0046c530 f   gameBase.obj
 0001:0006b540       ?getParentStaticClassRep@GameBase@@SAPAVAbstractClassRep@@XZ 0046c540 f   gameBase.obj
 0001:0006b550       ?onNewDataBlock@GameBase@@UAE_NPAUGameBaseData@@@Z 0046c550 f   gameBase.obj
 0001:0006b570       ?inspectPostApply@GameBase@@UAEXXZ 0046c570 f   gameBase.obj
 0001:0006b590       ?processTick@GameBase@@UAEXPBUMove@@@Z 0046c590 f   gameBase.obj
 0001:0006b5a0       ?interpolateTick@GameBase@@UAEXM@Z 0046c5a0 f   gameBase.obj
 0001:0006b5b0       ?advanceTime@GameBase@@UAEXM@Z 0046c5b0 f   gameBase.obj
 0001:0006b5c0       ?plUnlink@GameBase@@AAEXXZ 0046c5c0 f   gameBase.obj
 0001:0006b600       ?plLinkAfter@GameBase@@AAEXPAV1@@Z 0046c600 f   gameBase.obj
 0001:0006b630       ?plLinkBefore@GameBase@@AAEXPAV1@@Z 0046c630 f   gameBase.obj
 0001:0006b660       ?plJoin@GameBase@@AAEXPAV1@@Z 0046c660 f   gameBase.obj
 0001:0006b690       ?writePacketData@GameBase@@UAEXPAVGameConnection@@PAVBitStream@@@Z 0046c690 f   gameBase.obj
 0001:0006b6a0       ?getPacketDataChecksum@GameBase@@UAEIPAVGameConnection@@@Z 0046c6a0 f   gameBase.obj
 0001:0006b6b0       ?readPacketData@GameBase@@UAEXPAVGameConnection@@PAVBitStream@@@Z 0046c6b0 f   gameBase.obj
 0001:0006b6c0       ?consoleInit@GameBase@@SAXXZ 0046c6c0 f   gameBase.obj
 0001:0006b6d0       ??$findObject@UGameBaseData@@@Sim@@YA_NIAAPAUGameBaseData@@@Z 0046c6d0 f i gameBase.obj
 0001:0006b710       ??$findObject@UGameBaseData@@@Sim@@YA_NPBDAAPAUGameBaseData@@@Z 0046c710 f i gameBase.obj
 0001:0006b750       ?isGhost@NetObject@@QBE_NXZ 0046c750 f i gameBase.obj
 0001:0006b760       ?markDirty@ProcessList@@QAEXXZ 0046c760 f i gameBase.obj
 0001:0006b770       ??0GameBaseData@@QAE@XZ    0046c770 f   gameBase.obj
 0001:0006b7a0       ??_GGameBaseData@@UAEPAXI@Z 0046c7a0 f i gameBase.obj
 0001:0006b7a0       ??_EGameBaseData@@UAEPAXI@Z 0046c7a0 f i gameBase.obj
 0001:0006b7c0       ?onAdd@GameBaseData@@UAE_NXZ 0046c7c0 f   gameBase.obj
 0001:0006b860       ??0GameBase@@QAE@XZ        0046c860 f   gameBase.obj
 0001:0006b910       ??1GameBase@@UAE@XZ        0046c910 f   gameBase.obj
 0001:0006b9a0       ?onAdd@GameBase@@UAE_NXZ   0046c9a0 f   gameBase.obj
 0001:0006ba10       ?onRemove@GameBase@@UAEXXZ 0046ca10 f   gameBase.obj
 0001:0006ba50       ?getUpdatePriority@GameBase@@UAEMPAUCameraScopeQuery@@IH@Z 0046ca50 f   gameBase.obj
 0001:0006bcb0       ?getVelocity@GameBase@@UBE?AVPoint3F@@XZ 0046ccb0 f   gameBase.obj
 0001:0006bcd0       ?setDataBlock@GameBase@@QAE_NPAUGameBaseData@@@Z 0046ccd0 f   gameBase.obj
 0001:0006bd10       ?scriptOnAdd@GameBase@@QAEXXZ 0046cd10 f   gameBase.obj
 0001:0006bd40       ?scriptOnNewDataBlock@GameBase@@QAEXXZ 0046cd40 f   gameBase.obj
 0001:0006bd70       ?scriptOnRemove@GameBase@@QAEXXZ 0046cd70 f   gameBase.obj
 0001:0006bdb0       ?processAfter@GameBase@@QAEXPAV1@@Z 0046cdb0 f   gameBase.obj
 0001:0006be30       ?clearProcessAfter@GameBase@@QAEXXZ 0046ce30 f   gameBase.obj
 0001:0006be50       ?packUpdate@GameBase@@UAEIPAVNetConnection@@IPAVBitStream@@@Z 0046ce50 f   gameBase.obj
 0001:0006bee0       ?unpackUpdate@GameBase@@UAEXPAVNetConnection@@PAVBitStream@@@Z 0046cee0 f   gameBase.obj
 0001:0006c080       ?getDataTypeDataBlockPtrGameBaseData@@YAPBDPAXPAUEnumTable@@VBitSet32@@@Z 0046d080 f   gameBase.obj
 0001:0006c0a0       ?setDataTypeDataBlockPtrGameBaseData@@YAXPAXHPAPBDPAUEnumTable@@VBitSet32@@@Z 0046d0a0 f   gameBase.obj
 0001:0006c100       ?initPersistFields@GameBase@@SAXXZ 0046d100 f   gameBase.obj
 0001:0006c170       ??1?$ConcreteClassRep@UGameBaseData@@@@UAE@XZ 0046d170 f i gameBase.obj
 0001:0006c190       ??1?$ConcreteClassRep@VGameBase@@@@UAE@XZ 0046d190 f i gameBase.obj
 0001:0006c1b0       ??_EGameBase@@UAEPAXI@Z    0046d1b0 f i gameBase.obj
 0001:0006c1b0       ??_GGameBase@@UAEPAXI@Z    0046d1b0 f i gameBase.obj
 0001:0006c210       ??0?$ConcreteClassRep@UGameBaseData@@@@QAE@PBDHHH@Z 0046d210 f i gameBase.obj
 0001:0006c290       ?init@?$ConcreteClassRep@UGameBaseData@@@@UBEXXZ 0046d290 f i gameBase.obj
 0001:0006c2f0       ?create@?$ConcreteClassRep@UGameBaseData@@@@UBEPAVConsoleObject@@XZ 0046d2f0 f i gameBase.obj
 0001:0006c320       ??_G?$ConcreteClassRep@UGameBaseData@@@@UAEPAXI@Z 0046d320 f i gameBase.obj
 0001:0006c320       ??_E?$ConcreteClassRep@UGameBaseData@@@@UAEPAXI@Z 0046d320 f i gameBase.obj
 0001:0006c340       ??0?$ConcreteClassRep@VGameBase@@@@QAE@PBDHHH@Z 0046d340 f i gameBase.obj
 0001:0006c3c0       ?init@?$ConcreteClassRep@VGameBase@@@@UBEXXZ 0046d3c0 f i gameBase.obj
 0001:0006c3f0       ?create@?$ConcreteClassRep@VGameBase@@@@UBEPAVConsoleObject@@XZ 0046d3f0 f i gameBase.obj
 0001:0006c420       ??_G?$ConcreteClassRep@VGameBase@@@@UAEPAXI@Z 0046d420 f i gameBase.obj
 0001:0006c420       ??_E?$ConcreteClassRep@VGameBase@@@@UAEPAXI@Z 0046d420 f i gameBase.obj
 0001:0006c440       ?getClassRep@GameConnection@@UBEPAVAbstractClassRep@@XZ 0046d440 f   gameConnection.obj
 0001:0006c450       ?getStaticClassRep@GameConnection@@SAPAVAbstractClassRep@@XZ 0046d450 f   gameConnection.obj
 0001:0006c460       ?getParentStaticClassRep@GameConnection@@SAPAVAbstractClassRep@@XZ 0046d460 f   gameConnection.obj
 0001:0006c470       ?canRemoteCreate@GameConnection@@UAE_NXZ 0046d470 f   gameConnection.obj
 0001:0006c480       ?setConnectArgs@GameConnection@@QAEXIPAPBD@Z 0046d480 f   gameConnection.obj
 0001:0006c4e0       ?setJoinPassword@GameConnection@@QAEXPBD@Z 0046d4e0 f   gameConnection.obj
 0001:0006c550       ?onConnectTimedOut@GameConnection@@UAEXXZ 0046d550 f   gameConnection.obj
 0001:0006c580       ?onConnectionRejected@GameConnection@@UAEXPBD@Z 0046d580 f   gameConnection.obj
 0001:0006c5b0       ?handleStartupError@GameConnection@@UAEXPBD@Z 0046d5b0 f   gameConnection.obj
 0001:0006c5e0       ?setAuthInfo@GameConnection@@QAEXPBUAuthInfo@@@Z 0046d5e0 f   gameConnection.obj
 0001:0006c620       ?getAuthInfo@GameConnection@@QAEPBUAuthInfo@@XZ 0046d620 f   gameConnection.obj
 0001:0006c630       ?onAdd@GameConnection@@UAE_NXZ 0046d630 f   gameConnection.obj
 0001:0006c640       ?setDisconnectReason@GameConnection@@QAEXPBD@Z 0046d640 f   gameConnection.obj
 0001:0006c670       ?postCurrentEvent@Sim@@YAIPAVSimObject@@PAVSimEvent@@@Z 0046d670 f i gameConnection.obj
 0001:0006c690       ?detectLag@GameConnection@@QAEXXZ 0046d690 f   gameConnection.obj
 0001:0006c6f0       ??0GamePacketNotify@GameConnection@@QAE@XZ 0046d6f0 f   gameConnection.obj
 0001:0006c710       ?allocNotify@GameConnection@@MAEPAUPacketNotify@NetConnection@@XZ 0046d710 f   gameConnection.obj
 0001:0006c750       ?packetReceived@GameConnection@@MAEXPAUPacketNotify@NetConnection@@@Z 0046d750 f   gameConnection.obj
 0001:0006c770       ?packetDropped@GameConnection@@MAEXPAUPacketNotify@NetConnection@@@Z 0046d770 f   gameConnection.obj
 0001:0006c790       ?play2D@GameConnection@@QAEXPBVAudioProfile@@@Z 0046d790 f   gameConnection.obj
 0001:0006c7e0       ?doneScopingScene@GameConnection@@UAEXXZ 0046d7e0 f   gameConnection.obj
 0001:0006c7f0       ?setBlackOut@GameConnection@@QAEX_NH@Z 0046d7f0 f   gameConnection.obj
 0001:0006c840       ?getBlackOut@GameConnection@@QAEMXZ 0046d840 f   gameConnection.obj
 0001:0006c990       ?consoleInit@GameConnection@@SAXXZ 0046d990 f   gameConnection.obj
 0001:0006caf0       ??4?$SimObjectPtr@VNetConnection@@@@QAEAAV0@PAVNetConnection@@@Z 0046daf0 f i gameConnection.obj
 0001:0006cb40       ??0?$SimObjectPtr@VShapeBase@@@@QAE@XZ 0046db40 f i gameConnection.obj
 0001:0006cb50       ??1?$SimObjectPtr@VShapeBase@@@@QAE@XZ 0046db50 f i gameConnection.obj
 0001:0006cb60       ??4?$SimObjectPtr@VShapeBase@@@@QAEAAV0@PAVShapeBase@@@Z 0046db60 f i gameConnection.obj
 0001:0006cb90       ?isNull@?$SimObjectPtr@VShapeBase@@@@QBE_NXZ 0046db90 f i gameConnection.obj
 0001:0006cba0       ??C?$SimObjectPtr@VShapeBase@@@@QBEPAVShapeBase@@XZ 0046dba0 f i gameConnection.obj
 0001:0006cbb0       ??1?$Vector@PAVSimDataBlock@@@@QAE@XZ 0046dbb0 f i gameConnection.obj
 0001:0006cbc0       ?size@?$Vector@PAVSimDataBlock@@@@QBEHXZ 0046dbc0 f i gameConnection.obj
 0001:0006cbd0       ??A?$Vector@PAVSimDataBlock@@@@QAEAAPAVSimDataBlock@@I@Z 0046dbd0 f i gameConnection.obj
 0001:0006cbe0       ??1?$Vector@UMove@@@@QAE@XZ 0046dbe0 f i gameConnection.obj
 0001:0006cbf0       ?size@?$Vector@UMove@@@@QBEHXZ 0046dbf0 f i gameConnection.obj
 0001:0006cc00       ??A?$Vector@UMove@@@@QAEAAUMove@@I@Z 0046dc00 f i gameConnection.obj
 0001:0006cc10       ?clear@?$Vector@UMove@@@@QAEXXZ 0046dc10 f i gameConnection.obj
 0001:0006cc20       ??$findObject@VSimDataBlock@@@Sim@@YA_NIAAPAVSimDataBlock@@@Z 0046dc20 f i gameConnection.obj
 0001:0006cc60       ??$findObject@VShapeBase@@@Sim@@YA_NPBDAAPAVShapeBase@@@Z 0046dc60 f i gameConnection.obj
 0001:0006cca0       ??$findObject@VAudioProfile@@@Sim@@YA_NPBDAAPAVAudioProfile@@@Z 0046dca0 f i gameConnection.obj
 0001:0006cce0       ?resize@?$Vector@PAVSimDataBlock@@@@IAE_NI@Z 0046dce0 f i gameConnection.obj
 0001:0006cd00       ?decrement@?$Vector@PAVSimDataBlock@@@@QAEXI@Z 0046dd00 f i gameConnection.obj
 0001:0006cd20       ?resize@?$Vector@UMove@@@@IAE_NI@Z 0046dd20 f i gameConnection.obj
 0001:0006cd40       ?decrement@?$Vector@UMove@@@@QAEXI@Z 0046dd40 f i gameConnection.obj
 0001:0006cd60       ?getLastInterpDelta@ProcessList@@QAEMXZ 0046dd60 f i gameConnection.obj
 0001:0006cd80       ?getControllingObject@ShapeBase@@QAEPAV1@XZ 0046dd80 f i gameConnection.obj
 0001:0006cd90       ??0NetEvent@@QAE@XZ        0046dd90 f i gameConnection.obj
 0001:0006cdb0       ??_ENetEvent@@UAEPAXI@Z    0046ddb0 f i gameConnection.obj
 0001:0006cdb0       ??_GNetEvent@@UAEPAXI@Z    0046ddb0 f i gameConnection.obj
 0001:0006cdd0       ?isServerConnection@NetConnection@@QAE_NXZ 0046ddd0 f i gameConnection.obj
 0001:0006cde0       ?isNetworkConnection@NetConnection@@QAE_NXZ 0046dde0 f i gameConnection.obj
 0001:0006cdf0       ?setIsServerConnection@NetConnection@@QAEXXZ 0046ddf0 f i gameConnection.obj
 0001:0006ce00       ?setProtocolVersion@NetConnection@@QAEXI@Z 0046de00 f i gameConnection.obj
 0001:0006ce10       ?getProtocolVersion@NetConnection@@QAEIXZ 0046de10 f i gameConnection.obj
 0001:0006ce20       ?isRecording@NetConnection@@QAE_NXZ 0046de20 f i gameConnection.obj
 0001:0006ce30       ?isPlayingBack@NetConnection@@QAE_NXZ 0046de30 f i gameConnection.obj
 0001:0006ce40       ?getDataBlockSequence@GameConnection@@QAEIXZ 0046de40 f i gameConnection.obj
 0001:0006ce50       ?setDataBlockSequence@GameConnection@@QAEXI@Z 0046de50 f i gameConnection.obj
 0001:0006ce60       ?getDataBlockModifiedKey@GameConnection@@QAEHXZ 0046de60 f i gameConnection.obj
 0001:0006ce70       ?setMaxDataBlockModifiedKey@GameConnection@@QAEXH@Z 0046de70 f i gameConnection.obj
 0001:0006ce80       ?isAIControlled@GameConnection@@QAE_NXZ 0046de80 f i gameConnection.obj
 0001:0006ce90       ??0SetMissionCRCEvent@@QAE@I@Z 0046de90 f i gameConnection.obj
 0001:0006ceb0       ?pack@SetMissionCRCEvent@@UAEXPAVNetConnection@@PAVBitStream@@@Z 0046deb0 f i gameConnection.obj
 0001:0006ced0       ?write@SetMissionCRCEvent@@UAEXPAVNetConnection@@PAVBitStream@@@Z 0046ded0 f i gameConnection.obj
 0001:0006cee0       ?unpack@SetMissionCRCEvent@@UAEXPAVNetConnection@@PAVBitStream@@@Z 0046dee0 f i gameConnection.obj
 0001:0006cf00       ?process@SetMissionCRCEvent@@UAEXPAVNetConnection@@@Z 0046df00 f i gameConnection.obj
 0001:0006cf10       ??1GameConnection@@UAE@XZ  0046df10 f   gameConnection.obj
 0001:0006d010       ??_EGameConnection@@WKA@AEPAXI@Z 0046e010 f i gameConnection.obj
 0001:0006d0a0       ?onTimedOut@GameConnection@@UAEXXZ 0046e0a0 f   gameConnection.obj
 0001:0006d110       ?onConnectionEstablished@GameConnection@@UAEX_N@Z 0046e110 f   gameConnection.obj
 0001:0006d250       ?onDisconnect@GameConnection@@UAEXPBD@Z 0046e250 f   gameConnection.obj
 0001:0006d2c0       ?writeConnectAccept@GameConnection@@UAEXPAVBitStream@@@Z 0046e2c0 f   gameConnection.obj
 0001:0006d2f0       ?readConnectAccept@GameConnection@@UAE_NPAVBitStream@@PAPBD@Z 0046e2f0 f   gameConnection.obj
 0001:0006d340       ?writeConnectRequest@GameConnection@@UAEXPAVBitStream@@@Z 0046e340 f   gameConnection.obj
 0001:0006d400       ?readConnectRequest@GameConnection@@UAE_NPAVBitStream@@PAPBD@Z 0046e400 f   gameConnection.obj
 0001:0006d630       ?connectionError@GameConnection@@MAEXPBD@Z 0046e630 f   gameConnection.obj
 0001:0006d6c0       ?setControlObject@GameConnection@@QAEXPAVShapeBase@@@Z 0046e6c0 f   gameConnection.obj
 0001:0006d750       ?setCameraObject@GameConnection@@QAEXPAVShapeBase@@@Z 0046e750 f   gameConnection.obj
 0001:0006d7c0       ?getCameraObject@GameConnection@@QAEPAVShapeBase@@XZ 0046e7c0 f   gameConnection.obj
 0001:0006d7f0       ?getControlCameraTransform@GameConnection@@QAE_NMPAVMatrixF@@@Z 0046e7f0 f   gameConnection.obj
 0001:0006d9e0       ?getControlCameraFov@GameConnection@@QAE_NPAM@Z 0046e9e0 f   gameConnection.obj
 0001:0006da40       ?isValidControlCameraFov@GameConnection@@QAE_NM@Z 0046ea40 f   gameConnection.obj
 0001:0006daa0       ?setControlCameraFov@GameConnection@@QAE_NM@Z 0046eaa0 f   gameConnection.obj
 0001:0006db80       ?getControlCameraVelocity@GameConnection@@QAE_NPAVPoint3F@@@Z 0046eb80 f   gameConnection.obj
 0001:0006dbf0       ?onRemove@GameConnection@@UAEXXZ 0046ebf0 f   gameConnection.obj
 0001:0006dc60       ?handleRecordedBlock@GameConnection@@MAEXIIPAX@Z 0046ec60 f   gameConnection.obj
 0001:0006dcb0       ?writeDemoStartBlock@GameConnection@@MAEXPAVResizeBitStream@@@Z 0046ecb0 f   gameConnection.obj
 0001:0006df90       ?demoPlaybackComplete@GameConnection@@UAEXXZ 0046ef90 f   gameConnection.obj
 0001:0006dff0       ?writePacket@GameConnection@@MAEXPAVBitStream@@PAUPacketNotify@NetConnection@@@Z 0046eff0 f   gameConnection.obj
 0001:0006e3d0       ?play3D@GameConnection@@QAEXPBVAudioProfile@@PBVMatrixF@@@Z 0046f3d0 f   gameConnection.obj
 0001:0006e890       ??A?$Vector@PAVSimDataBlock@@@@QAEAAPAVSimDataBlock@@H@Z 0046f890 f i gameConnection.obj
 0001:0006e8a0       ?erase@?$Vector@PAVSimDataBlock@@@@QAEXI@Z 0046f8a0 f i gameConnection.obj
 0001:0006e8e0       ?reserve@?$Vector@PAVSimDataBlock@@@@QAEXI@Z 0046f8e0 f i gameConnection.obj
 0001:0006e910       ?increment@?$Vector@PAVSimDataBlock@@@@QAEXI@Z 0046f910 f i gameConnection.obj
 0001:0006e940       ?erase@?$Vector@UMove@@@@QAEXI@Z 0046f940 f i gameConnection.obj
 0001:0006e980       ?reserve@?$Vector@UMove@@@@QAEXI@Z 0046f980 f i gameConnection.obj
 0001:0006e9b0       ??_ESetMissionCRCEvent@@UAEPAXI@Z 0046f9b0 f i gameConnection.obj
 0001:0006e9b0       ??_GSetMissionCRCEvent@@UAEPAXI@Z 0046f9b0 f i gameConnection.obj
 0001:0006e9d0       ??1SetMissionCRCEvent@@UAE@XZ 0046f9d0 f i gameConnection.obj
 0001:0006e9e0       ??1?$ConcreteClassRep@VGameConnection@@@@UAE@XZ 0046f9e0 f i gameConnection.obj
 0001:0006ea00       ??_GGameConnection@@UAEPAXI@Z 0046fa00 f i gameConnection.obj
 0001:0006ea00       ??_EGameConnection@@UAEPAXI@Z 0046fa00 f i gameConnection.obj
 0001:0006edc0       ??0?$Vector@PAVSimDataBlock@@@@QAE@I@Z 0046fdc0 f i gameConnection.obj
 0001:0006ee10       ?push_back@?$Vector@PAVSimDataBlock@@@@QAEXABQAVSimDataBlock@@@Z 0046fe10 f i gameConnection.obj
 0001:0006ee50       ?pop_front@?$Vector@PAVSimDataBlock@@@@QAEXXZ 0046fe50 f i gameConnection.obj
 0001:0006ee90       ??0?$Vector@UMove@@@@QAE@I@Z 0046fe90 f i gameConnection.obj
 0001:0006eee0       ?pop_front@?$Vector@UMove@@@@QAEXXZ 0046fee0 f i gameConnection.obj
 0001:0006ef10       ??0GameConnection@@QAE@XZ  0046ff10 f   gameConnection.obj
 0001:0006f0c0       ?readPacket@GameConnection@@MAEXPAVBitStream@@@Z 004700c0 f   gameConnection.obj
 0001:0006f590       ?preloadNextDataBlock@GameConnection@@QAEX_N@Z 00470590 f   gameConnection.obj
 0001:0006f6f0       ?handleConnectionMessage@GameConnection@@UAEXIII@Z 004706f0 f   gameConnection.obj
 0001:0006f8a0       ??0?$ConcreteClassRep@VGameConnection@@@@QAE@PBDHHH@Z 004708a0 f i gameConnection.obj
 0001:0006f920       ?init@?$ConcreteClassRep@VGameConnection@@@@UBEXXZ 00470920 f i gameConnection.obj
 0001:0006f980       ??_G?$ConcreteClassRep@VGameConnection@@@@UAEPAXI@Z 00470980 f i gameConnection.obj
 0001:0006f980       ??_E?$ConcreteClassRep@VGameConnection@@@@UAEPAXI@Z 00470980 f i gameConnection.obj
 0001:0006f9a0       ?create@?$ConcreteClassRep@VGameConnection@@@@UBEPAVConsoleObject@@XZ 004709a0 f i gameConnection.obj
 0001:0006f9d0       ?readDemoStartBlock@GameConnection@@MAE_NPAVBitStream@@@Z 004709d0 f   gameConnection.obj
 0001:0006fd10       ?preloadDataBlock@GameConnection@@QAEXPAVSimDataBlock@@@Z 00470d10 f   gameConnection.obj
 0001:0006fd60       ?fileDownloadSegmentComplete@GameConnection@@UAEXXZ 00470d60 f   gameConnection.obj
 0001:0006fdc0       ?getClassRep@SimDataBlockEvent@@UBEPAVAbstractClassRep@@XZ 00470dc0 f   gameConnectionEvents.obj
 0001:0006fdd0       ?getStaticClassRep@SimDataBlockEvent@@SAPAVAbstractClassRep@@XZ 00470dd0 f   gameConnectionEvents.obj
 0001:0006fde0       ?getClassRep@Sim2DAudioEvent@@UBEPAVAbstractClassRep@@XZ 00470de0 f   gameConnectionEvents.obj
 0001:0006fdf0       ?getStaticClassRep@Sim2DAudioEvent@@SAPAVAbstractClassRep@@XZ 00470df0 f   gameConnectionEvents.obj
 0001:0006fe00       ?getClassRep@Sim3DAudioEvent@@UBEPAVAbstractClassRep@@XZ 00470e00 f   gameConnectionEvents.obj
 0001:0006fe10       ?getStaticClassRep@Sim3DAudioEvent@@SAPAVAbstractClassRep@@XZ 00470e10 f   gameConnectionEvents.obj
 0001:0006fe20       ?getClassRep@SetMissionCRCEvent@@UBEPAVAbstractClassRep@@XZ 00470e20 f   gameConnectionEvents.obj
 0001:0006fe30       ?getStaticClassRep@SetMissionCRCEvent@@SAPAVAbstractClassRep@@XZ 00470e30 f   gameConnectionEvents.obj
 0001:0006fe40       ??1SimDataBlockEvent@@UAE@XZ 00470e40 f   gameConnectionEvents.obj
 0001:0006fea0       ??_GSimDataBlockEvent@@UAEPAXI@Z 00470ea0 f i gameConnectionEvents.obj
 0001:0006fea0       ??_ESimDataBlockEvent@@UAEPAXI@Z 00470ea0 f i gameConnectionEvents.obj
 0001:0006fec0       ?process@Sim2DAudioEvent@@UAEXPAVNetConnection@@@Z 00470ec0 f   gameConnectionEvents.obj
 0001:0006fee0       ?write@Sim3DAudioEvent@@UAEXPAVNetConnection@@PAVBitStream@@@Z 00470ee0 f   gameConnectionEvents.obj
 0001:0006fef0       ?process@Sim3DAudioEvent@@UAEXPAVNetConnection@@@Z 00470ef0 f   gameConnectionEvents.obj
 0001:0006ff10       ??$findObject@$$CBVAudioProfile@@@Sim@@YA_NIAAPBVAudioProfile@@@Z 00470f10 f i gameConnectionEvents.obj
 0001:0006ff50       ?getClassId@AbstractClassRep@@QBEHI@Z 00470f50 f i gameConnectionEvents.obj
 0001:0006ff60       ?getClassId@ConsoleObject@@QBEHI@Z 00470f60 f i gameConnectionEvents.obj
 0001:0006ff70       ?create@ConsoleObject@@SAPAV1@III@Z 00470f70 f i gameConnectionEvents.obj
 0001:0006ff80       ?isRemoved@SimObject@@QBE_NXZ 00470f80 f i gameConnectionEvents.obj
 0001:0006ff90       ?getNetClassGroup@NetConnection@@QAEIXZ 00470f90 f i gameConnectionEvents.obj
 0001:0006ffa0       ?getErrorBuffer@NetConnection@@SAPADXZ 00470fa0 f i gameConnectionEvents.obj
 0001:0006ffb0       ?setDataBlockModifiedKey@GameConnection@@QAEXH@Z 00470fb0 f i gameConnectionEvents.obj
 0001:0006ffc0       ?getMaxDataBlockModifiedKey@GameConnection@@QAEHXZ 00470fc0 f i gameConnectionEvents.obj
 0001:0006ffd0       ?getParentStaticClassRep@SimDataBlockEvent@@SAPAVAbstractClassRep@@XZ 00470fd0 f   gameConnectionEvents.obj
 0001:0006ffe0       ??1?$ConcreteClassRep@VSimDataBlockEvent@@@@UAE@XZ 00470fe0 f i gameConnectionEvents.obj
 0001:00070000       ?getParentStaticClassRep@Sim2DAudioEvent@@SAPAVAbstractClassRep@@XZ 00471000 f   gameConnectionEvents.obj
 0001:00070010       ??1?$ConcreteClassRep@VSim2DAudioEvent@@@@UAE@XZ 00471010 f i gameConnectionEvents.obj
 0001:00070030       ?getParentStaticClassRep@Sim3DAudioEvent@@SAPAVAbstractClassRep@@XZ 00471030 f   gameConnectionEvents.obj
 0001:00070040       ??1?$ConcreteClassRep@VSim3DAudioEvent@@@@UAE@XZ 00471040 f i gameConnectionEvents.obj
 0001:00070060       ?getParentStaticClassRep@SetMissionCRCEvent@@SAPAVAbstractClassRep@@XZ 00471060 f   gameConnectionEvents.obj
 0001:00070070       ??1?$ConcreteClassRep@VSetMissionCRCEvent@@@@UAE@XZ 00471070 f i gameConnectionEvents.obj
 0001:00070090       ??0SimDataBlockEvent@@QAE@PAVSimDataBlock@@III@Z 00471090 f   gameConnectionEvents.obj
 0001:000700d0       ?pack@SimDataBlockEvent@@UAEXPAVNetConnection@@PAVBitStream@@@Z 004710d0 f   gameConnectionEvents.obj
 0001:00070190       ?unpack@SimDataBlockEvent@@UAEXPAVNetConnection@@PAVBitStream@@@Z 00471190 f   gameConnectionEvents.obj
 0001:00070280       ?write@SimDataBlockEvent@@UAEXPAVNetConnection@@PAVBitStream@@@Z 00471280 f   gameConnectionEvents.obj
 0001:00070300       ?process@SimDataBlockEvent@@UAEXPAVNetConnection@@@Z 00471300 f   gameConnectionEvents.obj
 0001:000704c0       ??0Sim2DAudioEvent@@QAE@PBVAudioProfile@@@Z 004714c0 f   gameConnectionEvents.obj
 0001:000704e0       ??_ESim2DAudioEvent@@UAEPAXI@Z 004714e0 f i gameConnectionEvents.obj
 0001:000704e0       ??_GSim2DAudioEvent@@UAEPAXI@Z 004714e0 f i gameConnectionEvents.obj
 0001:00070500       ??1Sim2DAudioEvent@@UAE@XZ 00471500 f i gameConnectionEvents.obj
 0001:00070510       ?pack@Sim2DAudioEvent@@UAEXPAVNetConnection@@PAVBitStream@@@Z 00471510 f   gameConnectionEvents.obj
 0001:00070530       ?write@Sim2DAudioEvent@@UAEXPAVNetConnection@@PAVBitStream@@@Z 00471530 f   gameConnectionEvents.obj
 0001:00070550       ?unpack@Sim2DAudioEvent@@UAEXPAVNetConnection@@PAVBitStream@@@Z 00471550 f   gameConnectionEvents.obj
 0001:00070590       ?pack@Sim3DAudioEvent@@UAEXPAVNetConnection@@PAVBitStream@@@Z 00471590 f   gameConnectionEvents.obj
 0001:00070680       ?unpack@Sim3DAudioEvent@@UAEXPAVNetConnection@@PAVBitStream@@@Z 00471680 f   gameConnectionEvents.obj
 0001:00070830       ?notifyDelivered@SimDataBlockEvent@@UAEXPAVNetConnection@@_N@Z 00471830 f   gameConnectionEvents.obj
 0001:000708e0       ??0Sim3DAudioEvent@@QAE@PBVAudioProfile@@PBVMatrixF@@@Z 004718e0 f   gameConnectionEvents.obj
 0001:00070910       ??_GSim3DAudioEvent@@UAEPAXI@Z 00471910 f i gameConnectionEvents.obj
 0001:00070910       ??_ESim3DAudioEvent@@UAEPAXI@Z 00471910 f i gameConnectionEvents.obj
 0001:00070930       ??1Sim3DAudioEvent@@UAE@XZ 00471930 f i gameConnectionEvents.obj
 0001:00070940       ??0?$ConcreteClassRep@VSimDataBlockEvent@@@@QAE@PBDHHH@Z 00471940 f i gameConnectionEvents.obj
 0001:000709c0       ?init@?$ConcreteClassRep@VSimDataBlockEvent@@@@UBEXXZ 004719c0 f i gameConnectionEvents.obj
 0001:000709d0       ?create@?$ConcreteClassRep@VSimDataBlockEvent@@@@UBEPAVConsoleObject@@XZ 004719d0 f i gameConnectionEvents.obj
 0001:00070a00       ??_G?$ConcreteClassRep@VSimDataBlockEvent@@@@UAEPAXI@Z 00471a00 f i gameConnectionEvents.obj
 0001:00070a00       ??_E?$ConcreteClassRep@VSimDataBlockEvent@@@@UAEPAXI@Z 00471a00 f i gameConnectionEvents.obj
 0001:00070a20       ??0?$ConcreteClassRep@VSim2DAudioEvent@@@@QAE@PBDHHH@Z 00471a20 f i gameConnectionEvents.obj
 0001:00070aa0       ?init@?$ConcreteClassRep@VSim2DAudioEvent@@@@UBEXXZ 00471aa0 f i gameConnectionEvents.obj
 0001:00070ab0       ?create@?$ConcreteClassRep@VSim2DAudioEvent@@@@UBEPAVConsoleObject@@XZ 00471ab0 f i gameConnectionEvents.obj
 0001:00070ae0       ??_E?$ConcreteClassRep@VSim2DAudioEvent@@@@UAEPAXI@Z 00471ae0 f i gameConnectionEvents.obj
 0001:00070ae0       ??_G?$ConcreteClassRep@VSim2DAudioEvent@@@@UAEPAXI@Z 00471ae0 f i gameConnectionEvents.obj
 0001:00070b00       ??0?$ConcreteClassRep@VSim3DAudioEvent@@@@QAE@PBDHHH@Z 00471b00 f i gameConnectionEvents.obj
 0001:00070b80       ?init@?$ConcreteClassRep@VSim3DAudioEvent@@@@UBEXXZ 00471b80 f i gameConnectionEvents.obj
 0001:00070b90       ??_G?$ConcreteClassRep@VSim3DAudioEvent@@@@UAEPAXI@Z 00471b90 f i gameConnectionEvents.obj
 0001:00070b90       ??_E?$ConcreteClassRep@VSim3DAudioEvent@@@@UAEPAXI@Z 00471b90 f i gameConnectionEvents.obj
 0001:00070bb0       ?create@?$ConcreteClassRep@VSim3DAudioEvent@@@@UBEPAVConsoleObject@@XZ 00471bb0 f i gameConnectionEvents.obj
 0001:00070be0       ??0?$ConcreteClassRep@VSetMissionCRCEvent@@@@QAE@PBDHHH@Z 00471be0 f i gameConnectionEvents.obj
 0001:00070c60       ?init@?$ConcreteClassRep@VSetMissionCRCEvent@@@@UBEXXZ 00471c60 f i gameConnectionEvents.obj
 0001:00070c70       ?create@?$ConcreteClassRep@VSetMissionCRCEvent@@@@UBEPAVConsoleObject@@XZ 00471c70 f i gameConnectionEvents.obj
 0001:00070ca0       ??_E?$ConcreteClassRep@VSetMissionCRCEvent@@@@UAEPAXI@Z 00471ca0 f i gameConnectionEvents.obj
 0001:00070ca0       ??_G?$ConcreteClassRep@VSetMissionCRCEvent@@@@UAEPAXI@Z 00471ca0 f i gameConnectionEvents.obj
 0001:00070cc0       ?init@MoveManager@@SAXXZ   00471cc0 f   gameConnectionMoves.obj
 0001:00070e80       ?unclamp@Move@@QAEXXZ      00471e80 f   gameConnectionMoves.obj
 0001:00070f00       ?clamp@Move@@QAEXXZ        00471f00 f   gameConnectionMoves.obj
 0001:00071050       ?pack@Move@@QAEXPAVBitStream@@@Z 00472050 f   gameConnectionMoves.obj
 0001:00071110       ?begin@?$Vector@UMove@@@@QAEPAUMove@@XZ 00472110 f i gameConnectionMoves.obj
 0001:00071120       ?address@?$Vector@UMove@@@@QBEPAUMove@@XZ 00472120 f i gameConnectionMoves.obj
 0001:00071130       ?unpack@Move@@QAEXPAVBitStream@@@Z 00472130 f   gameConnectionMoves.obj
 0001:00071410       ?getNextMove@GameConnection@@QAE_NAAUMove@@@Z 00472410 f   gameConnectionMoves.obj
 0001:00071520       ?incMoveCredit@GameConnection@@QAEXI@Z 00472520 f   gameConnectionMoves.obj
 0001:00071560       ?areMovesPending@GameConnection@@UAE_NXZ 00472560 f   gameConnectionMoves.obj
 0001:00071590       ?isBacklogged@GameConnection@@QAE_NXZ 00472590 f   gameConnectionMoves.obj
 0001:000715c0       ?moveWritePacket@GameConnection@@AAEXPAVBitStream@@@Z 004725c0 f   gameConnectionMoves.obj
 0001:00071650       ??A?$Vector@UMove@@@@QAEAAUMove@@H@Z 00472650 f i gameConnectionMoves.obj
 0001:00071660       ?setSize@?$Vector@UMove@@@@QAEII@Z 00472660 f i gameConnectionMoves.obj
 0001:00071690       ?increment@?$Vector@UMove@@@@QAEXI@Z 00472690 f i gameConnectionMoves.obj
 0001:000716c0       ?getMoveList@GameConnection@@UAEXPAPAUMove@@PAI@Z 004726c0 f   gameConnectionMoves.obj
 0001:00071770       ?moveReadPacket@GameConnection@@AAEXPAVBitStream@@@Z 00472770 f   gameConnectionMoves.obj
 0001:000718a0       ?push_back@?$Vector@UMove@@@@QAEXABUMove@@@Z 004728a0 f i gameConnectionMoves.obj
 0001:000718f0       ?pushMove@GameConnection@@QAEXABUMove@@@Z 004728f0 f   gameConnectionMoves.obj
 0001:00071970       ?collectMove@GameConnection@@QAEXI@Z 00472970 f   gameConnectionMoves.obj
 0001:000719d0       ?clearMoves@GameConnection@@UAEXI@Z 004729d0 f   gameConnectionMoves.obj
 0001:00071a60       ?clear@?$Vector@PAVSceneObject@@@@QAEXXZ 00472a60 f i gameFunctions.obj
 0001:00071c20       ??1ProcessList@@QAE@XZ     00472c20 f i gameProcess.obj
 0001:00071c30       ??0ProcessList@@QAE@_N@Z   00472c30 f   gameProcess.obj
 0001:00071c70       ?getNextBlockType@NetConnection@@QAEIXZ 00472c70 f i gameProcess.obj
 0001:00071c80       ?orderList@ProcessList@@AAEXXZ 00472c80 f   gameProcess.obj
 0001:00071db0       ?advanceObjects@ProcessList@@AAEXXZ 00472db0 f   gameProcess.obj
 0001:00071f50       ?advanceServerTime@ProcessList@@QAE_NI@Z 00472f50 f   gameProcess.obj
 0001:000720a0       ?advanceClientTime@ProcessList@@QAE_NI@Z 004730a0 f   gameProcess.obj
 0001:000723c0       ?getClassRep@GameTSCtrl@@UBEPAVAbstractClassRep@@XZ 004733c0 f   gameTSCtrl.obj
 0001:000723d0       ?getStaticClassRep@GameTSCtrl@@SAPAVAbstractClassRep@@XZ 004733d0 f   gameTSCtrl.obj
 0001:000723e0       ?getParentStaticClassRep@GameTSCtrl@@SAPAVAbstractClassRep@@XZ 004733e0 f   gameTSCtrl.obj
 0001:000723f0       ?processCameraQuery@GameTSCtrl@@UAE_NPAUCameraQuery@@@Z 004733f0 f   gameTSCtrl.obj
 0001:00072410       ?renderWorld@GameTSCtrl@@UAEXABVRectI@@@Z 00473410 f   gameTSCtrl.obj
 0001:00072440       ??1?$ConcreteClassRep@VGameTSCtrl@@@@UAE@XZ 00473440 f i gameTSCtrl.obj
 0001:00072460       ??0GameTSCtrl@@QAE@XZ      00473460 f   gameTSCtrl.obj
 0001:00072480       ??_GGameTSCtrl@@UAEPAXI@Z  00473480 f i gameTSCtrl.obj
 0001:00072480       ??_EGameTSCtrl@@UAEPAXI@Z  00473480 f i gameTSCtrl.obj
 0001:000724a0       ??1GameTSCtrl@@UAE@XZ      004734a0 f i gameTSCtrl.obj
 0001:000724b0       ?onMouseMove@GameTSCtrl@@UAEXABUGuiEvent@@@Z 004734b0 f   gameTSCtrl.obj
 0001:000725e0       ?onRender@GameTSCtrl@@UAEXVPoint2I@@ABVRectI@@@Z 004735e0 f   gameTSCtrl.obj
 0001:000726a0       ??0?$ConcreteClassRep@VGameTSCtrl@@@@QAE@PBDHHH@Z 004736a0 f i gameTSCtrl.obj
 0001:00072720       ?init@?$ConcreteClassRep@VGameTSCtrl@@@@UBEXXZ 00473720 f i gameTSCtrl.obj
 0001:00072750       ?create@?$ConcreteClassRep@VGameTSCtrl@@@@UBEPAVConsoleObject@@XZ 00473750 f i gameTSCtrl.obj
 0001:00072780       ??_G?$ConcreteClassRep@VGameTSCtrl@@@@UAEPAXI@Z 00473780 f i gameTSCtrl.obj
 0001:00072780       ??_E?$ConcreteClassRep@VGameTSCtrl@@@@UAEPAXI@Z 00473780 f i gameTSCtrl.obj
 0001:000727a0       ?getClassRep@GuiNoMouseCtrl@@UBEPAVAbstractClassRep@@XZ 004737a0 f   guiNoMouseCtrl.obj
 0001:000727b0       ?getStaticClassRep@GuiNoMouseCtrl@@SAPAVAbstractClassRep@@XZ 004737b0 f   guiNoMouseCtrl.obj
 0001:000727c0       ?getParentStaticClassRep@GuiNoMouseCtrl@@SAPAVAbstractClassRep@@XZ 004737c0 f   guiNoMouseCtrl.obj
 0001:000727d0       ??1?$ConcreteClassRep@VGuiNoMouseCtrl@@@@UAE@XZ 004737d0 f i guiNoMouseCtrl.obj
 0001:000727f0       ??0?$ConcreteClassRep@VGuiNoMouseCtrl@@@@QAE@PBDHHH@Z 004737f0 f i guiNoMouseCtrl.obj
 0001:00072870       ?init@?$ConcreteClassRep@VGuiNoMouseCtrl@@@@UBEXXZ 00473870 f i guiNoMouseCtrl.obj
 0001:000728a0       ?create@?$ConcreteClassRep@VGuiNoMouseCtrl@@@@UBEPAVConsoleObject@@XZ 004738a0 f i guiNoMouseCtrl.obj
 0001:000728d0       ??0GuiNoMouseCtrl@@QAE@XZ  004738d0 f i guiNoMouseCtrl.obj
 0001:000728f0       ?pointInControl@GuiNoMouseCtrl@@UAE_NABVPoint2I@@@Z 004738f0 f i guiNoMouseCtrl.obj
 0001:00072900       ??_E?$ConcreteClassRep@VGuiNoMouseCtrl@@@@UAEPAXI@Z 00473900 f i guiNoMouseCtrl.obj
 0001:00072900       ??_G?$ConcreteClassRep@VGuiNoMouseCtrl@@@@UAEPAXI@Z 00473900 f i guiNoMouseCtrl.obj
 0001:00072920       ??_EGuiNoMouseCtrl@@UAEPAXI@Z 00473920 f i guiNoMouseCtrl.obj
 0001:00072920       ??_GGuiNoMouseCtrl@@UAEPAXI@Z 00473920 f i guiNoMouseCtrl.obj
 0001:00072940       ??1GuiNoMouseCtrl@@UAE@XZ  00473940 f i guiNoMouseCtrl.obj
 0001:00072950       ?getClassRep@GuiObjectView@@UBEPAVAbstractClassRep@@XZ 00473950 f   guiObjectView.obj
 0001:00072960       ?getStaticClassRep@GuiObjectView@@SAPAVAbstractClassRep@@XZ 00473960 f   guiObjectView.obj
 0001:00072970       ?getParentStaticClassRep@GuiObjectView@@SAPAVAbstractClassRep@@XZ 00473970 f   guiObjectView.obj
 0001:00072980       ?onMouseDown@GuiObjectView@@UAEXABUGuiEvent@@@Z 00473980 f   guiObjectView.obj
 0001:000729c0       ?onMouseUp@GuiObjectView@@UAEXABUGuiEvent@@@Z 004739c0 f   guiObjectView.obj
 0001:000729e0       ?onRightMouseDown@GuiObjectView@@UAEXABUGuiEvent@@@Z 004739e0 f   guiObjectView.obj
 0001:00072a10       ?onRightMouseUp@GuiObjectView@@UAEXABUGuiEvent@@@Z 00473a10 f   guiObjectView.obj
 0001:00072a30       ?onRightMouseDragged@GuiObjectView@@UAEXABUGuiEvent@@@Z 00473a30 f   guiObjectView.obj
 0001:00072a80       ?setObjectSeq@GuiObjectView@@QAEXH@Z 00473a80 f   guiObjectView.obj
 0001:00072aa0       ?renderWorld@GuiObjectView@@UAEXABVRectI@@@Z 00473aa0 f   guiObjectView.obj
 0001:00072b20       ?onMouseEnter@GuiObjectView@@UAEXABUGuiEvent@@@Z 00473b20 f   guiObjectView.obj
 0001:00072b40       ?onMouseLeave@GuiObjectView@@UAEXABUGuiEvent@@@Z 00473b40 f   guiObjectView.obj
 0001:00072b60       ??0?$Resource@VTSShape@@@@QAE@PAVResourceObject@@@Z 00473b60 f i guiObjectView.obj
 0001:00072b70       ?getShape@TSShapeInstance@@QAEPAVTSShape@@XZ 00473b70 f i guiObjectView.obj
 0001:00072b80       ?getMaterialList@TSShapeInstance@@QAEPAVTSMaterialList@@XZ 00473b80 f i guiObjectView.obj
 0001:00072b90       ?ownMaterialList@TSShapeInstance@@QBE_NXZ 00473b90 f i guiObjectView.obj
 0001:00072ba0       ??1GuiObjectView@@UAE@XZ   00473ba0 f   guiObjectView.obj
 0001:00072c30       ?onWake@GuiObjectView@@UAE_NXZ 00473c30 f   guiObjectView.obj
 0001:00072d20       ?onMouseDragged@GuiObjectView@@UAEXABUGuiEvent@@@Z 00473d20 f   guiObjectView.obj
 0001:00072da0       ??1?$ConcreteClassRep@VGuiObjectView@@@@UAE@XZ 00473da0 f i guiObjectView.obj
 0001:00072dc0       ??0GuiObjectView@@QAE@XZ   00473dc0 f   guiObjectView.obj
 0001:00072e20       ??_EGuiObjectView@@UAEPAXI@Z 00473e20 f i guiObjectView.obj
 0001:00072e20       ??_GGuiObjectView@@UAEPAXI@Z 00473e20 f i guiObjectView.obj
 0001:00072e70       ?setObjectModel@GuiObjectView@@QAEXPBD0@Z 00473e70 f   guiObjectView.obj
 0001:000731a0       ?processCameraQuery@GuiObjectView@@UAE_NPAUCameraQuery@@@Z 004741a0 f   guiObjectView.obj
 0001:00073340       ??0?$ConcreteClassRep@VGuiObjectView@@@@QAE@PBDHHH@Z 00474340 f i guiObjectView.obj
 0001:000733c0       ?init@?$ConcreteClassRep@VGuiObjectView@@@@UBEXXZ 004743c0 f i guiObjectView.obj
 0001:000733f0       ?create@?$ConcreteClassRep@VGuiObjectView@@@@UBEPAVConsoleObject@@XZ 004743f0 f i guiObjectView.obj
 0001:00073420       ??_G?$ConcreteClassRep@VGuiObjectView@@@@UAEPAXI@Z 00474420 f i guiObjectView.obj
 0001:00073420       ??_E?$ConcreteClassRep@VGuiObjectView@@@@UAEPAXI@Z 00474420 f i guiObjectView.obj
 0001:00073460       ?getClassRep@GuiPlayerView@@UBEPAVAbstractClassRep@@XZ 00474460 f   guiPlayerView.obj
 0001:00073470       ?getStaticClassRep@GuiPlayerView@@SAPAVAbstractClassRep@@XZ 00474470 f   guiPlayerView.obj
 0001:00073480       ?getParentStaticClassRep@GuiPlayerView@@SAPAVAbstractClassRep@@XZ 00474480 f   guiPlayerView.obj
 0001:00073490       ?onMouseDown@GuiPlayerView@@UAEXABUGuiEvent@@@Z 00474490 f   guiPlayerView.obj
 0001:000734d0       ?onMouseUp@GuiPlayerView@@UAEXABUGuiEvent@@@Z 004744d0 f   guiPlayerView.obj
 0001:000734f0       ?onRightMouseDown@GuiPlayerView@@UAEXABUGuiEvent@@@Z 004744f0 f   guiPlayerView.obj
 0001:00073520       ?onRightMouseUp@GuiPlayerView@@UAEXABUGuiEvent@@@Z 00474520 f   guiPlayerView.obj
 0001:00073540       ?onRightMouseDragged@GuiPlayerView@@UAEXABUGuiEvent@@@Z 00474540 f   guiPlayerView.obj
 0001:00073590       ?setPlayerSeq@GuiPlayerView@@QAEXH@Z 00474590 f   guiPlayerView.obj
 0001:000735b0       ?onMouseEnter@GuiPlayerView@@UAEXABUGuiEvent@@@Z 004745b0 f   guiPlayerView.obj
 0001:000735d0       ?onMouseLeave@GuiPlayerView@@UAEXABUGuiEvent@@@Z 004745d0 f   guiPlayerView.obj
 0001:000735f0       ??A?$Vector@VMatrixF@@@@QAEAAVMatrixF@@I@Z 004745f0 f i guiPlayerView.obj
 0001:00073600       ?findNode@TSShape@@QBEHPBD@Z 00474600 f i guiPlayerView.obj
 0001:00073620       ??1GuiPlayerView@@UAE@XZ   00474620 f   guiPlayerView.obj
 0001:000736e0       ?onWake@GuiPlayerView@@UAE_NXZ 004746e0 f   guiPlayerView.obj
 0001:000737d0       ?onMouseDragged@GuiPlayerView@@UAEXABUGuiEvent@@@Z 004747d0 f   guiPlayerView.obj
 0001:00073850       ??A?$Vector@VMatrixF@@@@QAEAAVMatrixF@@H@Z 00474850 f i guiPlayerView.obj
 0001:00073860       ??1?$ConcreteClassRep@VGuiPlayerView@@@@UAE@XZ 00474860 f i guiPlayerView.obj
 0001:00073880       ??0GuiPlayerView@@QAE@XZ   00474880 f   guiPlayerView.obj
 0001:000738e0       ??_GGuiPlayerView@@UAEPAXI@Z 004748e0 f i guiPlayerView.obj
 0001:000738e0       ??_EGuiPlayerView@@UAEPAXI@Z 004748e0 f i guiPlayerView.obj
 0001:00073930       ?setPlayerModel@GuiPlayerView@@QAEXPBD0@Z 00474930 f   guiPlayerView.obj
 0001:00073e00       ?getWeaponTransform@GuiPlayerView@@QAEXPAVMatrixF@@@Z 00474e00 f   guiPlayerView.obj
 0001:00073ea0       ?processCameraQuery@GuiPlayerView@@UAE_NPAUCameraQuery@@@Z 00474ea0 f   guiPlayerView.obj
 0001:00074020       ?renderWorld@GuiPlayerView@@UAEXABVRectI@@@Z 00475020 f   guiPlayerView.obj
 0001:00074110       ??0?$ConcreteClassRep@VGuiPlayerView@@@@QAE@PBDHHH@Z 00475110 f i guiPlayerView.obj
 0001:00074190       ?init@?$ConcreteClassRep@VGuiPlayerView@@@@UBEXXZ 00475190 f i guiPlayerView.obj
 0001:000741c0       ?create@?$ConcreteClassRep@VGuiPlayerView@@@@UBEPAVConsoleObject@@XZ 004751c0 f i guiPlayerView.obj
 0001:000741f0       ??_E?$ConcreteClassRep@VGuiPlayerView@@@@UAEPAXI@Z 004751f0 f i guiPlayerView.obj
 0001:000741f0       ??_G?$ConcreteClassRep@VGuiPlayerView@@@@UAEPAXI@Z 004751f0 f i guiPlayerView.obj
 0001:00074230       ?getClassRep@ItemData@@UBEPAVAbstractClassRep@@XZ 00475230 f   item.obj
 0001:00074240       ?getStaticClassRep@ItemData@@SAPAVAbstractClassRep@@XZ 00475240 f   item.obj
 0001:00074250       ?getParentStaticClassRep@ItemData@@SAPAVAbstractClassRep@@XZ 00475250 f   item.obj
 0001:00074260       ?initPersistFields@ItemData@@SAXXZ 00475260 f   item.obj
 0001:00074390       ?getClassRep@Item@@UBEPAVAbstractClassRep@@XZ 00475390 f   item.obj
 0001:000743a0       ?getStaticClassRep@Item@@SAPAVAbstractClassRep@@XZ 004753a0 f   item.obj
 0001:000743b0       ?getParentStaticClassRep@Item@@SAPAVAbstractClassRep@@XZ 004753b0 f   item.obj
 0001:000743c0       ?onNewDataBlock@Item@@UAE_NPAUGameBaseData@@@Z 004753c0 f   item.obj
 0001:00074410       ?onDeleteNotify@Item@@EAEXPAVSimObject@@@Z 00475410 f   item.obj
 0001:00074430       ?setVelocity@Item@@UAEXABVPoint3F@@@Z 00475430 f   item.obj
 0001:00074470       ?setCollisionTimeout@Item@@QAEXPAVShapeBase@@@Z 00475470 f   item.obj
 0001:000744c0       ?mSin@@YANN@Z              004754c0 f i item.obj
 0001:000744d0       ?initPersistFields@Item@@SAXXZ 004754d0 f   item.obj
 0001:00074540       ?consoleInit@Item@@SAXXZ   00475540 f   item.obj
 0001:00074570       ??0?$SimObjectPtr@VItem@@@@QAE@PAVItem@@@Z 00475570 f i item.obj
 0001:00074590       ??1?$SimObjectPtr@VItem@@@@QAE@XZ 00475590 f i item.obj
 0001:000745a0       ??B?$SimObjectPtr@VItem@@@@QBEPAVItem@@XZ 004755a0 f i item.obj
 0001:000745b0       ??$findObject@VShapeBase@@@Sim@@YA_NIAAPAVShapeBase@@@Z 004755b0 f i item.obj
 0001:000745f0       ?isContained@Box3F@@QBE_NABV1@@Z 004755f0 f i item.obj
 0001:00074650       ?getLightSet@Sim@@YAPAVSimSet@@XZ 00475650 f i item.obj
 0001:00074660       ??DColorF@@QBE?AV0@M@Z     00475660 f i item.obj
 0001:00074690       ?getType@Convex@@QAE?AW4ConvexType@@XZ 00475690 f i item.obj
 0001:000746a0       ?getWorkingList@Convex@@QAEAAUCollisionWorkingList@@XZ 004756a0 f i item.obj
 0001:000746b0       ?getDamageState@ShapeBase@@QAE?AW4DamageState@1@XZ 004756b0 f i item.obj
 0001:000746c0       ?isHidden@ShapeBase@@QAE_NXZ 004756c0 f i item.obj
 0001:000746d0       ??0BoxConvex@@QAE@XZ       004756d0 f i item.obj
 0001:000746f0       ?init@BoxConvex@@QAEXPAVSceneObject@@@Z 004756f0 f i item.obj
 0001:00074700       ??1BoxConvex@@UAE@XZ       00475700 f i item.obj
 0001:00074710       ??1OrthoBoxConvex@@UAE@XZ  00475710 f i item.obj
 0001:00074720       ?isStatic@Item@@QAE_NXZ    00475720 f i item.obj
 0001:00074730       ?isRotating@Item@@QAE_NXZ  00475730 f i item.obj
 0001:00074740       ?setAnimating@Shadow@@QAEX_N@Z 00475740 f i item.obj
 0001:00074760       ?setMoving@Shadow@@QAEX_N@Z 00475760 f i item.obj
 0001:00074780       ??1?$ConcreteClassRep@UItemData@@@@UAE@XZ 00475780 f i item.obj
 0001:000747a0       ??0ItemData@@QAE@XZ        004757a0 f   item.obj
 0001:00074890       ??_EItemData@@UAEPAXI@Z    00475890 f i item.obj
 0001:00074890       ??_GItemData@@UAEPAXI@Z    00475890 f i item.obj
 0001:000748b0       ??1ItemData@@UAE@XZ        004758b0 f i item.obj
 0001:000748c0       ?packData@ItemData@@UAEXPAVBitStream@@@Z 004758c0 f   item.obj
 0001:00074a20       ?unpackData@ItemData@@UAEXPAVBitStream@@@Z 00475a20 f   item.obj
 0001:00074c50       ??1?$ConcreteClassRep@VItem@@@@UAE@XZ 00475c50 f i item.obj
 0001:00074c70       ??0StateDelta@Item@@QAE@XZ 00475c70 f i item.obj
 0001:00074c80       ??0LightInfo@@QAE@XZ       00475c80 f i item.obj
 0001:00074c90       ??1Item@@UAE@XZ            00475c90 f   item.obj
 0001:00074cf0       ?onAdd@Item@@UAE_NXZ       00475cf0 f   item.obj
 0001:00074e60       ?onRemove@Item@@UAEXXZ     00475e60 f   item.obj
 0001:00074ea0       ?registerLights@Item@@UAEXPAVLightManager@@_N@Z 00475ea0 f   item.obj
 0001:00074fe0       ?getVelocity@Item@@UBE?AVPoint3F@@XZ 00475fe0 f   item.obj
 0001:00075010       ?applyImpulse@Item@@UAEXABVPoint3F@@0@Z 00476010 f   item.obj
 0001:00075050       ?interpolateTick@Item@@UAEXM@Z 00476050 f   item.obj
 0001:000750f0       ?updateWorkingCollisionSet@Item@@AAEXIM@Z 004760f0 f   item.obj
 0001:000752d0       ?updateVelocity@Item@@AAEXM@Z 004762d0 f   item.obj
 0001:00075470       ?buildPolyList@Item@@EAE_NPAVAbstractPolyList@@ABVBox3F@@ABVSphereF@@@Z 00476470 f   item.obj
 0001:000754e0       ?packUpdate@Item@@UAEIPAVNetConnection@@IPAVBitStream@@@Z 004764e0 f   item.obj
 0001:000756d0       ?unpackUpdate@Item@@UAEXPAVNetConnection@@PAVBitStream@@@Z 004766d0 f   item.obj
 0001:00075ed0       ?prepRenderImage@Item@@EAE_NPAVSceneState@@II_N@Z 00476ed0 f   item.obj
 0001:00075ef0       ?renderImage@Item@@UAEXPAVSceneState@@PAVSceneRenderImage@@@Z 00476ef0 f   item.obj
 0001:00076010       ?buildConvex@Item@@EAEXABVBox3F@@PAVConvex@@@Z 00477010 f   item.obj
 0001:00076140       ??_EBoxConvex@@UAEPAXI@Z   00477140 f i item.obj
 0001:00076140       ??_GBoxConvex@@UAEPAXI@Z   00477140 f i item.obj
 0001:00076160       ??0OrthoBoxConvex@@QAE@XZ  00477160 f i item.obj
 0001:000761d0       ??_GOrthoBoxConvex@@UAEPAXI@Z 004771d0 f i item.obj
 0001:000761d0       ??_EOrthoBoxConvex@@UAEPAXI@Z 004771d0 f i item.obj
 0001:000761f0       ??0Item@@QAE@XZ            004771f0 f   item.obj
 0001:000762e0       ??_EItem@@UAEPAXI@Z        004772e0 f i item.obj
 0001:000762e0       ??_GItem@@UAEPAXI@Z        004772e0 f i item.obj
 0001:00076300       ?setTransform@Item@@UAEXABVMatrixF@@@Z 00477300 f   item.obj
 0001:00076470       ?updatePos@Item@@AAEXIM@Z  00477470 f   item.obj
 0001:00077580       ??0?$ConcreteClassRep@UItemData@@@@QAE@PBDHHH@Z 00478580 f i item.obj
 0001:00077600       ?init@?$ConcreteClassRep@UItemData@@@@UBEXXZ 00478600 f i item.obj
 0001:00077630       ?create@?$ConcreteClassRep@UItemData@@@@UBEPAVConsoleObject@@XZ 00478630 f i item.obj
 0001:00077660       ??_E?$ConcreteClassRep@UItemData@@@@UAEPAXI@Z 00478660 f i item.obj
 0001:00077660       ??_G?$ConcreteClassRep@UItemData@@@@UAEPAXI@Z 00478660 f i item.obj
 0001:00077680       ??0?$ConcreteClassRep@VItem@@@@QAE@PBDHHH@Z 00478680 f i item.obj
 0001:00077700       ?init@?$ConcreteClassRep@VItem@@@@UBEXXZ 00478700 f i item.obj
 0001:00077750       ??_G?$ConcreteClassRep@VItem@@@@UAEPAXI@Z 00478750 f i item.obj
 0001:00077750       ??_E?$ConcreteClassRep@VItem@@@@UAEPAXI@Z 00478750 f i item.obj
 0001:00077770       ?create@?$ConcreteClassRep@VItem@@@@UBEPAVConsoleObject@@XZ 00478770 f i item.obj
 0001:000777a0       ?processTick@Item@@UAEXPBUMove@@@Z 004787a0 f   item.obj
 0001:00077960       ??0DemoGame@@QAE@XZ        00478960 f i main.obj
 0001:00077980       ?getClassRep@Terraformer@@UBEPAVAbstractClassRep@@XZ 00478980 f   main.obj
 0001:00077990       ?getStaticClassRep@Terraformer@@SAPAVAbstractClassRep@@XZ 00478990 f   main.obj
 0001:000779a0       ?getParentStaticClassRep@Terraformer@@SAPAVAbstractClassRep@@XZ 004789a0 f   main.obj
 0001:00077ac0       ??_GSceneGraph@@QAEPAXI@Z  00478ac0 f i main.obj
 0001:00077ae0       ?fpsReset@@YAXXZ           00478ae0 f   main.obj
 0001:00077b70       ?fpsUpdate@@YAXXZ          00478b70 f   main.obj
 0001:00077ce0       ?processMouseMoveEvent@DemoGame@@UAEXPAUMouseMoveEvent@@@Z 00478ce0 f   main.obj
 0001:00077d00       ?processInputEvent@DemoGame@@UAEXPAUInputEvent@@@Z 00478d00 f   main.obj
 0001:00077db0       ?refreshWindow@DemoGame@@UAEXXZ 00478db0 f   main.obj
 0001:00077dc0       ?GameReactivate@@YAXXZ     00478dc0 f   main.obj
 0001:00077e00       ?GameDeactivate@@YAX_N@Z   00478e00 f   main.obj
 0001:00077e30       ?textureKill@DemoGame@@UAEXXZ 00478e30 f   main.obj
 0001:00077e40       ?textureResurrect@DemoGame@@UAEXXZ 00478e40 f   main.obj
 0001:00077e50       ?processPacketReceiveEvent@DemoGame@@UAEXPAUPacketReceiveEvent@@@Z 00478e50 f   main.obj
 0001:00077e60       ?getActiveActionMapSet@Sim@@YAPAVSimSet@@XZ 00478e60 f i main.obj
 0001:00077e70       ?address@?$Vector@PAD@@QBEPAPADXZ 00478e70 f i main.obj
 0001:00077e80       ??1?$Vector@PAVNetConnection@@@@QAE@XZ 00478e80 f i main.obj
 0001:00077e90       ?setRunning@GameInterface@@QAEX_N@Z 00478e90 f i main.obj
 0001:00077ea0       ?isRunning@GameInterface@@QAE_NXZ 00478ea0 f i main.obj
 0001:00077eb0       ?init@FrameAllocator@@SAXI@Z 00478eb0 f i main.obj
 0001:00077ee0       ?destroy@FrameAllocator@@SAXXZ 00478ee0 f i main.obj
 0001:00077f00       ?init@DetailManager@@SAXXZ 00478f00 f i main.obj
 0001:00077f30       ??_GDetailManager@@QAEPAXI@Z 00478f30 f i main.obj
 0001:00077f50       ?incRenderFrame@ShapeBase@@SAXXZ 00478f50 f i main.obj
 0001:00077f60       ??1NetInterface@@QAE@XZ    00478f60 f i main.obj
 0001:00078240       ?runEntryScript@@YA_NHPAPBD@Z 00479240 f   main.obj
 0001:000783b0       ?initGame@@YA_NHPAPBD@Z    004793b0 f   main.obj
 0001:00078760       ?processQuitEvent@DemoGame@@UAEXXZ 00479760 f   main.obj
 0001:00078770       ?processConsoleEvent@DemoGame@@UAEXPAUConsoleEvent@@@Z 00479770 f   main.obj
 0001:000787e0       ?processTimeEvent@DemoGame@@UAEXPAUTimeEvent@@@Z 004797e0 f   main.obj
 0001:00078b90       ?shutdown@DetailManager@@SAXXZ 00479b90 f i main.obj
 0001:00078bc0       ??0DemoNetInterface@@QAE@XZ 00479bc0 f i main.obj
 0001:00078be0       ??1DemoNetInterface@@QAE@XZ 00479be0 f i main.obj
 0001:00078bf0       ??1?$ConcreteClassRep@VTerraformer@@@@UAE@XZ 00479bf0 f i main.obj
 0001:00078c10       ?shutdownGame@@YAXXZ       00479c10 f   main.obj
 0001:00078d30       ?main@DemoGame@@UAEHHPAPBD@Z 00479d30 f   main.obj
 0001:00078fb0       ??0?$ConcreteClassRep@VTerraformer@@@@QAE@PBDHHH@Z 00479fb0 f i main.obj
 0001:00079030       ?init@?$ConcreteClassRep@VTerraformer@@@@UBEXXZ 0047a030 f i main.obj
 0001:00079060       ?create@?$ConcreteClassRep@VTerraformer@@@@UBEPAVConsoleObject@@XZ 0047a060 f i main.obj
 0001:00079090       ??_E?$ConcreteClassRep@VTerraformer@@@@UAEPAXI@Z 0047a090 f i main.obj
 0001:00079090       ??_G?$ConcreteClassRep@VTerraformer@@@@UAEPAXI@Z 0047a090 f i main.obj
 0001:000790b0       ?getClassRep@MissionArea@@UBEPAVAbstractClassRep@@XZ 0047a0b0 f   missionArea.obj
 0001:000790c0       ?getStaticClassRep@MissionArea@@SAPAVAbstractClassRep@@XZ 0047a0c0 f   missionArea.obj
 0001:000790d0       ?getParentStaticClassRep@MissionArea@@SAPAVAbstractClassRep@@XZ 0047a0d0 f   missionArea.obj
 0001:000790e0       ?initPersistFields@MissionArea@@SAXXZ 0047a0e0 f   missionArea.obj
 0001:00079140       ??0RectI@@QAE@ABVPoint2I@@0@Z 0047a140 f i missionArea.obj
 0001:00079170       ?mathRead@@YA_NAAVStream@@PAVPoint2I@@@Z 0047a170 f i missionArea.obj
 0001:000791b0       ?mathRead@@YA_NAAVStream@@PAVRectI@@@Z 0047a1b0 f i missionArea.obj
 0001:00079230       ?mathWrite@@YA_NAAVStream@@ABVPoint2I@@@Z 0047a230 f i missionArea.obj
 0001:00079270       ?mathWrite@@YA_NAAVStream@@ABVRectI@@@Z 0047a270 f i missionArea.obj
 0001:000792f0       ??0MissionArea@@QAE@XZ     0047a2f0 f   missionArea.obj
 0001:00079340       ??_EMissionArea@@UAEPAXI@Z 0047a340 f i missionArea.obj
 0001:00079340       ??_GMissionArea@@UAEPAXI@Z 0047a340 f i missionArea.obj
 0001:00079360       ??1MissionArea@@UAE@XZ     0047a360 f i missionArea.obj
 0001:00079370       ?setArea@MissionArea@@QAEXABVRectI@@@Z 0047a370 f   missionArea.obj
 0001:00079440       ?unpackUpdate@MissionArea@@UAEXPAVNetConnection@@PAVBitStream@@@Z 0047a440 f   missionArea.obj
 0001:000794d0       ?packUpdate@MissionArea@@UAEIPAVNetConnection@@IPAVBitStream@@@Z 0047a4d0 f   missionArea.obj
 0001:00079530       ??1?$ConcreteClassRep@VMissionArea@@@@UAE@XZ 0047a530 f i missionArea.obj
 0001:00079550       ?getServerObject@MissionArea@@SAPBV1@XZ 0047a550 f   missionArea.obj
 0001:000795a0       ?onAdd@MissionArea@@UAE_NXZ 0047a5a0 f   missionArea.obj
 0001:00079670       ??0?$ConcreteClassRep@VMissionArea@@@@QAE@PBDHHH@Z 0047a670 f i missionArea.obj
 0001:000796f0       ?init@?$ConcreteClassRep@VMissionArea@@@@UBEXXZ 0047a6f0 f i missionArea.obj
 0001:00079720       ?create@?$ConcreteClassRep@VMissionArea@@@@UBEPAVConsoleObject@@XZ 0047a720 f i missionArea.obj
 0001:00079750       ??_G?$ConcreteClassRep@VMissionArea@@@@UAEPAXI@Z 0047a750 f i missionArea.obj
 0001:00079750       ??_E?$ConcreteClassRep@VMissionArea@@@@UAEPAXI@Z 0047a750 f i missionArea.obj
 0001:00079770       ?getClassRep@MissionMarkerData@@UBEPAVAbstractClassRep@@XZ 0047a770 f   missionMarker.obj
 0001:00079780       ?getStaticClassRep@MissionMarkerData@@SAPAVAbstractClassRep@@XZ 0047a780 f   missionMarker.obj
 0001:00079790       ?getParentStaticClassRep@MissionMarkerData@@SAPAVAbstractClassRep@@XZ 0047a790 f   missionMarker.obj
 0001:000797a0       ?getClassRep@MissionMarker@@UBEPAVAbstractClassRep@@XZ 0047a7a0 f   missionMarker.obj
 0001:000797b0       ?getStaticClassRep@MissionMarker@@SAPAVAbstractClassRep@@XZ 0047a7b0 f   missionMarker.obj
 0001:000797c0       ?getParentStaticClassRep@MissionMarker@@SAPAVAbstractClassRep@@XZ 0047a7c0 f   missionMarker.obj
 0001:000797d0       ??1MissionMarker@@UAE@XZ   0047a7d0 f i missionMarker.obj
 0001:000797e0       ?onAdd@MissionMarker@@UAE_NXZ 0047a7e0 f   missionMarker.obj
 0001:00079820       ?onRemove@MissionMarker@@UAEXXZ 0047a820 f   missionMarker.obj
 0001:00079840       ?inspectPostApply@MissionMarker@@UAEXXZ 0047a840 f   missionMarker.obj
 0001:00079860       ?onEditorEnable@MissionMarker@@UAEXXZ 0047a860 f   missionMarker.obj
 0001:00079880       ?onEditorDisable@MissionMarker@@UAEXXZ 0047a880 f   missionMarker.obj
 0001:000798a0       ?onNewDataBlock@MissionMarker@@UAE_NPAUGameBaseData@@@Z 0047a8a0 f   missionMarker.obj
 0001:000798f0       ?setTransform@MissionMarker@@UAEXABVMatrixF@@@Z 0047a8f0 f   missionMarker.obj
 0001:00079910       ?initPersistFields@MissionMarker@@SAXXZ 0047a910 f   missionMarker.obj
 0001:00079920       ?getClassRep@WayPoint@@UBEPAVAbstractClassRep@@XZ 0047a920 f   missionMarker.obj
 0001:00079930       ?getStaticClassRep@WayPoint@@SAPAVAbstractClassRep@@XZ 0047a930 f   missionMarker.obj
 0001:00079940       ?getParentStaticClassRep@WayPoint@@SAPAVAbstractClassRep@@XZ 0047a940 f   missionMarker.obj
 0001:00079950       ??0WayPointTeam@@QAE@XZ    0047a950 f   missionMarker.obj
 0001:00079960       ?inspectPostApply@WayPoint@@UAEXXZ 0047a960 f   missionMarker.obj
 0001:000799e0       ?getClassRep@SpawnSphere@@UBEPAVAbstractClassRep@@XZ 0047a9e0 f   missionMarker.obj
 0001:000799f0       ?getStaticClassRep@SpawnSphere@@SAPAVAbstractClassRep@@XZ 0047a9f0 f   missionMarker.obj
 0001:00079a00       ?getParentStaticClassRep@SpawnSphere@@SAPAVAbstractClassRep@@XZ 0047aa00 f   missionMarker.obj
 0001:00079a10       ?inspectPostApply@SpawnSphere@@UAEXXZ 0047aa10 f   missionMarker.obj
 0001:00079a40       ?initPersistFields@SpawnSphere@@SAXXZ 0047aa40 f   missionMarker.obj
 0001:00079ae0       ?getWayPointSet@Sim@@YAPAVSimSet@@XZ 0047aae0 f i missionMarker.obj
 0001:00079af0       ??1?$ConcreteClassRep@VMissionMarkerData@@@@UAE@XZ 0047aaf0 f i missionMarker.obj
 0001:00079b10       ??1?$ConcreteClassRep@VMissionMarker@@@@UAE@XZ 0047ab10 f i missionMarker.obj
 0001:00079b30       ??0MissionMarker@@QAE@XZ   0047ab30 f   missionMarker.obj
 0001:00079b70       ??_GMissionMarker@@UAEPAXI@Z 0047ab70 f i missionMarker.obj
 0001:00079b70       ??_EMissionMarker@@UAEPAXI@Z 0047ab70 f i missionMarker.obj
 0001:00079b90       ?packUpdate@MissionMarker@@UAEIPAVNetConnection@@IPAVBitStream@@@Z 0047ab90 f   missionMarker.obj
 0001:00079bf0       ??1?$ConcreteClassRep@VWayPoint@@@@UAE@XZ 0047abf0 f i missionMarker.obj
 0001:00079c10       ??0WayPoint@@QAE@XZ        0047ac10 f   missionMarker.obj
 0001:00079ca0       ??_GWayPoint@@UAEPAXI@Z    0047aca0 f i missionMarker.obj
 0001:00079ca0       ??_EWayPoint@@UAEPAXI@Z    0047aca0 f i missionMarker.obj
 0001:00079cc0       ??1WayPoint@@UAE@XZ        0047acc0 f i missionMarker.obj
 0001:00079cd0       ?setHidden@WayPoint@@UAEX_N@Z 0047acd0 f   missionMarker.obj
 0001:00079d10       ?onAdd@WayPoint@@UAE_NXZ   0047ad10 f   missionMarker.obj
 0001:00079d70       ?packUpdate@WayPoint@@UAEIPAVNetConnection@@IPAVBitStream@@@Z 0047ad70 f   missionMarker.obj
 0001:00079e60       ?initPersistFields@WayPoint@@SAXXZ 0047ae60 f   missionMarker.obj
 0001:00079ed0       ??1?$ConcreteClassRep@VSpawnSphere@@@@UAE@XZ 0047aed0 f i missionMarker.obj
 0001:00079ef0       ??0SpawnSphere@@QAE@XZ     0047aef0 f   missionMarker.obj
 0001:00079f50       ??_ESpawnSphere@@UAEPAXI@Z 0047af50 f i missionMarker.obj
 0001:00079f50       ??_GSpawnSphere@@UAEPAXI@Z 0047af50 f i missionMarker.obj
 0001:00079f70       ??1SpawnSphere@@UAE@XZ     0047af70 f i missionMarker.obj
 0001:00079f80       ?onAdd@SpawnSphere@@UAE_NXZ 0047af80 f   missionMarker.obj
 0001:00079fd0       ?packUpdate@SpawnSphere@@UAEIPAVNetConnection@@IPAVBitStream@@@Z 0047afd0 f   missionMarker.obj
 0001:0007a070       ?unpackUpdate@MissionMarker@@UAEXPAVNetConnection@@PAVBitStream@@@Z 0047b070 f   missionMarker.obj
 0001:0007a100       ?unpackUpdate@WayPoint@@UAEXPAVNetConnection@@PAVBitStream@@@Z 0047b100 f   missionMarker.obj
 0001:0007a230       ?unpackUpdate@SpawnSphere@@UAEXPAVNetConnection@@PAVBitStream@@@Z 0047b230 f   missionMarker.obj
 0001:0007a2f0       ??0?$ConcreteClassRep@VMissionMarkerData@@@@QAE@PBDHHH@Z 0047b2f0 f i missionMarker.obj
 0001:0007a370       ?init@?$ConcreteClassRep@VMissionMarkerData@@@@UBEXXZ 0047b370 f i missionMarker.obj
 0001:0007a3a0       ?create@?$ConcreteClassRep@VMissionMarkerData@@@@UBEPAVConsoleObject@@XZ 0047b3a0 f i missionMarker.obj
 0001:0007a3d0       ??0MissionMarkerData@@QAE@XZ 0047b3d0 f i missionMarker.obj
 0001:0007a3f0       ??_E?$ConcreteClassRep@VMissionMarkerData@@@@UAEPAXI@Z 0047b3f0 f i missionMarker.obj
 0001:0007a3f0       ??_G?$ConcreteClassRep@VMissionMarkerData@@@@UAEPAXI@Z 0047b3f0 f i missionMarker.obj
 0001:0007a410       ??_EMissionMarkerData@@UAEPAXI@Z 0047b410 f i missionMarker.obj
 0001:0007a410       ??_GMissionMarkerData@@UAEPAXI@Z 0047b410 f i missionMarker.obj
 0001:0007a430       ??1MissionMarkerData@@UAE@XZ 0047b430 f i missionMarker.obj
 0001:0007a440       ??0?$ConcreteClassRep@VMissionMarker@@@@QAE@PBDHHH@Z 0047b440 f i missionMarker.obj
 0001:0007a4c0       ?init@?$ConcreteClassRep@VMissionMarker@@@@UBEXXZ 0047b4c0 f i missionMarker.obj
 0001:0007a4f0       ?create@?$ConcreteClassRep@VMissionMarker@@@@UBEPAVConsoleObject@@XZ 0047b4f0 f i missionMarker.obj
 0001:0007a520       ??_E?$ConcreteClassRep@VMissionMarker@@@@UAEPAXI@Z 0047b520 f i missionMarker.obj
 0001:0007a520       ??_G?$ConcreteClassRep@VMissionMarker@@@@UAEPAXI@Z 0047b520 f i missionMarker.obj
 0001:0007a540       ??0?$ConcreteClassRep@VWayPoint@@@@QAE@PBDHHH@Z 0047b540 f i missionMarker.obj
 0001:0007a5c0       ?init@?$ConcreteClassRep@VWayPoint@@@@UBEXXZ 0047b5c0 f i missionMarker.obj
 0001:0007a5e0       ?create@?$ConcreteClassRep@VWayPoint@@@@UBEPAVConsoleObject@@XZ 0047b5e0 f i missionMarker.obj
 0001:0007a610       ??_E?$ConcreteClassRep@VWayPoint@@@@UAEPAXI@Z 0047b610 f i missionMarker.obj
 0001:0007a610       ??_G?$ConcreteClassRep@VWayPoint@@@@UAEPAXI@Z 0047b610 f i missionMarker.obj
 0001:0007a630       ??0?$ConcreteClassRep@VSpawnSphere@@@@QAE@PBDHHH@Z 0047b630 f i missionMarker.obj
 0001:0007a6b0       ?init@?$ConcreteClassRep@VSpawnSphere@@@@UBEXXZ 0047b6b0 f i missionMarker.obj
 0001:0007a6d0       ?create@?$ConcreteClassRep@VSpawnSphere@@@@UBEPAVConsoleObject@@XZ 0047b6d0 f i missionMarker.obj
 0001:0007a700       ??_E?$ConcreteClassRep@VSpawnSphere@@@@UAEPAXI@Z 0047b700 f i missionMarker.obj
 0001:0007a700       ??_G?$ConcreteClassRep@VSpawnSphere@@@@UAEPAXI@Z 0047b700 f i missionMarker.obj
 0001:0007a720       ?getClassRep@PathCameraData@@UBEPAVAbstractClassRep@@XZ 0047b720 f   pathCamera.obj
 0001:0007a730       ?getStaticClassRep@PathCameraData@@SAPAVAbstractClassRep@@XZ 0047b730 f   pathCamera.obj
 0001:0007a740       ?getParentStaticClassRep@PathCameraData@@SAPAVAbstractClassRep@@XZ 0047b740 f   pathCamera.obj
 0001:0007a750       ?consoleInit@PathCameraData@@SAXXZ 0047b750 f   pathCamera.obj
 0001:0007a760       ?initPersistFields@PathCameraData@@SAXXZ 0047b760 f   pathCamera.obj
 0001:0007a770       ?packData@PathCameraData@@UAEXPAVBitStream@@@Z 0047b770 f   pathCamera.obj
 0001:0007a780       ?unpackData@PathCameraData@@UAEXPAVBitStream@@@Z 0047b780 f   pathCamera.obj
 0001:0007a790       ?getClassRep@PathCamera@@UBEPAVAbstractClassRep@@XZ 0047b790 f   pathCamera.obj
 0001:0007a7a0       ?getStaticClassRep@PathCamera@@SAPAVAbstractClassRep@@XZ 0047b7a0 f   pathCamera.obj
 0001:0007a7b0       ?getParentStaticClassRep@PathCamera@@SAPAVAbstractClassRep@@XZ 0047b7b0 f   pathCamera.obj
 0001:0007a7c0       ??1PathCamera@@UAE@XZ      0047b7c0 f   pathCamera.obj
 0001:0007a820       ?onNewDataBlock@PathCamera@@UAE_NPAUGameBaseData@@@Z 0047b820 f   pathCamera.obj
 0001:0007a870       ?initPersistFields@PathCamera@@SAXXZ 0047b870 f   pathCamera.obj
 0001:0007a880       ?consoleInit@PathCamera@@SAXXZ 0047b880 f   pathCamera.obj
 0001:0007a890       ?getCameraTransform@PathCamera@@UAEXPAMPAVMatrixF@@@Z 0047b890 f   pathCamera.obj
 0001:0007a8a0       ?setTarget@PathCamera@@QAEXM@Z 0047b8a0 f   pathCamera.obj
 0001:0007a920       ?setState@PathCamera@@QAEXW4State@1@@Z 0047b920 f   pathCamera.obj
 0001:0007a940       ?pushBack@PathCamera@@QAEXPAUKnot@CameraSpline@@@Z 0047b940 f   pathCamera.obj
 0001:0007a9e0       ?popFront@PathCamera@@QAEXXZ 0047b9e0 f   pathCamera.obj
 0001:0007ab50       ?set@AngAxisF@@QAEAAV1@ABVPoint3F@@M@Z 0047bb50 f i pathCamera.obj
 0001:0007ab80       ?mathRead@@YA_NAAVStream@@PAVQuatF@@@Z 0047bb80 f i pathCamera.obj
 0001:0007ac00       ?mathWrite@@YA_NAAVStream@@ABVQuatF@@@Z 0047bc00 f i pathCamera.obj
 0001:0007ac70       ??1?$ConcreteClassRep@UPathCameraData@@@@UAE@XZ 0047bc70 f i pathCamera.obj
 0001:0007ac90       ??1?$ConcreteClassRep@VPathCamera@@@@UAE@XZ 0047bc90 f i pathCamera.obj
 0001:0007acb0       ??_EPathCamera@@UAEPAXI@Z  0047bcb0 f i pathCamera.obj
 0001:0007acb0       ??_GPathCamera@@UAEPAXI@Z  0047bcb0 f i pathCamera.obj
 0001:0007acd0       ?onAdd@PathCamera@@UAE_NXZ 0047bcd0 f   pathCamera.obj
 0001:0007add0       ?onRemove@PathCamera@@UAEXXZ 0047bdd0 f   pathCamera.obj
 0001:0007adf0       ?onEditorEnable@PathCamera@@UAEXXZ 0047bdf0 f   pathCamera.obj
 0001:0007ae00       ?onEditorDisable@PathCamera@@UAEXXZ 0047be00 f   pathCamera.obj
 0001:0007ae10       ?reset@PathCamera@@QAEXM@Z 0047be10 f   pathCamera.obj
 0001:0007aeb0       ?pushFront@PathCamera@@QAEXPAUKnot@CameraSpline@@@Z 0047beb0 f   pathCamera.obj
 0001:0007af60       ?onNode@PathCamera@@QAEXH@Z 0047bf60 f   pathCamera.obj
 0001:0007afa0       ?renderImage@PathCamera@@UAEXPAVSceneState@@PAVSceneRenderImage@@@Z 0047bfa0 f   pathCamera.obj
 0001:0007b030       ?packUpdate@PathCamera@@UAEIPAVNetConnection@@IPAVBitStream@@@Z 0047c030 f   pathCamera.obj
 0001:0007b230       ?unpackUpdate@PathCamera@@UAEXPAVNetConnection@@PAVBitStream@@@Z 0047c230 f   pathCamera.obj
 0001:0007b540       ??0AngAxisF@@QAE@ABVPoint3F@@M@Z 0047c540 f i pathCamera.obj
 0001:0007b570       ??0PathCamera@@QAE@XZ      0047c570 f   pathCamera.obj
 0001:0007b670       ?interpolateMat@PathCamera@@AAEXMPAVMatrixF@@@Z 0047c670 f   pathCamera.obj
 0001:0007b6c0       ?advancePosition@PathCamera@@AAEXH@Z 0047c6c0 f   pathCamera.obj
 0001:0007b890       ?setPosition@PathCamera@@QAEXM@Z 0047c890 f   pathCamera.obj
 0001:0007bc20       ?processTick@PathCamera@@UAEXPBUMove@@@Z 0047cc20 f   pathCamera.obj
 0001:0007bca0       ?interpolateTick@PathCamera@@UAEXM@Z 0047cca0 f   pathCamera.obj
 0001:0007bd80       ??0?$ConcreteClassRep@UPathCameraData@@@@QAE@PBDHHH@Z 0047cd80 f i pathCamera.obj
 0001:0007be00       ?init@?$ConcreteClassRep@UPathCameraData@@@@UBEXXZ 0047ce00 f i pathCamera.obj
 0001:0007be30       ?create@?$ConcreteClassRep@UPathCameraData@@@@UBEPAVConsoleObject@@XZ 0047ce30 f i pathCamera.obj
 0001:0007be60       ??0PathCameraData@@QAE@XZ  0047ce60 f i pathCamera.obj
 0001:0007be80       ??_E?$ConcreteClassRep@UPathCameraData@@@@UAEPAXI@Z 0047ce80 f i pathCamera.obj
 0001:0007be80       ??_G?$ConcreteClassRep@UPathCameraData@@@@UAEPAXI@Z 0047ce80 f i pathCamera.obj
 0001:0007bea0       ??_EPathCameraData@@UAEPAXI@Z 0047cea0 f i pathCamera.obj
 0001:0007bea0       ??_GPathCameraData@@UAEPAXI@Z 0047cea0 f i pathCamera.obj
 0001:0007bec0       ??1PathCameraData@@UAE@XZ  0047cec0 f i pathCamera.obj
 0001:0007bed0       ??0?$ConcreteClassRep@VPathCamera@@@@QAE@PBDHHH@Z 0047ced0 f i pathCamera.obj
 0001:0007bf50       ?init@?$ConcreteClassRep@VPathCamera@@@@UBEXXZ 0047cf50 f i pathCamera.obj
 0001:0007bf80       ??_G?$ConcreteClassRep@VPathCamera@@@@UAEPAXI@Z 0047cf80 f i pathCamera.obj
 0001:0007bf80       ??_E?$ConcreteClassRep@VPathCamera@@@@UAEPAXI@Z 0047cf80 f i pathCamera.obj
 0001:0007bfa0       ?create@?$ConcreteClassRep@VPathCamera@@@@UBEPAVConsoleObject@@XZ 0047cfa0 f i pathCamera.obj
 0001:0007bfd0       ?getClassRep@PhysicalZone@@UBEPAVAbstractClassRep@@XZ 0047cfd0 f   physicalZone.obj
 0001:0007bfe0       ?getStaticClassRep@PhysicalZone@@SAPAVAbstractClassRep@@XZ 0047cfe0 f   physicalZone.obj
 0001:0007bff0       ?getParentStaticClassRep@PhysicalZone@@SAPAVAbstractClassRep@@XZ 0047cff0 f   physicalZone.obj
 0001:0007c000       ?initPersistFields@PhysicalZone@@SAXXZ 0047d000 f   physicalZone.obj
 0001:0007c080       ?onRemove@PhysicalZone@@MAEXXZ 0047d080 f   physicalZone.obj
 0001:0007c0a0       ?activate@PhysicalZone@@QAEXXZ 0047d0a0 f   physicalZone.obj
 0001:0007c0c0       ?deactivate@PhysicalZone@@QAEXXZ 0047d0c0 f   physicalZone.obj
 0001:0007c0e0       ?mathRead@@YA_NAAVStream@@PAVPlaneF@@@Z 0047d0e0 f i physicalZone.obj
 0001:0007c160       ?mathRead@@YA_NAAVStream@@PAVMatrixF@@@Z 0047d160 f i physicalZone.obj
 0001:0007c1a0       ?mathWrite@@YA_NAAVStream@@ABVPlaneF@@@Z 0047d1a0 f i physicalZone.obj
 0001:0007c210       ?mathWrite@@YA_NAAVStream@@ABVMatrixF@@@Z 0047d210 f i physicalZone.obj
 0001:0007c2b0       ??1PhysicalZone@@UAE@XZ    0047d2b0 f   physicalZone.obj
 0001:0007c340       ?packUpdate@PhysicalZone@@UAEIPAVNetConnection@@IPAVBitStream@@@Z 0047d340 f   physicalZone.obj
 0001:0007c5c0       ?testObject@PhysicalZone@@QAE_NPAVSceneObject@@@Z 0047d5c0 f   physicalZone.obj
 0001:0007c6b0       ??0?$Vector@VPoint3F@@@@QAE@ABV0@@Z 0047d6b0 f i physicalZone.obj
 0001:0007c700       ??4?$Vector@VPoint3F@@@@QAEAAV0@ABV0@@Z 0047d700 f i physicalZone.obj
 0001:0007c750       ??0?$Vector@VPlaneF@@@@QAE@ABV0@@Z 0047d750 f i physicalZone.obj
 0001:0007c7a0       ??4?$Vector@VPlaneF@@@@QAEAAV0@ABV0@@Z 0047d7a0 f i physicalZone.obj
 0001:0007c7f0       ??0?$Vector@UEdge@Polyhedron@@@@QAE@ABV0@@Z 0047d7f0 f i physicalZone.obj
 0001:0007c840       ??4?$Vector@UEdge@Polyhedron@@@@QAEAAV0@ABV0@@Z 0047d840 f i physicalZone.obj
 0001:0007c890       ??1?$ConcreteClassRep@VPhysicalZone@@@@UAE@XZ 0047d890 f i physicalZone.obj
 0001:0007c910       ??0PhysicalZone@@QAE@XZ    0047d910 f   physicalZone.obj
 0001:0007ca00       ??_EPhysicalZone@@UAEPAXI@Z 0047da00 f i physicalZone.obj
 0001:0007ca00       ??_GPhysicalZone@@UAEPAXI@Z 0047da00 f i physicalZone.obj
 0001:0007ca20       ??0Polyhedron@@QAE@ABU0@@Z 0047da20 f i physicalZone.obj
 0001:0007cb20       ?setTransform@PhysicalZone@@UAEXABVMatrixF@@@Z 0047db20 f   physicalZone.obj
 0001:0007cc60       ??4Polyhedron@@QAEAAU0@ABU0@@Z 0047dc60 f i physicalZone.obj
 0001:0007cd20       ?buildConvex@PhysicalZone@@MAEXABVBox3F@@PAVConvex@@@Z 0047dd20 f   physicalZone.obj
 0001:0007cec0       ?setPolyhedron@PhysicalZone@@QAEXABUPolyhedron@@@Z 0047dec0 f   physicalZone.obj
 0001:0007d1b0       ??0?$ConcreteClassRep@VPhysicalZone@@@@QAE@PBDHHH@Z 0047e1b0 f i physicalZone.obj
 0001:0007d230       ?init@?$ConcreteClassRep@VPhysicalZone@@@@UBEXXZ 0047e230 f i physicalZone.obj
 0001:0007d260       ?create@?$ConcreteClassRep@VPhysicalZone@@@@UBEPAVConsoleObject@@XZ 0047e260 f i physicalZone.obj
 0001:0007d290       ??_E?$ConcreteClassRep@VPhysicalZone@@@@UAEPAXI@Z 0047e290 f i physicalZone.obj
 0001:0007d290       ??_G?$ConcreteClassRep@VPhysicalZone@@@@UAEPAXI@Z 0047e290 f i physicalZone.obj
 0001:0007d2b0       ?onAdd@PhysicalZone@@MAE_NXZ 0047e2b0 f   physicalZone.obj
 0001:0007d460       ?unpackUpdate@PhysicalZone@@UAEXPAVNetConnection@@PAVBitStream@@@Z 0047e460 f   physicalZone.obj
 0001:0007d800       ?getClassRep@PlayerData@@UBEPAVAbstractClassRep@@XZ 0047e800 f   player.obj
 0001:0007d810       ?getStaticClassRep@PlayerData@@SAPAVAbstractClassRep@@XZ 0047e810 f   player.obj
 0001:0007d820       ?getParentStaticClassRep@PlayerData@@SAPAVAbstractClassRep@@XZ 0047e820 f   player.obj
 0001:0007d830       ?isTableSequence@PlayerData@@QAE_NH@Z 0047e830 f   player.obj
 0001:0007d860       ?isJumpAction@PlayerData@@QAE_NI@Z 0047e860 f   player.obj
 0001:0007d880       ?initPersistFields@PlayerData@@SAXXZ 0047e880 f   player.obj
 0001:0007e010       ??APoint3F@@QAEAAMH@Z      0047f010 f i player.obj
 0001:0007e020       ?getClassRep@Player@@UBEPAVAbstractClassRep@@XZ 0047f020 f   player.obj
 0001:0007e030       ?getStaticClassRep@Player@@SAPAVAbstractClassRep@@XZ 0047f030 f   player.obj
 0001:0007e040       ?getParentStaticClassRep@Player@@SAPAVAbstractClassRep@@XZ 0047f040 f   player.obj
 0001:0007e050       ?getAIMove@Player@@UAE_NPAUMove@@@Z 0047f050 f   player.obj
 0001:0007e060       ?setState@Player@@IAEXW4ActionState@1@I@Z 0047f060 f   player.obj
 0001:0007e0e0       ?updateDamageState@Player@@MAEXXZ 0047f0e0 f   player.obj
 0001:0007e120       ?equal@Point3F@@QAE_NAAV1@@Z 0047f120 f i player.obj
 0001:0007e170       ?inDeathAnim@Player@@IAE_NXZ 0047f170 f   player.obj
 0001:0007e1f0       ?inSittingAnim@Player@@IAE_NXZ 0047f1f0 f   player.obj
 0001:0007e250       ?setArmThread@Player@@QAE_NPBD@Z 0047f250 f   player.obj
 0001:0007e2c0       ?setArmThread@Player@@MAE_NI@Z 0047f2c0 f   player.obj
 0001:0007e340       ?setActionThread@Player@@QAE_NPBD_N11@Z 0047f340 f   player.obj
 0001:0007e3d0       ?onImageRecoil@Player@@MAEXIW4RecoilState@StateData@ShapeBaseImageData@@@Z 0047f3d0 f   player.obj
 0001:0007e410       ?updateAnimationTree@Player@@IAEX_N@Z 0047f410 f   player.obj
 0001:0007e460       ?setXY@PlaneF@@QAEXABVPoint3F@@M@Z 0047f460 f i player.obj
 0001:0007e490       ?setYZ@PlaneF@@QAEXABVPoint3F@@M@Z 0047f490 f i player.obj
 0001:0007e4b0       ?setXZ@PlaneF@@QAEXABVPoint3F@@M@Z 0047f4b0 f i player.obj
 0001:0007e4e0       ?isDisplacable@Player@@UBE_NXZ 0047f4e0 f   player.obj
 0001:0007e4f0       ?getMomentum@Player@@UBE?AVPoint3F@@XZ 0047f4f0 f   player.obj
 0001:0007e530       ?setMomentum@Player@@UAEXABVPoint3F@@@Z 0047f530 f   player.obj
 0001:0007e580       ?getMass@Player@@UBEMXZ    0047f580 f   player.obj
 0001:0007e590       ?getVelocity@Player@@UBE?AVPoint3F@@XZ 0047f590 f   player.obj
 0001:0007e5c0       ?setVelocity@Player@@UAEXABVPoint3F@@@Z 0047f5c0 f   player.obj
 0001:0007e5f0       ?applyImpulse@Player@@UAEXABVPoint3F@@0@Z 0047f5f0 f   player.obj
 0001:0007e710       ?consoleInit@Player@@SAXXZ 0047f710 f   player.obj
 0001:0007e770       ?getRenderTransform@SceneObject@@QBEABVMatrixF@@XZ 0047f770 f i player.obj
 0001:0007e780       ?playFootstepSound@Player@@IAEX_NH@Z 0047f780 f   player.obj
 0001:0007e910       ?updateWaterSounds@Player@@IAEXM@Z 0047f910 f   player.obj
 0001:0007ea60       ??B?$SimObjectPtr@VNetObject@@@@QBEPAVNetObject@@XZ 0047fa60 f i player.obj
 0001:0007ea70       ?getEnvironmentMap@SceneState@@QAE?AVTextureHandle@@XZ 0047fa70 f i player.obj
 0001:0007eaa0       ?getMountNode@ShapeBase@@QAEIXZ 0047faa0 f i player.obj
 0001:0007eab0       ?isMounted@ShapeBase@@QAE_NXZ 0047fab0 f i player.obj
 0001:0007eac0       ?didRenderLastRender@ShapeBase@@QAE_NXZ 0047fac0 f i player.obj
 0001:0007eae0       ??0Range@Player@@QAE@MM@Z  0047fae0 f i player.obj
 0001:0007eb00       ?clear@ContactInfo@Player@@QAEXXZ 0047fb00 f i player.obj
 0001:0007eb20       ??0ContactInfo@Player@@QAE@XZ 0047fb20 f i player.obj
 0001:0007eb40       ?getPosAdd@Death@Player@@QAE?AVPoint3F@@XZ 0047fb40 f i player.obj
 0001:0007eb70       ?haveVelocity@Death@Player@@QAE_NXZ 0047fb70 f i player.obj
 0001:0007eba0       ?initFall@Death@Player@@QAEXXZ 0047fba0 f i player.obj
 0001:0007ebc0       ?findSequence@TSShape@@QBEHPBD@Z 0047fbc0 f i player.obj
 0001:0007ebe0       ?begin@?$Vector@I@@QAEPAIXZ 0047fbe0 f i player.obj
 0001:0007ebf0       ?end@?$Vector@I@@QAEPAIXZ  0047fbf0 f i player.obj
 0001:0007ec00       ?size@?$Vector@USequence@TSShape@@@@QBEHXZ 0047fc00 f i player.obj
 0001:0007ec10       ??A?$Vector@USequence@TSShape@@@@QAEAAUSequence@TSShape@@I@Z 0047fc10 f i player.obj
 0001:0007ec20       ?setAlphaAlways@TSShapeInstance@@QAEXM@Z 0047fc20 f i player.obj
 0001:0007ec60       ?setOverrideTexture@TSShapeInstance@@QAEXVTextureHandle@@@Z 0047fc60 f i player.obj
 0001:0007ecd0       ?clearOverrideTexture@TSShapeInstance@@QAEXXZ 0047fcd0 f i player.obj
 0001:0007ed50       ?setEnvironmentMap@TSShapeInstance@@QAEXABVTextureHandle@@@Z 0047fd50 f i player.obj
 0001:0007ed80       ?setEnvironmentMapOn@TSShapeInstance@@QAEX_NM@Z 0047fd80 f i player.obj
 0001:0007eda0       ??$findObject@VAudioProfile@@@Sim@@YA_NIAAPAVAudioProfile@@@Z 0047fda0 f i player.obj
 0001:0007ede0       ??$findObject@VDecalData@@@Sim@@YA_NIAAPAVDecalData@@@Z 0047fde0 f i player.obj
 0001:0007ee20       ?getGroundTransform@TSShapeInstance@@QAEAAVMatrixF@@XZ 0047fe20 f i player.obj
 0001:0007ee30       ?getCurrentDecalManager@SceneGraph@@QAEPAVDecalManager@@XZ 0047fe30 f i player.obj
 0001:0007ee40       ?getLiquidType@WaterBlock@@QBE?AW4EWaterType@1@XZ 0047fe40 f i player.obj
 0001:0007ee50       ?isFirstPerson@GameConnection@@QAE_NXZ 0047fe50 f i player.obj
 0001:0007ee70       ?getVelocityMod@PhysicalZone@@QBEMXZ 0047fe70 f i player.obj
 0001:0007ee80       ?isActive@PhysicalZone@@QBE_NXZ 0047fe80 f i player.obj
 0001:0007ee90       ?getCollisionObject@Item@@QAEPAVShapeBase@@XZ 0047fe90 f i player.obj
 0001:0007eea0       ?setDuration@CameraFX@@QAEXM@Z 0047fea0 f i player.obj
 0001:0007eeb0       ?setFalloff@CameraShake@@QAEXM@Z 0047feb0 f i player.obj
 0001:0007eec0       ?setFrequency@CameraShake@@QAEXAAVPoint3F@@@Z 0047fec0 f i player.obj
 0001:0007eee0       ?setAmplitude@CameraShake@@QAEXAAVPoint3F@@@Z 0047fee0 f i player.obj
 0001:0007ef00       ?getTrans@CameraFXManager@@QAEAAVMatrixF@@XZ 0047ff00 f i player.obj
 0001:0007ef10       ??0ActionAnimation@PlayerData@@QAE@XZ 0047ff10 f i player.obj
 0001:0007ef20       ?getGroundInfo@PlayerData@@QAEXPAVTSShapeInstance@@PAVTSThread@@PAUActionAnimation@1@@Z 0047ff20 f   player.obj
 0001:0007f080       ?packData@PlayerData@@UAEXPAVBitStream@@@Z 00480080 f   player.obj
 0001:0007f780       ?unpackData@PlayerData@@UAEXPAVBitStream@@@Z 00480780 f   player.obj
 0001:0007ff90       ??1?$ConcreteClassRep@VPlayer@@@@UAE@XZ 00480f90 f i player.obj
 0001:0007ffb0       ??0StateDelta@Player@@QAE@XZ 00480fb0 f i player.obj
 0001:0007ffc0       ??1Player@@UAE@XZ          00480fc0 f   player.obj
 0001:00080030       ?onAdd@Player@@UAE_NXZ     00481030 f   player.obj
 0001:00080290       ?onRemove@Player@@UAEXXZ   00481290 f   player.obj
 0001:00080310       ?onScaleChanged@Player@@UAEXXZ 00481310 f   player.obj
 0001:000803a0       ?onNewDataBlock@Player@@UAE_NPAUGameBaseData@@@Z 004813a0 f   player.obj
 0001:00080700       ?setControllingClient@Player@@MAEXPAVGameConnection@@@Z 00481700 f   player.obj
 0001:00080730       ?setControlObject@Player@@UAEXPAVShapeBase@@@Z 00481730 f   player.obj
 0001:000807f0       ?onCameraScopeQuery@Player@@UAEXPAVNetConnection@@PAUCameraScopeQuery@@@Z 004817f0 f   player.obj
 0001:00080850       ?getControlObject@Player@@UAEPAVShapeBase@@XZ 00481850 f   player.obj
 0001:00080860       ?updateState@Player@@IAEXXZ 00481860 f   player.obj
 0001:00080980       ?getStateName@Player@@QAEPBDXZ 00481980 f   player.obj
 0001:000809c0       ?getDamageLocation@Player@@QAEXABVPoint3F@@AAPBD1@Z 004819c0 f   player.obj
 0001:00080c80       ?canJump@Player@@QAE_NXZ   00481c80 f   player.obj
 0001:00080ce0       ?updateDamageLevel@Player@@MAEXXZ 00481ce0 f   player.obj
 0001:00080d50       ?updateLookAnimation@Player@@IAEXXZ 00481d50 f   player.obj
 0001:00080ef0       ?setActionThread@Player@@MAEXI_N0000@Z 00481ef0 f   player.obj
 0001:00081060       ?updateActionThread@Player@@MAEXXZ 00482060 f   player.obj
 0001:00081660       ?pickActionAnimation@Player@@MAEXXZ 00482660 f   player.obj
 0001:00081860       ?updateAnimation@Player@@IAEXM@Z 00482860 f   player.obj
 0001:000818f0       ?checkMissionArea@Player@@IAEXXZ 004828f0 f   player.obj
 0001:00081a00       ?setPosition@Player@@IAEXABVPoint3F@@0@Z 00482a00 f   player.obj
 0001:00081af0       ?setTransform@Player@@UAEXABVMatrixF@@@Z 00482af0 f   player.obj
 0001:00081b60       ?getMuzzleTransform@Player@@UAEXIPAVMatrixF@@@Z 00482b60 f   player.obj
 0001:00081ce0       ?getRenderMuzzleTransform@Player@@UAEXIPAVMatrixF@@@Z 00482ce0 f   player.obj
 0001:00081e60       ?getMuzzlePointAI@Player@@QAEXIPAVPoint3F@@@Z 00482e60 f   player.obj
 0001:00081f00       ?getCameraParameters@Player@@UAEXPAM0PAVPoint3F@@PAVMatrixF@@@Z 00482f00 f   player.obj
 0001:00081fa0       ?castRay@Player@@UAE_NABVPoint3F@@0PAURayInfo@@@Z 00482fa0 f   player.obj
 0001:000821c0       ?buildPolyList@Player@@UAE_NPAVAbstractPolyList@@ABVBox3F@@ABVSphereF@@@Z 004831c0 f   player.obj
 0001:00082240       ?updateWorkingCollisionSet@Player@@QAEXXZ 00483240 f   player.obj
 0001:00082410       ?writePacketData@Player@@UAEXPAVGameConnection@@PAVBitStream@@@Z 00483410 f   player.obj
 0001:00082620       ?readPacketData@Player@@UAEXPAVGameConnection@@PAVBitStream@@@Z 00483620 f   player.obj
 0001:00082940       ?packUpdate@Player@@UAEIPAVNetConnection@@IPAVBitStream@@@Z 00483940 f   player.obj
 0001:00082cc0       ?unpackUpdate@Player@@UAEXPAVNetConnection@@PAVBitStream@@@Z 00483cc0 f   player.obj
 0001:000836c0       ?calcClassRenderData@Player@@MAEXXZ 004846c0 f   player.obj
 0001:000837a0       ?renderMountedImage@Player@@MAEXPAVSceneState@@PAVShapeImageRenderImage@@@Z 004847a0 f   player.obj
 0001:00083bb0       ?renderImage@Player@@MAEXPAVSceneState@@PAVSceneRenderImage@@@Z 00484bb0 f   player.obj
 0001:00084380       ?playImpactSound@Player@@IAEXXZ 00485380 f   player.obj
 0001:00084550       ?collidingWithWater@Player@@IAE_NAAVPoint3F@@@Z 00485550 f   player.obj
 0001:00084610       ?createSplash@Player@@IAEXAAVPoint3F@@M@Z 00485610 f   player.obj
 0001:00084750       ?isControlObject@Player@@QAE_NXZ 00485750 f   player.obj
 0001:000847a0       ??A?$Vector@USequence@TSShape@@@@QAEAAUSequence@TSShape@@H@Z 004857a0 f i player.obj
 0001:000847b0       ?clear@Death@Player@@QAEXXZ 004857b0 f i player.obj
 0001:000847e0       ??0Death@Player@@QAE@XZ    004857e0 f i player.obj
 0001:00084810       ??1?$ConcreteClassRep@UPlayerData@@@@UAE@XZ 00485810 f i player.obj
 0001:00084830       ??0PlayerData@@QAE@XZ      00485830 f   player.obj
 0001:00084b50       ??_EPlayerData@@UAEPAXI@Z  00485b50 f i player.obj
 0001:00084b50       ??_GPlayerData@@UAEPAXI@Z  00485b50 f i player.obj
 0001:00084b70       ??1PlayerData@@UAE@XZ      00485b70 f i player.obj
 0001:00084b80       ?preload@PlayerData@@UAE_N_NQAD@Z 00485b80 f   player.obj
 0001:00085160       ??0Player@@QAE@XZ          00486160 f   player.obj
 0001:000854d0       ??_EPlayer@@UAEPAXI@Z      004864d0 f i player.obj
 0001:000854d0       ??_GPlayer@@UAEPAXI@Z      004864d0 f i player.obj
 0001:000854f0       ?checkDismountPosition@Player@@QAE_NABVMatrixF@@0@Z 004864f0 f   player.obj
 0001:00085890       ?deathDelta@Player@@IAEMAAVPoint3F@@@Z 00486890 f   player.obj
 0001:00085900       ?updateDeathOffsets@Player@@IAEXXZ 00486900 f   player.obj
 0001:00085980       ?fallToGround@Death@Player@@QAEPAVMatrixF@@MABVPoint3F@@MM@Z 00486980 f   player.obj
 0001:000860c0       ?onUnmount@Player@@MAEXPAVShapeBase@@H@Z 004870c0 f   player.obj
 0001:00086150       ?step@Player@@IAE_NPAVPoint3F@@PAMM@Z 00487150 f   player.obj
 0001:000865c0       ?findContact@Player@@IAEXPA_N0PAVPoint3F@@@Z 004875c0 f   player.obj
 0001:00086c10       ?setRenderPosition@Player@@IAEXABVPoint3F@@0M@Z 00487c10 f   player.obj
 0001:00086d90       ?getEyeTransform@Player@@UAEXPAVMatrixF@@@Z 00487d90 f   player.obj
 0001:00086e80       ?getRenderEyeTransform@Player@@UAEXPAVMatrixF@@@Z 00487e80 f   player.obj
 0001:00086f60       ?buildConvex@Player@@UAEXABVBox3F@@PAVConvex@@@Z 00487f60 f   player.obj
 0001:00087340       ?updateFroth@Player@@IAEXM@Z 00488340 f   player.obj
 0001:000874c0       ?interpolateTick@Player@@UAEXM@Z 004884c0 f   player.obj
 0001:000876e0       ?updateMove@Player@@IAEXPBUMove@@@Z 004886e0 f   player.obj
 0001:00088560       ?pointInWater@Player@@IAE_NAAVPoint3F@@@Z 00489560 f   player.obj
 0001:00088670       ??0?$ConcreteClassRep@UPlayerData@@@@QAE@PBDHHH@Z 00489670 f i player.obj
 0001:000886f0       ?init@?$ConcreteClassRep@UPlayerData@@@@UBEXXZ 004896f0 f i player.obj
 0001:00088720       ?create@?$ConcreteClassRep@UPlayerData@@@@UBEPAVConsoleObject@@XZ 00489720 f i player.obj
 0001:00088750       ??_E?$ConcreteClassRep@UPlayerData@@@@UAEPAXI@Z 00489750 f i player.obj
 0001:00088750       ??_G?$ConcreteClassRep@UPlayerData@@@@UAEPAXI@Z 00489750 f i player.obj
 0001:00088770       ??0?$ConcreteClassRep@VPlayer@@@@QAE@PBDHHH@Z 00489770 f i player.obj
 0001:000887f0       ?init@?$ConcreteClassRep@VPlayer@@@@UBEXXZ 004897f0 f i player.obj
 0001:00088820       ??_G?$ConcreteClassRep@VPlayer@@@@UAEPAXI@Z 00489820 f i player.obj
 0001:00088820       ??_E?$ConcreteClassRep@VPlayer@@@@UAEPAXI@Z 00489820 f i player.obj
 0001:00088840       ?create@?$ConcreteClassRep@VPlayer@@@@UBEPAVConsoleObject@@XZ 00489840 f i player.obj
 0001:00088870       ?updatePos@Player@@IAE_NM@Z 00489870 f   player.obj
 0001:00089c40       ?displaceObject@Player@@UAE_NABVPoint3F@@@Z 0048ac40 f   player.obj
 0001:00089d30       ?updateSplash@Player@@IAEXXZ 0048ad30 f   player.obj
 0001:00089e70       ?processTick@Player@@UAEXPBUMove@@@Z 0048ae70 f   player.obj
 0001:0008a230       ?advanceTime@Player@@UAEXM@Z 0048b230 f   player.obj
 0001:0008a310       ?getClassRep@ProjectileData@@UBEPAVAbstractClassRep@@XZ 0048b310 f   projectile.obj
 0001:0008a320       ?getStaticClassRep@ProjectileData@@SAPAVAbstractClassRep@@XZ 0048b320 f   projectile.obj
 0001:0008a330       ?getParentStaticClassRep@ProjectileData@@SAPAVAbstractClassRep@@XZ 0048b330 f   projectile.obj
 0001:0008a340       ?getClassRep@Projectile@@UBEPAVAbstractClassRep@@XZ 0048b340 f   projectile.obj
 0001:0008a350       ?getStaticClassRep@Projectile@@SAPAVAbstractClassRep@@XZ 0048b350 f   projectile.obj
 0001:0008a360       ?getParentStaticClassRep@Projectile@@SAPAVAbstractClassRep@@XZ 0048b360 f   projectile.obj
 0001:0008a370       ?initPersistFields@Projectile@@SAXXZ 0048b370 f   projectile.obj
 0001:0008a410       ?onRemove@Projectile@@MAEXXZ 0048b410 f   projectile.obj
 0001:0008a480       ?onNewDataBlock@Projectile@@MAE_NPAUGameBaseData@@@Z 0048b480 f   projectile.obj
 0001:0008a4d0       ?advanceTime@Projectile@@MAEXM@Z 0048b4d0 f   projectile.obj
 0001:0008a660       ??$findObject@VProjectileData@@@Sim@@YA_NPBDAAPAVProjectileData@@@Z 0048b660 f i projectile.obj
 0001:0008a6a0       ??$findObject@VSplashData@@@Sim@@YA_NIAAPAVSplashData@@@Z 0048b6a0 f i projectile.obj
 0001:0008a6e0       ??0TypeValidator@@QAE@XZ   0048b6e0 f i projectile.obj
 0001:0008a6f0       ??0IRangeValidatorScaled@@QAE@HHH@Z 0048b6f0 f i projectile.obj
 0001:0008a710       ?setCollideType@Explosion@@QAEXI@Z 0048b710 f i projectile.obj
 0001:0008a720       ??1?$ConcreteClassRep@VProjectileData@@@@UAE@XZ 0048b720 f i projectile.obj
 0001:0008a740       ??1?$ConcreteClassRep@VProjectile@@@@UAE@XZ 0048b740 f i projectile.obj
 0001:0008a760       ?getDataTypeDataBlockPtrProjectileData@@YAPBDPAXPAUEnumTable@@VBitSet32@@@Z 0048b760 f   projectile.obj
 0001:0008a780       ?setDataTypeDataBlockPtrProjectileData@@YAXPAXHPAPBDPAUEnumTable@@VBitSet32@@@Z 0048b780 f   projectile.obj
 0001:0008a7e0       ?onAdd@ProjectileData@@MAE_NXZ 0048b7e0 f   projectile.obj
 0001:0008a980       ?packData@ProjectileData@@UAEXPAVBitStream@@@Z 0048b980 f   projectile.obj
 0001:0008ad40       ?unpackData@ProjectileData@@UAEXPAVBitStream@@@Z 0048bd40 f   projectile.obj
 0001:0008b2a0       ??1Projectile@@UAE@XZ      0048c2a0 f   projectile.obj
 0001:0008b330       ?calculateImpact@Projectile@@UAE_NMAAVPoint3F@@AAM@Z 0048c330 f   projectile.obj
 0001:0008b370       ?getUpdatePriority@Projectile@@UAEMPAUCameraScopeQuery@@IH@Z 0048c370 f   projectile.obj
 0001:0008b3b0       ?onAdd@Projectile@@MAE_NXZ 0048c3b0 f   projectile.obj
 0001:0008b750       ??0ObjectDeleteEvent@@QAE@XZ 0048c750 f i projectile.obj
 0001:0008b760       ?process@ObjectDeleteEvent@@UAEXPAVSimObject@@@Z 0048c760 f i projectile.obj
 0001:0008b770       ?updateSound@Projectile@@IAEXXZ 0048c770 f   projectile.obj
 0001:0008b810       ?getVelocity@Projectile@@MBE?AVPoint3F@@XZ 0048c810 f   projectile.obj
 0001:0008b840       ?onCollision@Projectile@@MAEXABVPoint3F@@0PAVSceneObject@@@Z 0048c840 f   projectile.obj
 0001:0008b930       ?packUpdate@Projectile@@MAEIPAVNetConnection@@IPAVBitStream@@@Z 0048c930 f   projectile.obj
 0001:0008bb90       ?unpackUpdate@Projectile@@MAEXPAVNetConnection@@PAVBitStream@@@Z 0048cb90 f   projectile.obj
 0001:0008bef0       ??0FRangeValidator@@QAE@MM@Z 0048cef0 f i projectile.obj
 0001:0008bf10       ??0ProjectileData@@QAE@XZ  0048cf10 f   projectile.obj
 0001:0008c050       ?initPersistFields@ProjectileData@@SAXXZ 0048d050 f   projectile.obj
 0001:0008c3e0       ?preload@ProjectileData@@UAE_N_NQAD@Z 0048d3e0 f   projectile.obj
 0001:0008c5d0       ??0Projectile@@QAE@XZ      0048d5d0 f   projectile.obj
 0001:0008c670       ??_EProjectile@@UAEPAXI@Z  0048d670 f i projectile.obj
 0001:0008c670       ??_GProjectile@@UAEPAXI@Z  0048d670 f i projectile.obj
 0001:0008c690       ??_EObjectDeleteEvent@@UAEPAXI@Z 0048d690 f i projectile.obj
 0001:0008c690       ??_GObjectDeleteEvent@@UAEPAXI@Z 0048d690 f i projectile.obj
 0001:0008c6b0       ??1ObjectDeleteEvent@@UAE@XZ 0048d6b0 f i projectile.obj
 0001:0008c6c0       ?interpolateTick@Projectile@@MAEXM@Z 0048d6c0 f   projectile.obj
 0001:0008c8e0       ?prepModelView@Projectile@@IAEXPAVSceneState@@@Z 0048d8e0 f   projectile.obj
 0001:0008c9b0       ?prepRenderImage@Projectile@@MAE_NPAVSceneState@@II_N@Z 0048d9b0 f   projectile.obj
 0001:0008ca60       ?renderObject@Projectile@@MAEXPAVSceneState@@PAVSceneRenderImage@@@Z 0048da60 f   projectile.obj
 0001:0008cec0       ??_GProjectileData@@UAEPAXI@Z 0048dec0 f i projectile.obj
 0001:0008cec0       ??_EProjectileData@@UAEPAXI@Z 0048dec0 f i projectile.obj
 0001:0008cee0       ??1ProjectileData@@UAE@XZ  0048dee0 f i projectile.obj
 0001:0008cf50       ?pointInWater@Projectile@@IAE_NABVPoint3F@@@Z 0048df50 f   projectile.obj
 0001:0008d040       ??0?$ConcreteClassRep@VProjectileData@@@@QAE@PBDHHH@Z 0048e040 f i projectile.obj
 0001:0008d0c0       ??_E?$ConcreteClassRep@VProjectileData@@@@UAEPAXI@Z 0048e0c0 f i projectile.obj
 0001:0008d0c0       ??_G?$ConcreteClassRep@VProjectileData@@@@UAEPAXI@Z 0048e0c0 f i projectile.obj
 0001:0008d0e0       ?init@?$ConcreteClassRep@VProjectileData@@@@UBEXXZ 0048e0e0 f i projectile.obj
 0001:0008d110       ?create@?$ConcreteClassRep@VProjectileData@@@@UBEPAVConsoleObject@@XZ 0048e110 f i projectile.obj
 0001:0008d140       ??0?$ConcreteClassRep@VProjectile@@@@QAE@PBDHHH@Z 0048e140 f i projectile.obj
 0001:0008d1c0       ?init@?$ConcreteClassRep@VProjectile@@@@UBEXXZ 0048e1c0 f i projectile.obj
 0001:0008d1f0       ??_G?$ConcreteClassRep@VProjectile@@@@UAEPAXI@Z 0048e1f0 f i projectile.obj
 0001:0008d1f0       ??_E?$ConcreteClassRep@VProjectile@@@@UAEPAXI@Z 0048e1f0 f i projectile.obj
 0001:0008d210       ?create@?$ConcreteClassRep@VProjectile@@@@UBEPAVConsoleObject@@XZ 0048e210 f i projectile.obj
 0001:0008d240       ?registerLights@Projectile@@MAEXPAVLightManager@@_N@Z 0048e240 f   projectile.obj
 0001:0008d310       ?emitParticles@Projectile@@IAEXABVPoint3F@@00I@Z 0048e310 f   projectile.obj
 0001:0008d6e0       ?explode@Projectile@@MAEXABVPoint3F@@0I@Z 0048e6e0 f   projectile.obj
 0001:0008daa0       ?processTick@Projectile@@MAEXPBUMove@@@Z 0048eaa0 f   projectile.obj
 0001:0008e0f0       ?invertObjectInertia@Rigid@@QAEXXZ 0048f0f0 f   rigid.obj
 0001:0008e110       ?checkRestCondition@Rigid@@QAE_NXZ 0048f110 f   rigid.obj
 0001:0008e120       ?mSinCos@@YAXMAAM0@Z       0048f120 f i rigid.obj
 0001:0008e140       ?identity@QuatF@@QAEAAV1@XZ 0048f140 f i rigid.obj
 0001:0008e160       ??RMatrixF@@QAEAAMHH@Z     0048f160 f i rigid.obj
 0001:0008e180       ?setCrossProduct@MatrixF@@QAEAAV1@ABVPoint3F@@@Z 0048f180 f i rigid.obj
 0001:0008e1d0       ?clearForces@Rigid@@QAEXXZ 0048f1d0 f   rigid.obj
 0001:0008e1f0       ?updateVelocity@Rigid@@QAEXXZ 0048f1f0 f   rigid.obj
 0001:0008e280       ?updateCenterOfMass@Rigid@@QAEXXZ 0048f280 f   rigid.obj
 0001:0008e2c0       ?applyImpulse@Rigid@@QAEXABVPoint3F@@0@Z 0048f2c0 f   rigid.obj
 0001:0008e3c0       ?getZeroImpulse@Rigid@@QAEMABVPoint3F@@0@Z 0048f3c0 f   rigid.obj
 0001:0008e4a0       ?getKineticEnergy@Rigid@@QAEMXZ 0048f4a0 f   rigid.obj
 0001:0008e540       ?getOriginVector@Rigid@@QAEXABVPoint3F@@PAV2@@Z 0048f540 f   rigid.obj
 0001:0008e590       ?setCenterOfMass@Rigid@@QAEXABVPoint3F@@@Z 0048f590 f   rigid.obj
 0001:0008e5e0       ?getVelocity@Rigid@@QAEXABVPoint3F@@PAV2@@Z 0048f5e0 f   rigid.obj
 0001:0008e640       ?getTransform@Rigid@@QAEXPAVMatrixF@@@Z 0048f640 f   rigid.obj
 0001:0008e670       ?setTransform@Rigid@@QAEXABVMatrixF@@@Z 0048f670 f   rigid.obj
 0001:0008e6d0       ?setAtRest@Rigid@@QAEXXZ   0048f6d0 f   rigid.obj
 0001:0008e740       ??0Rigid@@QAE@XZ           0048f740 f   rigid.obj
 0001:0008e8f0       ?updateInertialTensor@Rigid@@QAEXXZ 0048f8f0 f   rigid.obj
 0001:0008e950       ?resolveCollision@Rigid@@QAE_NABVPoint3F@@V2@PAV1@@Z 0048f950 f   rigid.obj
 0001:0008ed10       ?resolveCollision@Rigid@@QAE_NABVPoint3F@@V2@@Z 0048fd10 f   rigid.obj
 0001:0008ef30       ?translateCenterOfMass@Rigid@@AAEXABVPoint3F@@0@Z 0048ff30 f   rigid.obj
 0001:0008f0d0       ?setObjectInertia@Rigid@@QAEXABVPoint3F@@@Z 004900d0 f   rigid.obj
 0001:0008f170       ?setObjectInertia@Rigid@@QAEXXZ 00490170 f   rigid.obj
 0001:0008f1f0       ?integrate@Rigid@@QAEXM@Z  004901f0 f   rigid.obj
 0001:0008f450       ?initPersistFields@ScopeAlwaysShape@@SAXXZ 00490450 f   scopeAlwaysShape.obj
 0001:0008f460       ?getClassRep@ScopeAlwaysShape@@UBEPAVAbstractClassRep@@XZ 00490460 f   scopeAlwaysShape.obj
 0001:0008f470       ?getStaticClassRep@ScopeAlwaysShape@@SAPAVAbstractClassRep@@XZ 00490470 f   scopeAlwaysShape.obj
 0001:0008f480       ?getParentStaticClassRep@ScopeAlwaysShape@@SAPAVAbstractClassRep@@XZ 00490480 f   scopeAlwaysShape.obj
 0001:0008f490       ??0ScopeAlwaysShape@@QAE@XZ 00490490 f   scopeAlwaysShape.obj
 0001:0008f4b0       ??_EScopeAlwaysShape@@UAEPAXI@Z 004904b0 f i scopeAlwaysShape.obj
 0001:0008f4b0       ??_GScopeAlwaysShape@@UAEPAXI@Z 004904b0 f i scopeAlwaysShape.obj
 0001:0008f4d0       ??1ScopeAlwaysShape@@UAE@XZ 004904d0 f i scopeAlwaysShape.obj
 0001:0008f4e0       ??1?$ConcreteClassRep@VScopeAlwaysShape@@@@UAE@XZ 004904e0 f i scopeAlwaysShape.obj
 0001:0008f500       ??0?$ConcreteClassRep@VScopeAlwaysShape@@@@QAE@PBDHHH@Z 00490500 f i scopeAlwaysShape.obj
 0001:0008f580       ?init@?$ConcreteClassRep@VScopeAlwaysShape@@@@UBEXXZ 00490580 f i scopeAlwaysShape.obj
 0001:0008f5b0       ?create@?$ConcreteClassRep@VScopeAlwaysShape@@@@UBEPAVConsoleObject@@XZ 004905b0 f i scopeAlwaysShape.obj
 0001:0008f5e0       ??_E?$ConcreteClassRep@VScopeAlwaysShape@@@@UAEPAXI@Z 004905e0 f i scopeAlwaysShape.obj
 0001:0008f5e0       ??_G?$ConcreteClassRep@VScopeAlwaysShape@@@@UAEPAXI@Z 004905e0 f i scopeAlwaysShape.obj
 0001:0008f600       ?setGlobalShadowDetailLevel@Shadow@@SAXM@Z 00490600 f   shadow.obj
 0001:0008f6f0       ?setDetailTables@Shadow@@QAEXPBUDistanceDetail@1@HPBUPixelSizeDetail@1@H@Z 004906f0 f   shadow.obj
 0001:0008f720       ?setDefaultDetailTables@Shadow@@QAEXXZ 00490720 f   shadow.obj
 0001:0008f750       ?findDistanceDetail@Shadow@@AAEXMPAUDistanceDetail@1@@Z 00490750 f   shadow.obj
 0001:0008f820       ?findPixelSizeDetail@Shadow@@AAEXMPAPBUPixelSizeDetail@1@@Z 00490820 f   shadow.obj
 0001:0008f870       ?setRadius@Shadow@@QAEXM@Z 00490870 f   shadow.obj
 0001:0008f880       ?empty@?$Vector@UPoly@ClippedPolyList@@@@QBE_NXZ 00490880 f i shadow.obj
 0001:0008f890       ??1?$Vector@VPoint2F@@@@QAE@XZ 00490890 f i shadow.obj
 0001:0008f8a0       ??A?$Vector@VPoint2F@@@@QAEAAVPoint2F@@I@Z 004908a0 f i shadow.obj
 0001:0008f8b0       ?address@?$Vector@VPoint2F@@@@QBEPAVPoint2F@@XZ 004908b0 f i shadow.obj
 0001:0008f8c0       ??1?$Vector@VPoint4F@@@@QAE@XZ 004908c0 f i shadow.obj
 0001:0008f8d0       ??A?$Vector@VPoint4F@@@@QAEAAVPoint4F@@I@Z 004908d0 f i shadow.obj
 0001:0008f8e0       ?address@?$Vector@VPoint4F@@@@QBEPAVPoint4F@@XZ 004908e0 f i shadow.obj
 0001:0008f8f0       ?resize@?$Vector@VPoint2F@@@@IAE_NI@Z 004908f0 f i shadow.obj
 0001:0008f910       ?reserve@?$Vector@VPoint2F@@@@QAEXI@Z 00490910 f i shadow.obj
 0001:0008f940       ?resize@?$Vector@VPoint4F@@@@IAE_NI@Z 00490940 f i shadow.obj
 0001:0008f960       ?reserve@?$Vector@VPoint4F@@@@QAEXI@Z 00490960 f i shadow.obj
 0001:0008f990       ?set@Point4F@@QAEXMMMM@Z   00490990 f i shadow.obj
 0001:0008f9b0       ?set@TextureHandle@@QAE_NPBDPBVGBitmap@@_N@Z 004909b0 f i shadow.obj
 0001:0008fa00       ?getOverrideFade@TSMesh@@SAMXZ 00490a00 f i shadow.obj
 0001:0008fa10       ?generateGenericShadowBitmap@Shadow@@SAPAVGBitmap@@H@Z 00490a10 f   shadow.obj
 0001:0008fb20       ?selectShapeDetail@Shadow@@QAEHPAVTSShapeInstance@@MMH@Z 00490b20 f   shadow.obj
 0001:0008fbb0       ?setLightMatrices@Shadow@@AAEXABVPoint3F@@0@Z 00490bb0 f   shadow.obj
 0001:0008fd50       ?setRadius@Shadow@@QAEXPAVTSShapeInstance@@ABVPoint3F@@@Z 00490d50 f   shadow.obj
 0001:0008fdc0       ?endRenderToBitmap@Shadow@@QAEXXZ 00490dc0 f   shadow.obj
 0001:0008fe10       ?collisionCallback@Shadow@@CAXPAVSceneObject@@PAX@Z 00490e10 f   shadow.obj
 0001:0008fe50       ??A?$Vector@VPoint2F@@@@QAEAAVPoint2F@@H@Z 00490e50 f i shadow.obj
 0001:0008fe60       ??A?$Vector@VPoint4F@@@@QAEAAVPoint4F@@H@Z 00490e60 f i shadow.obj
 0001:0008fe70       ??0?$Vector@VPoint2F@@@@QAE@I@Z 00490e70 f i shadow.obj
 0001:0008fec0       ?setSize@?$Vector@VPoint2F@@@@QAEII@Z 00490ec0 f i shadow.obj
 0001:0008fef0       ??0?$Vector@VPoint4F@@@@QAE@I@Z 00490ef0 f i shadow.obj
 0001:0008ff40       ?setSize@?$Vector@VPoint4F@@@@QAEII@Z 00490f40 f i shadow.obj
 0001:0008ff70       ??1Shadow@@QAE@XZ          00490f70 f   shadow.obj
 0001:00090030       ?beginRenderToBitmap@Shadow@@QAEXXZ 00491030 f   shadow.obj
 0001:00090090       ?renderToBitmap@Shadow@@QAEXPAVTSShapeInstance@@ABVMatrixF@@ABVPoint3F@@V4@@Z 00491090 f   shadow.obj
 0001:00090200       ?buildPartition@Shadow@@AAEXABVPoint3F@@0MM@Z 00491200 f   shadow.obj
 0001:000905e0       ?updatePartition@Shadow@@AAEXM@Z 004915e0 f   shadow.obj
 0001:00090640       ?render@Shadow@@QAEXXZ     00491640 f   shadow.obj
 0001:00090880       ??0Shadow@@QAE@XZ          00491880 f   shadow.obj
 0001:000909a0       ?prepare@Shadow@@QAE_NABVPoint3F@@V2@M0MMPAVTSShapeInstance@@@Z 004919a0 f   shadow.obj
 0001:00090ce0       ?getClassRep@ShapeBaseData@@UBEPAVAbstractClassRep@@XZ 00491ce0 f   shapeBase.obj
 0001:00090cf0       ?getStaticClassRep@ShapeBaseData@@SAPAVAbstractClassRep@@XZ 00491cf0 f   shapeBase.obj
 0001:00090d00       ?getParentStaticClassRep@ShapeBaseData@@SAPAVAbstractClassRep@@XZ 00491d00 f   shapeBase.obj
 0001:00090d10       ?initPersistFields@ShapeBaseData@@SAXXZ 00491d10 f   shapeBase.obj
 0001:00091100       ??1?$Chunker@UCollisionTimeout@ShapeBase@@@@QAE@XZ 00492100 f i shapeBase.obj
 0001:00091110       ?getClassRep@ShapeBase@@UBEPAVAbstractClassRep@@XZ 00492110 f   shapeBase.obj
 0001:00091120       ?getStaticClassRep@ShapeBase@@SAPAVAbstractClassRep@@XZ 00492120 f   shapeBase.obj
 0001:00091130       ?getParentStaticClassRep@ShapeBase@@SAPAVAbstractClassRep@@XZ 00492130 f   shapeBase.obj
 0001:00091140       ??_GShadow@@QAEPAXI@Z      00492140 f i shapeBase.obj
 0001:00091160       ?onSceneRemove@ShapeBase@@UAEXXZ 00492160 f   shapeBase.obj
 0001:00091180       ?setControllingClient@ShapeBase@@UAEXPAVGameConnection@@@Z 00492180 f   shapeBase.obj
 0001:000911a0       ?getControlObject@ShapeBase@@UAEPAV1@XZ 004921a0 f   shapeBase.obj
 0001:000911b0       ?setControlObject@ShapeBase@@UAEXPAV1@@Z 004921b0 f   shapeBase.obj
 0001:000911c0       ?getCameraFov@ShapeBase@@UAEMXZ 004921c0 f   shapeBase.obj
 0001:000911d0       ?getDefaultCameraFov@ShapeBase@@UAEMXZ 004921d0 f   shapeBase.obj
 0001:000911e0       ?isValidCameraFov@ShapeBase@@UAE_NM@Z 004921e0 f   shapeBase.obj
 0001:00091220       ?setCameraFov@ShapeBase@@UAEXM@Z 00492220 f   shapeBase.obj
 0001:00091270       ?applyRepair@ShapeBase@@QAEXM@Z 00492270 f   shapeBase.obj
 0001:000912b0       ?getDamageValue@ShapeBase@@QAEMXZ 004922b0 f   shapeBase.obj
 0001:000912c0       ?getDamageStateName@ShapeBase@@QAEPBDXZ 004922c0 f   shapeBase.obj
 0001:000912d0       ?getMountedObjectCount@ShapeBase@@QAEHXZ 004922d0 f   shapeBase.obj
 0001:000912f0       ?getMountedObject@ShapeBase@@QAEPAV1@H@Z 004922f0 f   shapeBase.obj
 0001:00091320       ?getMountedObjectNode@ShapeBase@@QAEHH@Z 00492320 f   shapeBase.obj
 0001:00091360       ?getMountNodeObject@ShapeBase@@QAEPAV1@H@Z 00492360 f   shapeBase.obj
 0001:00091390       ?getDamageFlash@ShapeBase@@UBEMXZ 00492390 f   shapeBase.obj
 0001:000913a0       ?setDamageFlash@ShapeBase@@UAEXM@Z 004923a0 f   shapeBase.obj
 0001:000913f0       ?getWhiteOut@ShapeBase@@UBEMXZ 004923f0 f   shapeBase.obj
 0001:00091400       ?setWhiteOut@ShapeBase@@UAEXM@Z 00492400 f   shapeBase.obj
 0001:00091450       ?onlyFirstPerson@ShapeBase@@QBE_NXZ 00492450 f   shapeBase.obj
 0001:00091460       ?useObjsEyePoint@ShapeBase@@QBE_NXZ 00492460 f   shapeBase.obj
 0001:00091470       ?getInvincibleEffect@ShapeBase@@UBEMXZ 00492470 f   shapeBase.obj
 0001:00091480       ?updateInvincibleEffect@ShapeBase@@UAEXM@Z 00492480 f   shapeBase.obj
 0001:00091560       ?setVelocity@ShapeBase@@UAEXABVPoint3F@@@Z 00492560 f   shapeBase.obj
 0001:00091570       ?applyImpulse@ShapeBase@@UAEXABVPoint3F@@0@Z 00492570 f   shapeBase.obj
 0001:00091580       ?updateServerAudio@ShapeBase@@IAEXXZ 00492580 f   shapeBase.obj
 0001:000915d0       ?stopThreadSound@ShapeBase@@QAEXAAUThread@1@@Z 004925d0 f   shapeBase.obj
 0001:000915e0       ?calcClassRenderData@ShapeBase@@UAEXXZ 004925e0 f   shapeBase.obj
 0001:000915f0       ?isValidBox@Box3F@@QBE_NXZ 004925f0 f i shapeBase.obj
 0001:00091620       ?getClosestPoint@Box3F@@QBE?AVPoint3F@@ABV2@@Z 00492620 f i shapeBase.obj
 0001:000916d0       ?wireCube@ShapeBase@@SAXABVPoint3F@@0@Z 004926d0 f   shapeBase.obj
 0001:00091760       ?forceUncloak@ShapeBase@@QAEXPBD@Z 00492760 f   shapeBase.obj
 0001:000917a0       ?setHidden@ShapeBase@@UAEX_N@Z 004927a0 f   shapeBase.obj
 0001:000917f0       ?isInvincible@ShapeBase@@QAE_NXZ 004927f0 f   shapeBase.obj
 0001:00091810       ?startFade@ShapeBase@@QAEXMM_N@Z 00492810 f   shapeBase.obj
 0001:00091ae0       ?isScopeable@NetObject@@QBE_NXZ 00492ae0 f i shapeBase.obj
 0001:00091e90       ?getRenderWorldBox@SceneObject@@QBEABVBox3F@@XZ 00492e90 f i shapeBase.obj
 0001:00091f20       ?setSmallTexturesActive@TextureManager@@SAX_N@Z 00492f20 f i shapeBase.obj
 0001:00092040       ?setProcessTick@GameBase@@QAEX_N@Z 00493040 f i shapeBase.obj
 0001:00092050       ?consoleInit@ShapeBase@@SAXXZ 00493050 f   shapeBase.obj
 0001:00092090       ??0StringHandle@@QAE@XZ    00493090 f i shapeBase.obj
 0001:000920a0       ??0StringHandle@@QAE@PBD@Z 004930a0 f i shapeBase.obj
 0001:000920c0       ??0StringHandle@@QAE@I@Z   004930c0 f i shapeBase.obj
 0001:000920e0       ??1StringHandle@@QAE@XZ    004930e0 f i shapeBase.obj
 0001:00092100       ?getCRC@?$Resource@VTSShape@@@@QAEIXZ 00493100 f i shapeBase.obj
 0001:00092110       ?isNull@?$Resource@VTSShape@@@@QBE_NXZ 00493110 f i shapeBase.obj
 0001:00092130       ??9StringHandle@@QBE_NABV0@@Z 00493130 f i shapeBase.obj
 0001:00092150       ??4StringHandle@@QAEAAV0@ABV0@@Z 00493150 f i shapeBase.obj
 0001:00092190       ?getString@StringHandle@@QAEPBDXZ 00493190 f i shapeBase.obj
 0001:000921b0       ?isValidString@StringHandle@@QAE_NXZ 004931b0 f i shapeBase.obj
 0001:000921c0       ?getIndex@StringHandle@@QAEIXZ 004931c0 f i shapeBase.obj
 0001:000921d0       ??0ShapeBaseConvex@@QAE@XZ 004931d0 f i shapeBase.obj
 0001:000921f0       ?getShapeInstance@ShapeBase@@QAEPAVTSShapeInstance@@XZ 004931f0 f i shapeBase.obj
 0001:00092200       ?isDestroyed@ShapeBase@@QAE_NXZ 00493200 f i shapeBase.obj
 0001:00092210       ?setRepairRate@ShapeBase@@QAEXM@Z 00493210 f i shapeBase.obj
 0001:00092220       ?getDamageLevel@ShapeBase@@QAEMXZ 00493220 f i shapeBase.obj
 0001:00092230       ?getRepairRate@ShapeBase@@QAEMXZ 00493230 f i shapeBase.obj
 0001:00092240       ?setDamageDir@ShapeBase@@QAEXABVPoint3F@@@Z 00493240 f i shapeBase.obj
 0001:00092260       ?setRechargeRate@ShapeBase@@QAEXM@Z 00493260 f i shapeBase.obj
 0001:00092270       ?getRechargeRate@ShapeBase@@QAEMXZ 00493270 f i shapeBase.obj
 0001:00092280       ??0?$SimObjectPtr@VShapeBase@@@@QAE@PAVShapeBase@@@Z 00493280 f i shapeBase.obj
 0001:000922a0       ?getCloakedState@ShapeBase@@QAE_NXZ 004932a0 f i shapeBase.obj
 0001:000922b0       ??A?$ToolVector@VPoint3F@@@@QAEAAVPoint3F@@I@Z 004932b0 f i shapeBase.obj
 0001:000922c0       ?getShapeName@ShapeBase@@QAEPBDXZ 004932c0 f i shapeBase.obj
 0001:000922e0       ?empty@?$ToolVector@H@@QBE_NXZ 004932e0 f i shapeBase.obj
 0001:000922f0       ?getSkinName@ShapeBase@@QAEPBDXZ 004932f0 f i shapeBase.obj
 0001:00092310       ??A?$ToolVector@H@@QAEAAHI@Z 00493310 f i shapeBase.obj
 0001:00092320       ??A?$ToolVector@UObject@TSShape@@@@QAEAAUObject@TSShape@@I@Z 00493320 f i shapeBase.obj
 0001:00092330       ??A?$ToolVector@UDetail@TSShape@@@@QAEAAUDetail@TSShape@@I@Z 00493330 f i shapeBase.obj
 0001:00092340       ?filesWereDownloaded@NetConnection@@SA_NXZ 00493340 f i shapeBase.obj
 0001:00092350       ??0?$Chunker@UCollisionTimeout@ShapeBase@@@@QAE@H@Z 00493350 f i shapeBase.obj
 0001:00092370       ?alloc@?$Chunker@UCollisionTimeout@ShapeBase@@@@QAEPAUCollisionTimeout@ShapeBase@@XZ 00493370 f i shapeBase.obj
 0001:00092380       ?last@?$Vector@UFace@ConvexFeature@@@@QAEAAUFace@ConvexFeature@@XZ 00493380 f i shapeBase.obj
 0001:00092390       ?testFlags@Sequence@TSShape@@QBE_NI@Z 00493390 f i shapeBase.obj
 0001:000923b0       ?isCyclic@Sequence@TSShape@@QBE_NXZ 004933b0 f i shapeBase.obj
 0001:000923c0       ?findDetail@TSShape@@QBEHPBD@Z 004933c0 f i shapeBase.obj
 0001:000923e0       ??$findObject@UDebrisData@@@Sim@@YA_NIAAPAUDebrisData@@@Z 004933e0 f i shapeBase.obj
 0001:00092420       ??1?$Vector@PAVTSPartInstance@@@@QAE@XZ 00493420 f i shapeBase.obj
 0001:00092430       ?size@?$Vector@PAVTSPartInstance@@@@QBEHXZ 00493430 f i shapeBase.obj
 0001:00092440       ??A?$Vector@PAVTSPartInstance@@@@QAEAAPAVTSPartInstance@@I@Z 00493440 f i shapeBase.obj
 0001:00092450       ??$findObject@UShapeBaseImageData@@@Sim@@YA_NIAAPAUShapeBaseImageData@@@Z 00493450 f i shapeBase.obj
 0001:00092490       ??$findObject@UShapeBaseImageData@@@Sim@@YA_NPBDAAPAUShapeBaseImageData@@@Z 00493490 f i shapeBase.obj
 0001:000924d0       ?resize@?$Vector@PAVTSPartInstance@@@@IAE_NI@Z 004934d0 f i shapeBase.obj
 0001:000924f0       ?getLightManager@SceneGraph@@QAEPAVLightManager@@XZ 004934f0 f i shapeBase.obj
 0001:00092500       ?getGlobalShadowDetailLevel@Shadow@@SAMXZ 00493500 f i shapeBase.obj
 0001:00092510       ?setGeneric@Shadow@@QAEX_N@Z 00493510 f i shapeBase.obj
 0001:00092520       ?needBitmap@Shadow@@QAE_NXZ 00493520 f i shapeBase.obj
 0001:00092530       ?getSurfaceHeight@WaterBlock@@QAEMXZ 00493530 f i shapeBase.obj
 0001:00092540       ?getViscosity@WaterBlock@@QBEMXZ 00493540 f i shapeBase.obj
 0001:00092550       ?getDensity@WaterBlock@@QBEMXZ 00493550 f i shapeBase.obj
 0001:00092560       ?setPartInstance@Debris@@QAEXPAVTSPartInstance@@@Z 00493560 f i shapeBase.obj
 0001:00092570       ?getGravityMod@PhysicalZone@@QBEMXZ 00493570 f i shapeBase.obj
 0001:00092580       ?getForce@PhysicalZone@@QBEABVPoint3F@@XZ 00493580 f i shapeBase.obj
 0001:00092590       ?packData@ShapeBaseData@@UAEXPAVBitStream@@@Z 00493590 f   shapeBase.obj
 0001:00092990       ?unpackData@ShapeBaseData@@UAEXPAVBitStream@@@Z 00493990 f   shapeBase.obj
 0001:00093070       ??0ShapeBase@@QAE@XZ       00494070 f   shapeBase.obj
 0001:000932e0       ??1ShapeBase@@UAE@XZ       004942e0 f   shapeBase.obj
 0001:00093420       ?onImpact@ShapeBase@@MAEXPAVSceneObject@@VPoint3F@@@Z 00494420 f   shapeBase.obj
 0001:00093510       ?onImpact@ShapeBase@@MAEXVPoint3F@@@Z 00494510 f   shapeBase.obj
 0001:00093600       ?setControllingObject@ShapeBase@@UAEXPAV1@@Z 00494600 f   shapeBase.obj
 0001:00093650       ?isFirstPerson@ShapeBase@@QAE_NXZ 00494650 f   shapeBase.obj
 0001:000936c0       ?getEnergyLevel@ShapeBase@@QAEMXZ 004946c0 f   shapeBase.obj
 0001:00093700       ?getEnergyValue@ShapeBase@@QAEMXZ 00494700 f   shapeBase.obj
 0001:00093770       ?setEnergyLevel@ShapeBase@@UAEXM@Z 00494770 f   shapeBase.obj
 0001:000937f0       ?setDamageLevel@ShapeBase@@QAEXM@Z 004947f0 f   shapeBase.obj
 0001:00093980       ?physicalZoneFind@@YAXPAVSceneObject@@PAX@Z 00494980 f   shapeBase.obj
 0001:00093a10       ?findRouter@@YAXPAVSceneObject@@PAX@Z 00494a10 f   shapeBase.obj
 0001:00093a40       ?updateContainer@ShapeBase@@IAEXXZ 00494a40 f   shapeBase.obj
 0001:00093b50       ?applyDamage@ShapeBase@@QAEXM@Z 00494b50 f   shapeBase.obj
 0001:00093b80       ?updateDamageLevel@ShapeBase@@MAEXXZ 00494b80 f   shapeBase.obj
 0001:00093bf0       ?setDamageState@ShapeBase@@QAEXW4DamageState@1@@Z 00494bf0 f   shapeBase.obj
 0001:00093cb0       ?setDamageState@ShapeBase@@QAE_NPBD@Z 00494cb0 f   shapeBase.obj
 0001:00093d00       ?updateDamageState@ShapeBase@@MAEXXZ 00494d00 f   shapeBase.obj
 0001:00093d80       ?unmountObject@ShapeBase@@QAEXPAV1@@Z 00494d80 f   shapeBase.obj
 0001:00093e10       ?unmount@ShapeBase@@QAEXXZ 00494e10 f   shapeBase.obj
 0001:00093e30       ?onMount@ShapeBase@@MAEXPAV1@H@Z 00494e30 f   shapeBase.obj
 0001:00093ea0       ?onUnmount@ShapeBase@@MAEXPAV1@H@Z 00494ea0 f   shapeBase.obj
 0001:00093f10       ?getCameraParameters@ShapeBase@@UAEXPAM0PAVPoint3F@@PAVMatrixF@@@Z 00494f10 f   shapeBase.obj
 0001:00093f80       ?setupInvincibleEffect@ShapeBase@@UAEXMM@Z 00494f80 f   shapeBase.obj
 0001:00093ff0       ?updateAudioState@ShapeBase@@IAEXAAUSound@1@@Z 00494ff0 f   shapeBase.obj
 0001:00094090       ?updateAudioPos@ShapeBase@@IAEXXZ 00495090 f   shapeBase.obj
 0001:000940c0       ?startSequenceSound@ShapeBase@@QAEXAAUThread@1@@Z 004950c0 f   shapeBase.obj
 0001:000940d0       ?getShape@ShapeBase@@QAEPBVTSShape@@XZ 004950d0 f   shapeBase.obj
 0001:000940f0       ?castRay@ShapeBase@@UAE_NABVPoint3F@@0PAURayInfo@@@Z 004950f0 f   shapeBase.obj
 0001:000941b0       ?buildPolyList@ShapeBase@@UAE_NPAVAbstractPolyList@@ABVBox3F@@ABVSphereF@@@Z 004951b0 f   shapeBase.obj
 0001:00094220       ?queueCollision@ShapeBase@@QAEXPAV1@ABVPoint3F@@@Z 00495220 f   shapeBase.obj
 0001:00094300       ?notifyCollision@ShapeBase@@QAEXXZ 00495300 f   shapeBase.obj
 0001:00094470       ?onCollision@ShapeBase@@UAEXPAV1@VPoint3F@@@Z 00495470 f   shapeBase.obj
 0001:00094560       ?writePacketData@ShapeBase@@UAEXPAVGameConnection@@PAVBitStream@@@Z 00495560 f   shapeBase.obj
 0001:000945b0       ?readPacketData@ShapeBase@@UAEXPAVGameConnection@@PAVBitStream@@@Z 004955b0 f   shapeBase.obj
 0001:00094600       ?getPacketDataChecksum@ShapeBase@@UAEIPAVGameConnection@@@Z 00495600 f   shapeBase.obj
 0001:000946a0       ?getUpdatePriority@ShapeBase@@UAEMPAUCameraScopeQuery@@IH@Z 004956a0 f   shapeBase.obj
 0001:000946e0       ?packUpdate@ShapeBase@@UAEIPAVNetConnection@@IPAVBitStream@@@Z 004956e0 f   shapeBase.obj
 0001:00094da0       ?setCloakedState@ShapeBase@@QAEX_N@Z 00495da0 f   shapeBase.obj
 0001:00094e00       ?getTransform@ShapeBaseConvex@@UBEABVMatrixF@@XZ 00495e00 f   shapeBase.obj
 0001:00094e50       ?getBoundingBox@ShapeBaseConvex@@UBE?AVBox3F@@XZ 00495e50 f   shapeBase.obj
 0001:00094e80       ?getBoundingBox@ShapeBaseConvex@@UBE?AVBox3F@@ABVMatrixF@@ABVPoint3F@@@Z 00495e80 f   shapeBase.obj
 0001:00094f30       ?support@ShapeBaseConvex@@UBE?AVPoint3F@@ABV2@@Z 00495f30 f   shapeBase.obj
 0001:000950c0       ?getPolyList@ShapeBaseConvex@@UAEXPAVAbstractPolyList@@@Z 004960c0 f   shapeBase.obj
 0001:00095130       ?setShapeName@ShapeBase@@QAEXPBD@Z 00496130 f   shapeBase.obj
 0001:00095230       ?setSkinName@ShapeBase@@QAEXPBD@Z 00496230 f   shapeBase.obj
 0001:00096210       ?getProcessAfter@GameBase@@QAEPAV1@XZ 00497210 f i shapeBase.obj
 0001:00096260       ??_EShapeBaseConvex@@UAEPAXI@Z 00497260 f i shapeBase.obj
 0001:00096260       ??_GShapeBaseConvex@@UAEPAXI@Z 00497260 f i shapeBase.obj
 0001:00096280       ??1ShapeBaseConvex@@UAE@XZ 00497280 f i shapeBase.obj
 0001:00096290       ?reserve@?$Vector@PAVTSPartInstance@@@@QAEXI@Z 00497290 f i shapeBase.obj
 0001:000962c0       ??1?$ConcreteClassRep@UShapeBaseData@@@@UAE@XZ 004972c0 f i shapeBase.obj
 0001:000962e0       ??0ShapeBaseData@@QAE@XZ   004972e0 f   shapeBase.obj
 0001:000964e0       ??1ShapeBaseData@@UAE@XZ   004974e0 f   shapeBase.obj
 0001:000965a0       ?preload@ShapeBaseData@@UAE_N_NQAD@Z 004975a0 f   shapeBase.obj
 0001:00097390       ??1?$ConcreteClassRep@VShapeBase@@@@UAE@XZ 00498390 f i shapeBase.obj
 0001:000973b0       ??_GShapeBase@@UAEPAXI@Z   004983b0 f i shapeBase.obj
 0001:000973b0       ??_EShapeBase@@UAEPAXI@Z   004983b0 f i shapeBase.obj
 0001:000973d0       ?onDeleteNotify@ShapeBase@@MAEXPAVSimObject@@@Z 004983d0 f   shapeBase.obj
 0001:00097410       ?onCameraScopeQuery@ShapeBase@@UAEXPAVNetConnection@@PAUCameraScopeQuery@@@Z 00498410 f   shapeBase.obj
 0001:00097530       ?mountObject@ShapeBase@@UAEXPAV1@I@Z 00498530 f   shapeBase.obj
 0001:000975c0       ?getAIRepairPoint@ShapeBase@@QAE?AVPoint3F@@XZ 004985c0 f   shapeBase.obj
 0001:000976a0       ?getEyeTransform@ShapeBase@@UAEXPAVMatrixF@@@Z 004986a0 f   shapeBase.obj
 0001:00097700       ?getRenderEyeTransform@ShapeBase@@UAEXPAVMatrixF@@@Z 00498700 f   shapeBase.obj
 0001:00097760       ?getCameraTransform@ShapeBase@@UAEXPAMPAVMatrixF@@@Z 00498760 f   shapeBase.obj
 0001:00097b10       ?playAudio@ShapeBase@@QAEXIPAVAudioProfile@@@Z 00498b10 f   shapeBase.obj
 0001:00097b60       ?stopAudio@ShapeBase@@QAEXI@Z 00498b60 f   shapeBase.obj
 0001:00097ba0       ?updateThread@ShapeBase@@QAEXAAUThread@1@@Z 00498ba0 f   shapeBase.obj
 0001:00097c80       ?stopThread@ShapeBase@@QAE_NI@Z 00498c80 f   shapeBase.obj
 0001:00097cd0       ?pauseThread@ShapeBase@@QAE_NI@Z 00498cd0 f   shapeBase.obj
 0001:00097d20       ?playThread@ShapeBase@@QAE_NI@Z 00498d20 f   shapeBase.obj
 0001:00097d70       ?setThreadDir@ShapeBase@@QAE_NI_N@Z 00498d70 f   shapeBase.obj
 0001:00097dd0       ?advanceThreads@ShapeBase@@QAEXM@Z 00498dd0 f   shapeBase.obj
 0001:00097ee0       ??0ShapeImageRenderImage@@QAE@XZ 00498ee0 f i shapeBase.obj
 0001:00097f00       ??_GShapeImageRenderImage@@UAEPAXI@Z 00498f00 f i shapeBase.obj
 0001:00097f00       ??_EShapeImageRenderImage@@UAEPAXI@Z 00498f00 f i shapeBase.obj
 0001:00097f20       ??1ShapeImageRenderImage@@UAE@XZ 00498f20 f i shapeBase.obj
 0001:00097f30       ?renderObject@ShapeBase@@UAEXPAVSceneState@@PAVSceneRenderImage@@@Z 00498f30 f   shapeBase.obj
 0001:000985c0       ?renderMountedImage@ShapeBase@@UAEXPAVSceneState@@PAVShapeImageRenderImage@@@Z 004995c0 f   shapeBase.obj
 0001:000988a0       ?renderShadow@ShapeBase@@QAEXMM@Z 004998a0 f   shapeBase.obj
 0001:00098cb0       ?findNodeTransform@ShapeBaseConvex@@QAEXXZ 00499cb0 f   shapeBase.obj
 0001:00098d30       ?getFeatures@ShapeBaseConvex@@UAEXABVMatrixF@@ABVPoint3F@@PAVConvexFeature@@@Z 00499d30 f   shapeBase.obj
 0001:00099770       ??0?$Vector@PAVTSPartInstance@@@@QAE@I@Z 0049a770 f i shapeBase.obj
 0001:000997c0       ??_EShapeBaseData@@UAEPAXI@Z 0049a7c0 f i shapeBase.obj
 0001:000997c0       ??_GShapeBaseData@@UAEPAXI@Z 0049a7c0 f i shapeBase.obj
 0001:00099810       ?onAdd@ShapeBase@@UAE_NXZ  0049a810 f   shapeBase.obj
 0001:00099950       ?onRemove@ShapeBase@@UAEXXZ 0049a950 f   shapeBase.obj
 0001:000999c0       ?processTick@ShapeBase@@UAEXPBUMove@@@Z 0049a9c0 f   shapeBase.obj
 0001:00099dd0       ?advanceTime@ShapeBase@@UAEXM@Z 0049add0 f   shapeBase.obj
 0001:00099f30       ?setThreadSequence@ShapeBase@@QAE_NIH_N@Z 0049af30 f   shapeBase.obj
 0001:00099fd0       ?prepRenderImage@ShapeBase@@UAE_NPAVSceneState@@II_N@Z 0049afd0 f   shapeBase.obj
 0001:0009a460       ?renderImage@ShapeBase@@UAEXPAVSceneState@@PAVSceneRenderImage@@@Z 0049b460 f   shapeBase.obj
 0001:0009a8e0       ?buildConvex@ShapeBase@@UAEXABVBox3F@@PAVConvex@@@Z 0049b8e0 f   shapeBase.obj
 0001:0009ab70       ?unpackUpdate@ShapeBase@@UAEXPAVNetConnection@@PAVBitStream@@@Z 0049bb70 f   shapeBase.obj
 0001:0009b9d0       ??0?$ConcreteClassRep@UShapeBaseData@@@@QAE@PBDHHH@Z 0049c9d0 f i shapeBase.obj
 0001:0009ba50       ?init@?$ConcreteClassRep@UShapeBaseData@@@@UBEXXZ 0049ca50 f i shapeBase.obj
 0001:0009ba80       ?create@?$ConcreteClassRep@UShapeBaseData@@@@UBEPAVConsoleObject@@XZ 0049ca80 f i shapeBase.obj
 0001:0009bab0       ??_G?$ConcreteClassRep@UShapeBaseData@@@@UAEPAXI@Z 0049cab0 f i shapeBase.obj
 0001:0009bab0       ??_E?$ConcreteClassRep@UShapeBaseData@@@@UAEPAXI@Z 0049cab0 f i shapeBase.obj
 0001:0009bad0       ??0?$ConcreteClassRep@VShapeBase@@@@QAE@PBDHHH@Z 0049cad0 f i shapeBase.obj
 0001:0009bb50       ?init@?$ConcreteClassRep@VShapeBase@@@@UBEXXZ 0049cb50 f i shapeBase.obj
 0001:0009bbb0       ?create@?$ConcreteClassRep@VShapeBase@@@@UBEPAVConsoleObject@@XZ 0049cbb0 f i shapeBase.obj
 0001:0009bbe0       ??_G?$ConcreteClassRep@VShapeBase@@@@UAEPAXI@Z 0049cbe0 f i shapeBase.obj
 0001:0009bbe0       ??_E?$ConcreteClassRep@VShapeBase@@@@UAEPAXI@Z 0049cbe0 f i shapeBase.obj
 0001:0009bc00       ?onNewDataBlock@ShapeBase@@UAE_NPAUGameBaseData@@@Z 0049cc00 f   shapeBase.obj
 0001:0009bea0       ?pointInWater@ShapeBase@@QAE_NAAVPoint3F@@@Z 0049cea0 f   shapeBase.obj
 0001:0009bfb0       ?blowUp@ShapeBase@@MAEXXZ  0049cfb0 f   shapeBase.obj
 0001:0009c330       ?defaultFilter@@YAXPAVSceneObject@@PAX@Z 0049d330 f   shapeCollision.obj
 0001:0009c350       ?collisionFilter@@YAXPAVSceneObject@@PAX@Z 0049d350 f   shapeCollision.obj
 0001:0009c410       ?getClassRep@ShapeBaseImageData@@UBEPAVAbstractClassRep@@XZ 0049d410 f   shapeImage.obj
 0001:0009c420       ?getStaticClassRep@ShapeBaseImageData@@SAPAVAbstractClassRep@@XZ 0049d420 f   shapeImage.obj
 0001:0009c430       ?getParentStaticClassRep@ShapeBaseImageData@@SAPAVAbstractClassRep@@XZ 0049d430 f   shapeImage.obj
 0001:0009c440       ??0StateData@ShapeBaseImageData@@QAE@XZ 0049d440 f   shapeImage.obj
 0001:0009c4a0       ?initPersistFields@ShapeBaseImageData@@SAXXZ 0049d4a0 f   shapeImage.obj
 0001:0009c9c0       ?getMountedImage@ShapeBase@@QAEPAUShapeBaseImageData@@I@Z 0049d9c0 f   shapeImage.obj
 0001:0009c9e0       ?getImageStruct@ShapeBase@@QAEPAUMountedImage@1@I@Z 0049d9e0 f   shapeImage.obj
 0001:0009ca00       ?getPendingImage@ShapeBase@@QAEPAUShapeBaseImageData@@I@Z 0049da00 f   shapeImage.obj
 0001:0009ca30       ?isImageFiring@ShapeBase@@QAE_NI@Z 0049da30 f   shapeImage.obj
 0001:0009ca60       ?isImageReady@ShapeBase@@QAE_NIII@Z 0049da60 f   shapeImage.obj
 0001:0009cb90       ?isImageMounted@ShapeBase@@QAE_NPAUShapeBaseImageData@@@Z 0049db90 f   shapeImage.obj
 0001:0009cbc0       ?getMountSlot@ShapeBase@@QAEHPAUShapeBaseImageData@@@Z 0049dbc0 f   shapeImage.obj
 0001:0009cbf0       ?getImageState@ShapeBase@@QAEPBDI@Z 0049dbf0 f   shapeImage.obj
 0001:0009cc20       ?setImageAmmoState@ShapeBase@@QAEXI_N@Z 0049dc20 f   shapeImage.obj
 0001:0009cc70       ?getImageAmmoState@ShapeBase@@QAE_NI@Z 0049dc70 f   shapeImage.obj
 0001:0009cca0       ?setImageWetState@ShapeBase@@QAEXI_N@Z 0049dca0 f   shapeImage.obj
 0001:0009cce0       ?getImageWetState@ShapeBase@@QAE_NI@Z 0049dce0 f   shapeImage.obj
 0001:0009cd10       ?setImageLoadedState@ShapeBase@@QAEXI_N@Z 0049dd10 f   shapeImage.obj
 0001:0009cd50       ?getImageLoadedState@ShapeBase@@QAE_NI@Z 0049dd50 f   shapeImage.obj
 0001:0009cd80       ?scriptCallback@ShapeBase@@IAEXIPBD@Z 0049dd80 f   shapeImage.obj
 0001:0009cdf0       ?getMuzzleTransform@ShapeBase@@UAEXIPAVMatrixF@@@Z 0049ddf0 f   shapeImage.obj
 0001:0009ce40       ?updateMass@ShapeBase@@IAEXXZ 0049de40 f   shapeImage.obj
 0001:0009ceb0       ?onImageRecoil@ShapeBase@@MAEXIW4RecoilState@StateData@ShapeBaseImageData@@@Z 0049deb0 f   shapeImage.obj
 0001:0009cec0       ?getImageFireState@ShapeBase@@IAEII@Z 0049dec0 f   shapeImage.obj
 0001:0009cef0       ??A?$ToolVector@UNode@TSShape@@@@QAEAAUNode@TSShape@@I@Z 0049def0 f i shapeImage.obj
 0001:0009cf00       ??A?$ToolVector@UQuat16@@@@QAEAAUQuat16@@I@Z 0049df00 f i shapeImage.obj
 0001:0009cf10       ??0?$SimObjectPtr@VParticleEmitter@@@@QAE@XZ 0049df10 f i shapeImage.obj
 0001:0009cf20       ??1?$SimObjectPtr@VParticleEmitter@@@@QAE@XZ 0049df20 f i shapeImage.obj
 0001:0009cf30       ??4?$SimObjectPtr@VParticleEmitter@@@@QAEAAV0@PAVParticleEmitter@@@Z 0049df30 f i shapeImage.obj
 0001:0009cf60       ??C?$SimObjectPtr@VParticleEmitter@@@@QBEPAVParticleEmitter@@XZ 0049df60 f i shapeImage.obj
 0001:0009cf70       ??B?$SimObjectPtr@VParticleEmitter@@@@QBEPAVParticleEmitter@@XZ 0049df70 f i shapeImage.obj
 0001:0009cf80       ??$findObject@VProjectileData@@@Sim@@YA_NIAAPAVProjectileData@@@Z 0049df80 f i shapeImage.obj
 0001:0009cfc0       ?isIdentity@MatrixF@@QBE_NXZ 0049dfc0 f i shapeImage.obj
 0001:0009d0e0       ?setMatrix@TSTransform@@SAXABVQuatF@@ABVPoint3F@@PAVMatrixF@@@Z 0049e0e0 f i shapeImage.obj
 0001:0009d110       ??0StringHandle@@QAE@ABV0@@Z 0049e110 f i shapeImage.obj
 0001:0009d140       ??8StringHandle@@QBE_NABV0@@Z 0049e140 f i shapeImage.obj
 0001:0009d150       ?getDataBlock@ParticleEmitter@@QAEPAVParticleEmitterData@@XZ 0049e150 f i shapeImage.obj
 0001:0009d160       ??1?$ConcreteClassRep@UShapeBaseImageData@@@@UAE@XZ 0049e160 f i shapeImage.obj
 0001:0009d180       ?lookupState@ShapeBaseImageData@@QAEHPBD@Z 0049e180 f   shapeImage.obj
 0001:0009d1f0       ?packData@ShapeBaseImageData@@UAEXPAVBitStream@@@Z 0049e1f0 f   shapeImage.obj
 0001:0009d790       ?unpackData@ShapeBaseImageData@@UAEXPAVBitStream@@@Z 0049e790 f   shapeImage.obj
 0001:0009e170       ?registerImageLights@MountedImage@ShapeBase@@QAEXPAVLightManager@@_NABVPoint3F@@I@Z 0049f170 f   shapeImage.obj
 0001:0009e2e0       ??0ImageEmitter@MountedImage@ShapeBase@@QAE@XZ 0049f2e0 f i shapeImage.obj
 0001:0009e2f0       ??1ImageEmitter@MountedImage@ShapeBase@@QAE@XZ 0049f2f0 f i shapeImage.obj
 0001:0009e300       ??1MountedImage@ShapeBase@@QAE@XZ 0049f300 f   shapeImage.obj
 0001:0009e3e0       ?mountImage@ShapeBase@@UAE_NPAUShapeBaseImageData@@I_NAAVStringHandle@@@Z 0049f3e0 f   shapeImage.obj
 0001:0009e460       ?unmountImage@ShapeBase@@UAE_NI@Z 0049f460 f   shapeImage.obj
 0001:0009e530       ?getImageSkinTag@ShapeBase@@QAE?AVStringHandle@@I@Z 0049f530 f   shapeImage.obj
 0001:0009e5e0       ?getRenderMuzzleTransform@ShapeBase@@UAEXIPAVMatrixF@@@Z 0049f5e0 f   shapeImage.obj
 0001:0009e630       ?getRetractionTransform@ShapeBase@@UAEXIPAVMatrixF@@@Z 0049f630 f   shapeImage.obj
 0001:0009e6a0       ?getRenderRetractionTransform@ShapeBase@@UAEXIPAVMatrixF@@@Z 0049f6a0 f   shapeImage.obj
 0001:0009e710       ?getNodeIndex@ShapeBase@@QAEHIPBD@Z 0049f710 f   shapeImage.obj
 0001:0009e750       ?resetImageSlot@ShapeBase@@IAEXI@Z 0049f750 f   shapeImage.obj
 0001:0009e860       ?getImageTriggerState@ShapeBase@@QAE_NI@Z 0049f860 f   shapeImage.obj
 0001:0009e890       ?startImageEmitter@ShapeBase@@IAEXAAUMountedImage@1@AAUStateData@ShapeBaseImageData@@@Z 0049f890 f   shapeImage.obj
 0001:0009e980       ??0ShapeBaseImageData@@QAE@XZ 0049f980 f   shapeImage.obj
 0001:0009ecf0       ??1ShapeBaseImageData@@UAE@XZ 0049fcf0 f   shapeImage.obj
 0001:0009ed60       ?onAdd@ShapeBaseImageData@@UAE_NXZ 0049fd60 f   shapeImage.obj
 0001:0009ef20       ?preload@ShapeBaseImageData@@UAE_N_NQAD@Z 0049ff20 f   shapeImage.obj
 0001:0009f530       ??0MountedImage@ShapeBase@@QAE@XZ 004a0530 f   shapeImage.obj
 0001:0009f5c0       ?getMuzzlePoint@ShapeBase@@QAEXIPAVPoint3F@@@Z 004a05c0 f   shapeImage.obj
 0001:0009f600       ?getRenderMuzzlePoint@ShapeBase@@UAEXIPAVPoint3F@@@Z 004a0600 f   shapeImage.obj
 0001:0009f640       ?getMountTransform@ShapeBase@@UAEXIPAVMatrixF@@@Z 004a0640 f   shapeImage.obj
 0001:0009f6f0       ?getImageTransform@ShapeBase@@UAEXIPAVMatrixF@@@Z 004a06f0 f   shapeImage.obj
 0001:0009f7b0       ?getImageTransform@ShapeBase@@UAEXIHPAVMatrixF@@@Z 004a07b0 f   shapeImage.obj
 0001:0009f840       ?getImageTransform@ShapeBase@@UAEXIPBDPAVMatrixF@@@Z 004a0840 f   shapeImage.obj
 0001:0009f8a0       ?getRenderMountTransform@ShapeBase@@UAEXIPAVMatrixF@@@Z 004a08a0 f   shapeImage.obj
 0001:0009f960       ?getRenderImageTransform@ShapeBase@@UAEXIPAVMatrixF@@@Z 004a0960 f   shapeImage.obj
 0001:0009fa20       ?getRenderImageTransform@ShapeBase@@UAEXIHPAVMatrixF@@@Z 004a0a20 f   shapeImage.obj
 0001:0009fab0       ?getRenderImageTransform@ShapeBase@@UAEXIPBDPAVMatrixF@@@Z 004a0ab0 f   shapeImage.obj
 0001:0009fb10       ?setImageState@ShapeBase@@IAEXII_N@Z 004a0b10 f   shapeImage.obj
 0001:000a0080       ?updateImageState@ShapeBase@@IAEXIM@Z 004a1080 f   shapeImage.obj
 0001:000a0250       ?updateImageAnimation@ShapeBase@@IAEXIM@Z 004a1250 f   shapeImage.obj
 0001:000a03c0       ?getImageLight@ShapeBase@@IAEPAPAXI@Z 004a13c0 f   shapeImage.obj
 0001:000a0450       ?registerLights@ShapeBase@@UAEXPAVLightManager@@_N@Z 004a1450 f   shapeImage.obj
 0001:000a04e0       ?ejectShellCasing@ShapeBase@@MAEXI@Z 004a14e0 f   shapeImage.obj
 0001:000a0700       ??_GShapeBaseImageData@@UAEPAXI@Z 004a1700 f i shapeImage.obj
 0001:000a0700       ??_EShapeBaseImageData@@UAEPAXI@Z 004a1700 f i shapeImage.obj
 0001:000a0720       ?getCorrectedAim@ShapeBase@@QAE_NABVMatrixF@@PAVPoint3F@@@Z 004a1720 f   shapeImage.obj
 0001:000a0990       ?setImage@ShapeBase@@MAEXIPAUShapeBaseImageData@@AAVStringHandle@@_N222@Z 004a1990 f   shapeImage.obj
 0001:000a0c40       ?setImageTriggerState@ShapeBase@@QAEXI_N@Z 004a1c40 f   shapeImage.obj
 0001:000a0cd0       ??0?$ConcreteClassRep@UShapeBaseImageData@@@@QAE@PBDHHH@Z 004a1cd0 f i shapeImage.obj
 0001:000a0d50       ?init@?$ConcreteClassRep@UShapeBaseImageData@@@@UBEXXZ 004a1d50 f i shapeImage.obj
 0001:000a0d80       ??_E?$ConcreteClassRep@UShapeBaseImageData@@@@UAEPAXI@Z 004a1d80 f i shapeImage.obj
 0001:000a0d80       ??_G?$ConcreteClassRep@UShapeBaseImageData@@@@UAEPAXI@Z 004a1d80 f i shapeImage.obj
 0001:000a0da0       ?create@?$ConcreteClassRep@UShapeBaseImageData@@@@UBEPAVConsoleObject@@XZ 004a1da0 f i shapeImage.obj
 0001:000a0dd0       ?getMuzzleVector@ShapeBase@@UAEXIPAVPoint3F@@@Z 004a1dd0 f   shapeImage.obj
 0001:000a0e60       ?getRenderMuzzleVector@ShapeBase@@UAEXIPAVPoint3F@@@Z 004a1e60 f   shapeImage.obj
 0001:000a0ef0       ?setOrbit@@YAXPAVPoint3F@@M@Z 004a1ef0 f   showTSShape.obj
 0001:000a0f30       ?resetInstance@ShowTSShape@@QAEXXZ 004a1f30 f   showTSShape.obj
 0001:000a0f40       ?ShowRenderWorld@@YAXXZ    004a1f40 f   showTSShape.obj
 0001:000a0fa0       ?getClassRep@ShowTSCtrl@@UBEPAVAbstractClassRep@@XZ 004a1fa0 f   showTSShape.obj
 0001:000a0fb0       ?getStaticClassRep@ShowTSCtrl@@SAPAVAbstractClassRep@@XZ 004a1fb0 f   showTSShape.obj
 0001:000a0fc0       ?getParentStaticClassRep@ShowTSCtrl@@SAPAVAbstractClassRep@@XZ 004a1fc0 f   showTSShape.obj
 0001:000a0fd0       ?renderWorld@ShowTSCtrl@@UAEXABVRectI@@@Z 004a1fd0 f   showTSShape.obj
 0001:000a1050       ?size@?$ToolVector@UDetail@TSShape@@@@QBEIXZ 004a2050 f i showTSShape.obj
 0001:000a1060       ??0?$Vector@PAD@@QAE@PBDI@Z 004a2060 f i showTSShape.obj
 0001:000a1070       ??A?$Vector@M@@QAEAAMI@Z   004a2070 f i showTSShape.obj
 0001:000a1080       ??1?$Vector@_N@@QAE@XZ     004a2080 f i showTSShape.obj
 0001:000a1090       ??0Point4F@@QAE@MMMM@Z     004a2090 f i showTSShape.obj
 0001:000a10b0       ??A?$Vector@_N@@QAEAA_NI@Z 004a20b0 f i showTSShape.obj
 0001:000a10c0       ?empty@?$Vector@USequence@TSShape@@@@QBE_NXZ 004a20c0 f i showTSShape.obj
 0001:000a10d0       ??1?$Vector@PAVTSThread@@@@QAE@XZ 004a20d0 f i showTSShape.obj
 0001:000a10e0       ?size@?$Vector@PAVTSThread@@@@QBEHXZ 004a20e0 f i showTSShape.obj
 0001:000a10f0       ??A?$Vector@PAVTSThread@@@@QAEAAPAVTSThread@@I@Z 004a20f0 f i showTSShape.obj
 0001:000a1100       ?last@?$Vector@PAVTSThread@@@@QAEAAPAVTSThread@@XZ 004a2100 f i showTSShape.obj
 0001:000a1110       ??A?$Vector@UEntry@GuiTextListCtrl@@@@QAEAAUEntry@GuiTextListCtrl@@I@Z 004a2110 f i showTSShape.obj
 0001:000a1120       ?decrement@?$Vector@M@@QAEXI@Z 004a2120 f i showTSShape.obj
 0001:000a1140       ?decrement@?$Vector@_N@@QAEXI@Z 004a2140 f i showTSShape.obj
 0001:000a1160       ?resize@?$Vector@PAVTSThread@@@@IAE_NI@Z 004a2160 f i showTSShape.obj
 0001:000a1180       ?reserve@?$Vector@PAVTSThread@@@@QAEXI@Z 004a2180 f i showTSShape.obj
 0001:000a11b0       ?decrement@?$Vector@PAVTSThread@@@@QAEXI@Z 004a21b0 f i showTSShape.obj
 0001:000a11d0       ?setField@ConsoleObject@@QAE_NPBD0@Z 004a21d0 f i showTSShape.obj
 0001:000a1250       ?load@MaterialList@@QAE_NW4TextureHandleType@@PBD_N@Z 004a2250 f i showTSShape.obj
 0001:000a1270       ?isBlend@Sequence@TSShape@@QBE_NXZ 004a2270 f i showTSShape.obj
 0001:000a1280       ?getFeetPosition@ShowTSShape@@QAEXPAVPoint3F@@@Z 004a2280 f i showTSShape.obj
 0001:000a12b0       ?getThreadCount@ShowTSShape@@QAEHXZ 004a22b0 f i showTSShape.obj
 0001:000a12c0       ?getSequenceCount@ShowTSShape@@QAEHXZ 004a22c0 f i showTSShape.obj
 0001:000a12e0       ?getNumDetails@ShowTSShape@@QAEHXZ 004a22e0 f i showTSShape.obj
 0001:000a12f0       ?getCurrentDetail@ShowTSShape@@QAEHXZ 004a22f0 f i showTSShape.obj
 0001:000a1300       ?getAnimateRoot@ShowTSShape@@QAE_NXZ 004a2300 f i showTSShape.obj
 0001:000a1310       ?setAnimateRoot@ShowTSShape@@QAEX_N@Z 004a2310 f i showTSShape.obj
 0001:000a1320       ?getStickToGround@ShowTSShape@@QAE_NXZ 004a2320 f i showTSShape.obj
 0001:000a1330       ?setStickToGround@ShowTSShape@@QAEX_N@Z 004a2330 f i showTSShape.obj
 0001:000a1340       ?getShapeName@ShowTSShape@@QAEPBDXZ 004a2340 f i showTSShape.obj
 0001:000a1350       ?shapeLoaded@ShowTSShape@@QAE_NXZ 004a2350 f i showTSShape.obj
 0001:000a1360       ?deselectCells@GuiArrayCtrl@@QAEXXZ 004a2360 f i showTSShape.obj
 0001:000a1370       ?getValue@GuiSliderCtrl@@QAEMXZ 004a2370 f i showTSShape.obj
 0001:000a1380       ?setOrbit@@YAXPAVPoint3F@@_N@Z 004a2380 f   showTSShape.obj
 0001:000a1400       ?setDetailSlider@@YAXXZ    004a2400 f   showTSShape.obj
 0001:000a14b0       ??1ShowTSShape@@UAE@XZ     004a24b0 f   showTSShape.obj
 0001:000a1570       ?setPosition@ShowTSShape@@QAEXVPoint3F@@@Z 004a2570 f   showTSShape.obj
 0001:000a1630       ?orbitUs@ShowTSShape@@QAEXXZ 004a2630 f   showTSShape.obj
 0001:000a16c0       ?render@ShowTSShape@@QAEXXZ 004a26c0 f   showTSShape.obj
 0001:000a1b20       ??1?$ConcreteClassRep@VShowTSCtrl@@@@UAE@XZ 004a2b20 f i showTSShape.obj
 0001:000a1b40       ?onRender@ShowTSCtrl@@UAEXVPoint2I@@ABVRectI@@@Z 004a2b40 f   showTSShape.obj
 0001:000a1ca0       ?ShowInit@@YAXXZ           004a2ca0 f   showTSShape.obj
 0001:000a1e20       ??A?$Vector@M@@QAEAAMH@Z   004a2e20 f i showTSShape.obj
 0001:000a1e30       ??A?$Vector@_N@@QAEAA_NH@Z 004a2e30 f i showTSShape.obj
 0001:000a1e40       ??A?$Vector@PAVTSThread@@@@QAEAAPAVTSThread@@H@Z 004a2e40 f i showTSShape.obj
 0001:000a1e50       ??A?$Vector@UEntry@GuiTextListCtrl@@@@QAEAAUEntry@GuiTextListCtrl@@H@Z 004a2e50 f i showTSShape.obj
 0001:000a1e60       ?erase@?$Vector@M@@QAEXI@Z 004a2e60 f i showTSShape.obj
 0001:000a1ea0       ?erase@?$Vector@_N@@QAEXI@Z 004a2ea0 f i showTSShape.obj
 0001:000a1ee0       ??0?$Vector@PAVTSThread@@@@QAE@I@Z 004a2ee0 f i showTSShape.obj
 0001:000a1f30       ?erase@?$Vector@PAVTSThread@@@@QAEXI@Z 004a2f30 f i showTSShape.obj
 0001:000a1f70       ?increment@?$Vector@PAVTSThread@@@@QAEXI@Z 004a2f70 f i showTSShape.obj
 0001:000a1fa0       ?reserve@?$Vector@M@@QAEXI@Z 004a2fa0 f i showTSShape.obj
 0001:000a1fd0       ?reserve@?$Vector@_N@@QAEXI@Z 004a2fd0 f i showTSShape.obj
 0001:000a2000       ?getSequenceName@ShowTSShape@@QAEPBDH@Z 004a3000 f i showTSShape.obj
 0001:000a2030       ?getSequenceNum@ShowTSShape@@QAEHH@Z 004a3030 f i showTSShape.obj
 0001:000a2050       ?setSequence@ShowTSShape@@QAEXHH@Z 004a3050 f i showTSShape.obj
 0001:000a2090       ?transitionToSequence@ShowTSShape@@QAEXHHMM_N@Z 004a3090 f i showTSShape.obj
 0001:000a20b0       ?getPos@ShowTSShape@@QAEMH@Z 004a30b0 f i showTSShape.obj
 0001:000a20d0       ?setPos@ShowTSShape@@QAEXHM@Z 004a30d0 f i showTSShape.obj
 0001:000a2100       ?setPlay@ShowTSShape@@QAEXH_N@Z 004a3100 f i showTSShape.obj
 0001:000a2120       ?getPlay@ShowTSShape@@QAE_NH@Z 004a3120 f i showTSShape.obj
 0001:000a2130       ?isInTransition@ShowTSShape@@QAE_NH@Z 004a3130 f i showTSShape.obj
 0001:000a2150       ?isBlend@ShowTSShape@@QAE_NH@Z 004a3150 f i showTSShape.obj
 0001:000a2180       ?setThreadScale@ShowTSShape@@QAEXHM@Z 004a3180 f i showTSShape.obj
 0001:000a21a0       ?getThreadScale@ShowTSShape@@QAEMH@Z 004a31a0 f i showTSShape.obj
 0001:000a21b0       ?showUpdateThreadControl@@YAXXZ 004a31b0 f   showTSShape.obj
 0001:000a2580       ??_GShowTSShape@@UAEPAXI@Z 004a3580 f i showTSShape.obj
 0001:000a2580       ??_EShowTSShape@@UAEPAXI@Z 004a3580 f i showTSShape.obj
 0001:000a25a0       ?prepRenderImage@ShowTSShape@@MAE_NPAVSceneState@@II_N@Z 004a35a0 f   showTSShape.obj
 0001:000a2620       ?renderObject@ShowTSShape@@MAEXPAVSceneState@@PAVSceneRenderImage@@@Z 004a3620 f   showTSShape.obj
 0001:000a2700       ?onRemove@ShowTSShape@@UAEXXZ 004a3700 f   showTSShape.obj
 0001:000a2740       ?deleteThread@ShowTSShape@@QAEXH@Z 004a3740 f   showTSShape.obj
 0001:000a27e0       ?addGroundTransform@ShowTSShape@@QAEXABVMatrixF@@@Z 004a37e0 f   showTSShape.obj
 0001:000a2840       ?handleMovement@ShowTSShape@@SA_NMMMMMMM@Z 004a3840 f   showTSShape.obj
 0001:000a2e70       ?reset@ShowTSShape@@SAXXZ  004a3e70 f   showTSShape.obj
 0001:000a2eb0       ?advanceTimeInstance@ShowTSShape@@QAEXI@Z 004a3eb0 f   showTSShape.obj
 0001:000a2f60       ?ShowProcessCameraQuery@@YA_NPAUCameraQuery@@@Z 004a3f60 f   showTSShape.obj
 0001:000a3030       ?processCameraQuery@ShowTSCtrl@@UAE_NPAUCameraQuery@@@Z 004a4030 f   showTSShape.obj
 0001:000a3480       ??0?$Vector@M@@QAE@I@Z     004a4480 f i showTSShape.obj
 0001:000a34d0       ??0?$Vector@_N@@QAE@I@Z    004a44d0 f i showTSShape.obj
 0001:000a3520       ?newThread@ShowTSShape@@QAEXXZ 004a4520 f   showTSShape.obj
 0001:000a35f0       ?advanceTime@ShowTSShape@@SAXI@Z 004a45f0 f   showTSShape.obj
 0001:000a3c30       ??0?$ConcreteClassRep@VShowTSCtrl@@@@QAE@PBDHHH@Z 004a4c30 f i showTSShape.obj
 0001:000a3cb0       ?init@?$ConcreteClassRep@VShowTSCtrl@@@@UBEXXZ 004a4cb0 f i showTSShape.obj
 0001:000a3ce0       ??_E?$ConcreteClassRep@VShowTSCtrl@@@@UAEPAXI@Z 004a4ce0 f i showTSShape.obj
 0001:000a3ce0       ??_G?$ConcreteClassRep@VShowTSCtrl@@@@UAEPAXI@Z 004a4ce0 f i showTSShape.obj
 0001:000a3d00       ?create@?$ConcreteClassRep@VShowTSCtrl@@@@UBEPAVConsoleObject@@XZ 004a4d00 f i showTSShape.obj
 0001:000a3d30       ??0ShowTSCtrl@@QAE@XZ      004a4d30 f i showTSShape.obj
 0001:000a3d50       ??_EShowTSCtrl@@UAEPAXI@Z  004a4d50 f i showTSShape.obj
 0001:000a3d50       ??_GShowTSCtrl@@UAEPAXI@Z  004a4d50 f i showTSShape.obj
 0001:000a3d70       ??1ShowTSCtrl@@UAE@XZ      004a4d70 f i showTSShape.obj
 0001:000a3d80       ??0ShowTSShape@@QAE@PBD@Z  004a4d80 f   showTSShape.obj
 0001:000a41b0       ?onAdd@ShowTSShape@@UAE_NXZ 004a51b0 f   showTSShape.obj
 0001:000a42d0       ??1?$Vector@PAUTriangleMesh@Sphere@@@@QAE@XZ 004a52d0 f i sphere.obj
 0001:000a42e0       ?size@?$Vector@PAUTriangleMesh@Sphere@@@@QBEHXZ 004a52e0 f i sphere.obj
 0001:000a42f0       ??A?$Vector@PAUTriangleMesh@Sphere@@@@QAEAAPAUTriangleMesh@Sphere@@I@Z 004a52f0 f i sphere.obj
 0001:000a4300       ?last@?$Vector@PAUTriangleMesh@Sphere@@@@QAEAAPAUTriangleMesh@Sphere@@XZ 004a5300 f i sphere.obj
 0001:000a4310       ?resize@?$Vector@PAUTriangleMesh@Sphere@@@@IAE_NI@Z 004a5310 f i sphere.obj
 0001:000a4330       ?calcNormals@Sphere@@AAEXPAUTriangleMesh@1@@Z 004a5330 f   sphere.obj
 0001:000a43c0       ??1Sphere@@QAE@XZ          004a53c0 f   sphere.obj
 0001:000a4440       ??A?$Vector@PAUTriangleMesh@Sphere@@@@QAEAAPAUTriangleMesh@Sphere@@H@Z 004a5440 f i sphere.obj
 0001:000a4450       ?reserve@?$Vector@PAUTriangleMesh@Sphere@@@@QAEXI@Z 004a5450 f i sphere.obj
 0001:000a4480       ?increment@?$Vector@PAUTriangleMesh@Sphere@@@@QAEXI@Z 004a5480 f i sphere.obj
 0001:000a44b0       ??0Triangle@Sphere@@QAE@XZ 004a54b0 f i sphere.obj
 0001:000a44c0       ??0Triangle@Sphere@@QAE@VPoint3F@@00@Z 004a54c0 f i sphere.obj
 0001:000a4510       ?createTetrahedron@Sphere@@AAEPAUTriangleMesh@1@XZ 004a5510 f   sphere.obj
 0001:000a4840       ?createOctahedron@Sphere@@AAEPAUTriangleMesh@1@XZ 004a5840 f   sphere.obj
 0001:000a4e30       ?createIcosahedron@Sphere@@AAEPAUTriangleMesh@1@XZ 004a5e30 f   sphere.obj
 0001:000a5c50       ?subdivideMesh@Sphere@@AAEPAUTriangleMesh@1@PAU21@@Z 004a6c50 f   sphere.obj
 0001:000a5f00       ??0?$Vector@PAUTriangleMesh@Sphere@@@@QAE@I@Z 004a6f00 f i sphere.obj
 0001:000a5f50       ?push_back@?$Vector@PAUTriangleMesh@Sphere@@@@QAEXABQAUTriangleMesh@Sphere@@@Z 004a6f50 f i sphere.obj
 0001:000a5f90       ??0Sphere@@QAE@I@Z         004a6f90 f   sphere.obj
 0001:000a6080       ?getMesh@Sphere@@QAEPBUTriangleMesh@1@I@Z 004a7080 f   sphere.obj
 0001:000a6100       ?getClassRep@StaticShapeData@@UBEPAVAbstractClassRep@@XZ 004a7100 f   staticShape.obj
 0001:000a6110       ?getStaticClassRep@StaticShapeData@@SAPAVAbstractClassRep@@XZ 004a7110 f   staticShape.obj
 0001:000a6120       ?getParentStaticClassRep@StaticShapeData@@SAPAVAbstractClassRep@@XZ 004a7120 f   staticShape.obj
 0001:000a6130       ??0StaticShapeData@@QAE@XZ 004a7130 f   staticShape.obj
 0001:000a6170       ?initPersistFields@StaticShapeData@@SAXXZ 004a7170 f   staticShape.obj
 0001:000a61b0       ?getClassRep@StaticShape@@UBEPAVAbstractClassRep@@XZ 004a71b0 f   staticShape.obj
 0001:000a61c0       ?getStaticClassRep@StaticShape@@SAPAVAbstractClassRep@@XZ 004a71c0 f   staticShape.obj
 0001:000a61d0       ?getParentStaticClassRep@StaticShape@@SAPAVAbstractClassRep@@XZ 004a71d0 f   staticShape.obj
 0001:000a61e0       ??0StaticShape@@QAE@XZ     004a71e0 f   staticShape.obj
 0001:000a6210       ??1StaticShape@@UAE@XZ     004a7210 f   staticShape.obj
 0001:000a6220       ?onNewDataBlock@StaticShape@@UAE_NPAUGameBaseData@@@Z 004a7220 f   staticShape.obj
 0001:000a6270       ?onRemove@StaticShape@@UAEXXZ 004a7270 f   staticShape.obj
 0001:000a6290       ?setTransform@StaticShape@@UAEXABVMatrixF@@@Z 004a7290 f   staticShape.obj
 0001:000a62b0       ?onUnmount@StaticShape@@EAEXPAVShapeBase@@H@Z 004a72b0 f   staticShape.obj
 0001:000a62c0       ?setPowered@StaticShape@@QAEX_N@Z 004a72c0 f i staticShape.obj
 0001:000a62d0       ?isPowered@StaticShape@@QAE_NXZ 004a72d0 f i staticShape.obj
 0001:000a62e0       ??1?$ConcreteClassRep@UStaticShapeData@@@@UAE@XZ 004a72e0 f i staticShape.obj
 0001:000a6300       ??_GStaticShapeData@@UAEPAXI@Z 004a7300 f i staticShape.obj
 0001:000a6300       ??_EStaticShapeData@@UAEPAXI@Z 004a7300 f i staticShape.obj
 0001:000a6320       ??1StaticShapeData@@UAE@XZ 004a7320 f i staticShape.obj
 0001:000a6330       ?packData@StaticShapeData@@UAEXPAVBitStream@@@Z 004a7330 f   staticShape.obj
 0001:000a6370       ?unpackData@StaticShapeData@@UAEXPAVBitStream@@@Z 004a7370 f   staticShape.obj
 0001:000a63e0       ??1?$ConcreteClassRep@VStaticShape@@@@UAE@XZ 004a73e0 f i staticShape.obj
 0001:000a6400       ??_EStaticShape@@UAEPAXI@Z 004a7400 f i staticShape.obj
 0001:000a6400       ??_GStaticShape@@UAEPAXI@Z 004a7400 f i staticShape.obj
 0001:000a6420       ?onAdd@StaticShape@@UAE_NXZ 004a7420 f   staticShape.obj
 0001:000a6470       ?packUpdate@StaticShape@@UAEIPAVNetConnection@@IPAVBitStream@@@Z 004a7470 f   staticShape.obj
 0001:000a6520       ?processTick@StaticShape@@UAEXPBUMove@@@Z 004a7520 f   staticShape.obj
 0001:000a65a0       ?interpolateTick@StaticShape@@UAEXM@Z 004a75a0 f   staticShape.obj
 0001:000a6620       ?unpackUpdate@StaticShape@@UAEXPAVNetConnection@@PAVBitStream@@@Z 004a7620 f   staticShape.obj
 0001:000a6750       ??0?$ConcreteClassRep@UStaticShapeData@@@@QAE@PBDHHH@Z 004a7750 f i staticShape.obj
 0001:000a67d0       ?create@?$ConcreteClassRep@UStaticShapeData@@@@UBEPAVConsoleObject@@XZ 004a77d0 f i staticShape.obj
 0001:000a6800       ?init@?$ConcreteClassRep@UStaticShapeData@@@@UBEXXZ 004a7800 f i staticShape.obj
 0001:000a6860       ??_E?$ConcreteClassRep@UStaticShapeData@@@@UAEPAXI@Z 004a7860 f i staticShape.obj
 0001:000a6860       ??_G?$ConcreteClassRep@UStaticShapeData@@@@UAEPAXI@Z 004a7860 f i staticShape.obj
 0001:000a6880       ??0?$ConcreteClassRep@VStaticShape@@@@QAE@PBDHHH@Z 004a7880 f i staticShape.obj
 0001:000a6900       ?create@?$ConcreteClassRep@VStaticShape@@@@UBEPAVConsoleObject@@XZ 004a7900 f i staticShape.obj
 0001:000a6930       ?init@?$ConcreteClassRep@VStaticShape@@@@UBEXXZ 004a7930 f i staticShape.obj
 0001:000a6960       ??_G?$ConcreteClassRep@VStaticShape@@@@UAEPAXI@Z 004a7960 f i staticShape.obj
 0001:000a6960       ??_E?$ConcreteClassRep@VStaticShape@@@@UAEPAXI@Z 004a7960 f i staticShape.obj
 0001:000a6980       ?getClassRep@TriggerData@@UBEPAVAbstractClassRep@@XZ 004a7980 f   trigger.obj
 0001:000a6990       ?getStaticClassRep@TriggerData@@SAPAVAbstractClassRep@@XZ 004a7990 f   trigger.obj
 0001:000a69a0       ?getParentStaticClassRep@TriggerData@@SAPAVAbstractClassRep@@XZ 004a79a0 f   trigger.obj
 0001:000a69b0       ?onAdd@TriggerData@@UAE_NXZ 004a79b0 f   trigger.obj
 0001:000a69c0       ?initPersistFields@TriggerData@@SAXXZ 004a79c0 f   trigger.obj
 0001:000a69e0       ?getClassRep@Trigger@@UBEPAVAbstractClassRep@@XZ 004a79e0 f   trigger.obj
 0001:000a69f0       ?getStaticClassRep@Trigger@@SAPAVAbstractClassRep@@XZ 004a79f0 f   trigger.obj
 0001:000a6a00       ?getParentStaticClassRep@Trigger@@SAPAVAbstractClassRep@@XZ 004a7a00 f   trigger.obj
 0001:000a6a10       ?onRemove@Trigger@@MAEXXZ  004a7a10 f   trigger.obj
 0001:000a6a30       ?onNewDataBlock@Trigger@@MAE_NPAUGameBaseData@@@Z 004a7a30 f   trigger.obj
 0001:000a6a80       ??1?$Vector@PAVGameBase@@@@QAE@XZ 004a7a80 f i trigger.obj
 0001:000a6a90       ?size@?$Vector@PAVGameBase@@@@QBEHXZ 004a7a90 f i trigger.obj
 0001:000a6aa0       ??A?$Vector@PAVGameBase@@@@QAEAAPAVGameBase@@I@Z 004a7aa0 f i trigger.obj
 0001:000a6ab0       ??$findObject@VTrigger@@@Sim@@YA_NPBDAAPAVTrigger@@@Z 004a7ab0 f i trigger.obj
 0001:000a6af0       ?decrement@?$Vector@PAVGameBase@@@@QAEXI@Z 004a7af0 f i trigger.obj
 0001:000a6b10       ?resize@?$Vector@PAVGameBase@@@@IAE_NI@Z 004a7b10 f i trigger.obj
 0001:000a6b30       ?getNumTriggeringObjects@Trigger@@QBEIXZ 004a7b30 f i trigger.obj
 0001:000a6b40       ?getObject@Trigger@@QAEPAVGameBase@@I@Z 004a7b40 f i trigger.obj
 0001:000a6b90       ??1?$ConcreteClassRep@UTriggerData@@@@UAE@XZ 004a7b90 f i trigger.obj
 0001:000a6bb0       ?packData@TriggerData@@UAEXPAVBitStream@@@Z 004a7bb0 f   trigger.obj
 0001:000a6be0       ?unpackData@TriggerData@@UAEXPAVBitStream@@@Z 004a7be0 f   trigger.obj
 0001:000a6c10       ??1?$ConcreteClassRep@VTrigger@@@@UAE@XZ 004a7c10 f i trigger.obj
 0001:000a6c30       ??1Trigger@@UAE@XZ         004a7c30 f   trigger.obj
 0001:000a6cd0       ?onEditorEnable@Trigger@@MAEXXZ 004a7cd0 f   trigger.obj
 0001:000a6ce0       ?onEditorDisable@Trigger@@MAEXXZ 004a7ce0 f   trigger.obj
 0001:000a6cf0       ?testObject@Trigger@@IAE_NPAVGameBase@@@Z 004a7cf0 f   trigger.obj
 0001:000a6de0       ?renderObject@Trigger@@MAEXPAVSceneState@@PAVSceneRenderImage@@@Z 004a7de0 f   trigger.obj
 0001:000a6ea0       ?packUpdate@Trigger@@UAEIPAVNetConnection@@IPAVBitStream@@@Z 004a7ea0 f   trigger.obj
 0001:000a70d0       ??A?$Vector@PAVGameBase@@@@QAEAAPAVGameBase@@H@Z 004a80d0 f i trigger.obj
 0001:000a70e0       ?erase@?$Vector@PAVGameBase@@@@QAEXI@Z 004a80e0 f i trigger.obj
 0001:000a7120       ?reserve@?$Vector@PAVGameBase@@@@QAEXI@Z 004a8120 f i trigger.obj
 0001:000a7150       ?increment@?$Vector@PAVGameBase@@@@QAEXI@Z 004a8150 f i trigger.obj
 0001:000a7350       ??0TriggerData@@QAE@XZ     004a8350 f   trigger.obj
 0001:000a7370       ??_GTriggerData@@UAEPAXI@Z 004a8370 f i trigger.obj
 0001:000a7370       ??_ETriggerData@@UAEPAXI@Z 004a8370 f i trigger.obj
 0001:000a7390       ??1TriggerData@@UAE@XZ     004a8390 f i trigger.obj
 0001:000a73a0       ??_GTrigger@@UAEPAXI@Z     004a83a0 f i trigger.obj
 0001:000a73a0       ??_ETrigger@@UAEPAXI@Z     004a83a0 f i trigger.obj
 0001:000a7eb0       ?initPersistFields@Trigger@@SAXXZ 004a8eb0 f   trigger.obj
 0001:000a7ef0       ?onDeleteNotify@Trigger@@MAEXPAVSimObject@@@Z 004a8ef0 f   trigger.obj
 0001:000a7fd0       ?buildConvex@Trigger@@MAEXABVBox3F@@PAVConvex@@@Z 004a8fd0 f   trigger.obj
 0001:000a8170       ?setTransform@Trigger@@UAEXABVMatrixF@@@Z 004a9170 f   trigger.obj
 0001:000a82b0       ?processTick@Trigger@@MAEXPBUMove@@@Z 004a92b0 f   trigger.obj
 0001:000a83b0       ?prepRenderImage@Trigger@@MAE_NPAVSceneState@@II_N@Z 004a93b0 f   trigger.obj
 0001:000a8440       ??0?$Vector@PAVGameBase@@@@QAE@I@Z 004a9440 f i trigger.obj
 0001:000a8490       ?push_back@?$Vector@PAVGameBase@@@@QAEXABQAVGameBase@@@Z 004a9490 f i trigger.obj
 0001:000a8500       ??0Trigger@@QAE@XZ         004a9500 f   trigger.obj
 0001:000a86d0       ?setTriggerPolyhedron@Trigger@@QAEXABUPolyhedron@@@Z 004a96d0 f   trigger.obj
 0001:000a89c0       ?potentialEnterObject@Trigger@@QAEXPAVGameBase@@@Z 004a99c0 f   trigger.obj
 0001:000a8a60       ?unpackUpdate@Trigger@@UAEXPAVNetConnection@@PAVBitStream@@@Z 004a9a60 f   trigger.obj
 0001:000a8d10       ??0?$ConcreteClassRep@UTriggerData@@@@QAE@PBDHHH@Z 004a9d10 f i trigger.obj
 0001:000a8d90       ?init@?$ConcreteClassRep@UTriggerData@@@@UBEXXZ 004a9d90 f i trigger.obj
 0001:000a8dd0       ??_E?$ConcreteClassRep@UTriggerData@@@@UAEPAXI@Z 004a9dd0 f i trigger.obj
 0001:000a8dd0       ??_G?$ConcreteClassRep@UTriggerData@@@@UAEPAXI@Z 004a9dd0 f i trigger.obj
 0001:000a8df0       ?create@?$ConcreteClassRep@UTriggerData@@@@UBEPAVConsoleObject@@XZ 004a9df0 f i trigger.obj
 0001:000a8e20       ??0?$ConcreteClassRep@VTrigger@@@@QAE@PBDHHH@Z 004a9e20 f i trigger.obj
 0001:000a8ea0       ??_E?$ConcreteClassRep@VTrigger@@@@UAEPAXI@Z 004a9ea0 f i trigger.obj
 0001:000a8ea0       ??_G?$ConcreteClassRep@VTrigger@@@@UAEPAXI@Z 004a9ea0 f i trigger.obj
 0001:000a8ec0       ?init@?$ConcreteClassRep@VTrigger@@@@UBEXXZ 004a9ec0 f i trigger.obj
 0001:000a8f20       ?create@?$ConcreteClassRep@VTrigger@@@@UBEPAVConsoleObject@@XZ 004a9f20 f i trigger.obj
 0001:000a8f50       ?onAdd@Trigger@@MAE_NXZ    004a9f50 f   trigger.obj
 0001:000a8fe0       ?getClassRep@TSStatic@@UBEPAVAbstractClassRep@@XZ 004a9fe0 f   tsStatic.obj
 0001:000a8ff0       ?getStaticClassRep@TSStatic@@SAPAVAbstractClassRep@@XZ 004a9ff0 f   tsStatic.obj
 0001:000a9000       ?getParentStaticClassRep@TSStatic@@SAPAVAbstractClassRep@@XZ 004aa000 f   tsStatic.obj
 0001:000a9010       ?initPersistFields@TSStatic@@SAXXZ 004aa010 f   tsStatic.obj
 0001:000a9050       ?setTransform@TSStatic@@MAEXABVMatrixF@@@Z 004aa050 f   tsStatic.obj
 0001:000a9070       ??0TSStaticConvex@@QAE@XZ  004aa070 f i tsStatic.obj
 0001:000a9090       ?onRemove@TSStatic@@MAEXXZ 004aa090 f   tsStatic.obj
 0001:000a9100       ?renderShadow@TSStatic@@IAEXMM@Z 004aa100 f   tsStatic.obj
 0001:000a9380       ?packUpdate@TSStatic@@UAEIPAVNetConnection@@IPAVBitStream@@@Z 004aa380 f   tsStatic.obj
 0001:000a93e0       ?buildPolyList@TSStatic@@MAE_NPAVAbstractPolyList@@ABVBox3F@@ABVSphereF@@@Z 004aa3e0 f   tsStatic.obj
 0001:000a9460       ?getBoundingBox@TSStaticConvex@@UBE?AVBox3F@@XZ 004aa460 f   tsStatic.obj
 0001:000a9490       ?getBoundingBox@TSStaticConvex@@UBE?AVBox3F@@ABVMatrixF@@ABVPoint3F@@@Z 004aa490 f   tsStatic.obj
 0001:000a9540       ?support@TSStaticConvex@@UBE?AVPoint3F@@ABV2@@Z 004aa540 f   tsStatic.obj
 0001:000a96d0       ?getPolyList@TSStaticConvex@@UAEXPAVAbstractPolyList@@@Z 004aa6d0 f   tsStatic.obj
 0001:000a9730       ??_ETSStaticConvex@@UAEPAXI@Z 004aa730 f i tsStatic.obj
 0001:000a9730       ??_GTSStaticConvex@@UAEPAXI@Z 004aa730 f i tsStatic.obj
 0001:000a9750       ??1TSStaticConvex@@UAE@XZ  004aa750 f i tsStatic.obj
 0001:000a9760       ??1?$ConcreteClassRep@VTSStatic@@@@UAE@XZ 004aa760 f i tsStatic.obj
 0001:000a9780       ??0TSStatic@@QAE@XZ        004aa780 f   tsStatic.obj
 0001:000a98a0       ??1TSStatic@@UAE@XZ        004aa8a0 f   tsStatic.obj
 0001:000a9950       ?onAdd@TSStatic@@MAE_NXZ   004aa950 f   tsStatic.obj
 0001:000a9b60       ?prepRenderImage@TSStatic@@MAE_NPAVSceneState@@II_N@Z 004aab60 f   tsStatic.obj
 0001:000a9d60       ?renderObject@TSStatic@@MAEXPAVSceneState@@PAVSceneRenderImage@@@Z 004aad60 f   tsStatic.obj
 0001:000aa300       ?unpackUpdate@TSStatic@@UAEXPAVNetConnection@@PAVBitStream@@@Z 004ab300 f   tsStatic.obj
 0001:000aa360       ?findNodeTransform@TSStaticConvex@@QAEXXZ 004ab360 f   tsStatic.obj
 0001:000aa3d0       ?getTransform@TSStaticConvex@@UBEABVMatrixF@@XZ 004ab3d0 f   tsStatic.obj
 0001:000aa420       ?getFeatures@TSStaticConvex@@UAEXABVMatrixF@@ABVPoint3F@@PAVConvexFeature@@@Z 004ab420 f   tsStatic.obj
 0001:000aa800       ??_ETSStatic@@UAEPAXI@Z    004ab800 f i tsStatic.obj
 0001:000aa800       ??_GTSStatic@@UAEPAXI@Z    004ab800 f i tsStatic.obj
 0001:000aa820       ?castRay@TSStatic@@MAE_NABVPoint3F@@0PAURayInfo@@@Z 004ab820 f   tsStatic.obj
 0001:000aa8f0       ?buildConvex@TSStatic@@MAEXABVBox3F@@PAVConvex@@@Z 004ab8f0 f   tsStatic.obj
 0001:000aaad0       ??0?$ConcreteClassRep@VTSStatic@@@@QAE@PBDHHH@Z 004abad0 f i tsStatic.obj
 0001:000aab50       ?init@?$ConcreteClassRep@VTSStatic@@@@UBEXXZ 004abb50 f i tsStatic.obj
 0001:000aabb0       ?create@?$ConcreteClassRep@VTSStatic@@@@UBEPAVConsoleObject@@XZ 004abbb0 f i tsStatic.obj
 0001:000aabe0       ??_E?$ConcreteClassRep@VTSStatic@@@@UAEPAXI@Z 004abbe0 f i tsStatic.obj
 0001:000aabe0       ??_G?$ConcreteClassRep@VTSStatic@@@@UAEPAXI@Z 004abbe0 f i tsStatic.obj
 0001:000aac00       ?getVersionNumber@@YAIXZ   004abc00 f   version.obj
 0001:000aac10       ?getVersionString@@YAPBDXZ 004abc10 f   version.obj
 0001:000aac40       ?getCompileTimeString@@YAPBDXZ 004abc40 f   version.obj
 0001:000aac50       ?getClassRep@GuiClockHud@@UBEPAVAbstractClassRep@@XZ 004abc50 f   guiClockHud.obj
 0001:000aac60       ?getStaticClassRep@GuiClockHud@@SAPAVAbstractClassRep@@XZ 004abc60 f   guiClockHud.obj
 0001:000aac70       ?getParentStaticClassRep@GuiClockHud@@SAPAVAbstractClassRep@@XZ 004abc70 f   guiClockHud.obj
 0001:000aac80       ?initPersistFields@GuiClockHud@@SAXXZ 004abc80 f   guiClockHud.obj
 0001:000aad20       ?setTime@GuiClockHud@@QAEXM@Z 004abd20 f   guiClockHud.obj
 0001:000aad50       ?getTime@GuiClockHud@@QAEMXZ 004abd50 f   guiClockHud.obj
 0001:000aadf0       ??1?$ConcreteClassRep@VGuiClockHud@@@@UAE@XZ 004abdf0 f i guiClockHud.obj
 0001:000aae10       ??0GuiClockHud@@QAE@XZ     004abe10 f   guiClockHud.obj
 0001:000aae90       ??_EGuiClockHud@@UAEPAXI@Z 004abe90 f i guiClockHud.obj
 0001:000aae90       ??_GGuiClockHud@@UAEPAXI@Z 004abe90 f i guiClockHud.obj
 0001:000aaeb0       ??1GuiClockHud@@UAE@XZ     004abeb0 f i guiClockHud.obj
 0001:000aaec0       ?onRender@GuiClockHud@@UAEXVPoint2I@@ABVRectI@@@Z 004abec0 f   guiClockHud.obj
 0001:000ab0c0       ??0?$ConcreteClassRep@VGuiClockHud@@@@QAE@PBDHHH@Z 004ac0c0 f i guiClockHud.obj
 0001:000ab140       ?init@?$ConcreteClassRep@VGuiClockHud@@@@UBEXXZ 004ac140 f i guiClockHud.obj
 0001:000ab170       ?create@?$ConcreteClassRep@VGuiClockHud@@@@UBEPAVConsoleObject@@XZ 004ac170 f i guiClockHud.obj
 0001:000ab1a0       ??_G?$ConcreteClassRep@VGuiClockHud@@@@UAEPAXI@Z 004ac1a0 f i guiClockHud.obj
 0001:000ab1a0       ??_E?$ConcreteClassRep@VGuiClockHud@@@@UAEPAXI@Z 004ac1a0 f i guiClockHud.obj
 0001:000ab1c0       ?getClassRep@GuiCrossHairHud@@UBEPAVAbstractClassRep@@XZ 004ac1c0 f   guiCrossHairHud.obj
 0001:000ab1d0       ?getStaticClassRep@GuiCrossHairHud@@SAPAVAbstractClassRep@@XZ 004ac1d0 f   guiCrossHairHud.obj
 0001:000ab1e0       ?getParentStaticClassRep@GuiCrossHairHud@@SAPAVAbstractClassRep@@XZ 004ac1e0 f   guiCrossHairHud.obj
 0001:000ab1f0       ?initPersistFields@GuiCrossHairHud@@SAXXZ 004ac1f0 f   guiCrossHairHud.obj
 0001:000ab270       ??HPoint2I@@QBE?AV0@ABV0@@Z 004ac270 f i guiCrossHairHud.obj
 0001:000ab290       ?getVisibleDistance@SceneGraph@@QAEMXZ 004ac290 f i guiCrossHairHud.obj
 0001:000ab2a0       ??1?$ConcreteClassRep@VGuiCrossHairHud@@@@UAE@XZ 004ac2a0 f i guiCrossHairHud.obj
 0001:000ab2c0       ?drawDamage@GuiCrossHairHud@@IAEXVPoint2I@@MM@Z 004ac2c0 f   guiCrossHairHud.obj
 0001:000ab3f0       ??0GuiCrossHairHud@@QAE@XZ 004ac3f0 f   guiCrossHairHud.obj
 0001:000ab470       ??_EGuiCrossHairHud@@UAEPAXI@Z 004ac470 f i guiCrossHairHud.obj
 0001:000ab470       ??_GGuiCrossHairHud@@UAEPAXI@Z 004ac470 f i guiCrossHairHud.obj
 0001:000ab490       ??1GuiCrossHairHud@@UAE@XZ 004ac490 f i guiCrossHairHud.obj
 0001:000ab4a0       ?onRender@GuiCrossHairHud@@UAEXVPoint2I@@ABVRectI@@@Z 004ac4a0 f   guiCrossHairHud.obj
 0001:000ab690       ??0?$ConcreteClassRep@VGuiCrossHairHud@@@@QAE@PBDHHH@Z 004ac690 f i guiCrossHairHud.obj
 0001:000ab710       ?init@?$ConcreteClassRep@VGuiCrossHairHud@@@@UBEXXZ 004ac710 f i guiCrossHairHud.obj
 0001:000ab740       ??_E?$ConcreteClassRep@VGuiCrossHairHud@@@@UAEPAXI@Z 004ac740 f i guiCrossHairHud.obj
 0001:000ab740       ??_G?$ConcreteClassRep@VGuiCrossHairHud@@@@UAEPAXI@Z 004ac740 f i guiCrossHairHud.obj
 0001:000ab760       ?create@?$ConcreteClassRep@VGuiCrossHairHud@@@@UBEPAVConsoleObject@@XZ 004ac760 f i guiCrossHairHud.obj
 0001:000ab790       ?getClassRep@GuiHealthBarHud@@UBEPAVAbstractClassRep@@XZ 004ac790 f   guiHealthBarHud.obj
 0001:000ab7a0       ?getStaticClassRep@GuiHealthBarHud@@SAPAVAbstractClassRep@@XZ 004ac7a0 f   guiHealthBarHud.obj
 0001:000ab7b0       ?getParentStaticClassRep@GuiHealthBarHud@@SAPAVAbstractClassRep@@XZ 004ac7b0 f   guiHealthBarHud.obj
 0001:000ab7c0       ?initPersistFields@GuiHealthBarHud@@SAXXZ 004ac7c0 f   guiHealthBarHud.obj
 0001:000ab8f0       ??1?$ConcreteClassRep@VGuiHealthBarHud@@@@UAE@XZ 004ac8f0 f i guiHealthBarHud.obj
 0001:000ab910       ??0GuiHealthBarHud@@QAE@XZ 004ac910 f   guiHealthBarHud.obj
 0001:000ab9b0       ??_EGuiHealthBarHud@@UAEPAXI@Z 004ac9b0 f i guiHealthBarHud.obj
 0001:000ab9b0       ??_GGuiHealthBarHud@@UAEPAXI@Z 004ac9b0 f i guiHealthBarHud.obj
 0001:000ab9d0       ??1GuiHealthBarHud@@UAE@XZ 004ac9d0 f i guiHealthBarHud.obj
 0001:000ab9e0       ?onRender@GuiHealthBarHud@@UAEXVPoint2I@@ABVRectI@@@Z 004ac9e0 f   guiHealthBarHud.obj
 0001:000abbe0       ??0?$ConcreteClassRep@VGuiHealthBarHud@@@@QAE@PBDHHH@Z 004acbe0 f i guiHealthBarHud.obj
 0001:000abc60       ?init@?$ConcreteClassRep@VGuiHealthBarHud@@@@UBEXXZ 004acc60 f i guiHealthBarHud.obj
 0001:000abc90       ?create@?$ConcreteClassRep@VGuiHealthBarHud@@@@UBEPAVConsoleObject@@XZ 004acc90 f i guiHealthBarHud.obj
 0001:000abcc0       ??_G?$ConcreteClassRep@VGuiHealthBarHud@@@@UAEPAXI@Z 004accc0 f i guiHealthBarHud.obj
 0001:000abcc0       ??_E?$ConcreteClassRep@VGuiHealthBarHud@@@@UAEPAXI@Z 004accc0 f i guiHealthBarHud.obj
 0001:000abce0       ?getClassRep@GuiShapeNameHud@@UBEPAVAbstractClassRep@@XZ 004acce0 f   guiShapeNameHud.obj
 0001:000abcf0       ?getStaticClassRep@GuiShapeNameHud@@SAPAVAbstractClassRep@@XZ 004accf0 f   guiShapeNameHud.obj
 0001:000abd00       ?getParentStaticClassRep@GuiShapeNameHud@@SAPAVAbstractClassRep@@XZ 004acd00 f   guiShapeNameHud.obj
 0001:000abd10       ?initPersistFields@GuiShapeNameHud@@SAXXZ 004acd10 f   guiShapeNameHud.obj
 0001:000abdf0       ??1?$ConcreteClassRep@VGuiShapeNameHud@@@@UAE@XZ 004acdf0 f i guiShapeNameHud.obj
 0001:000abe10       ??0GuiShapeNameHud@@QAE@XZ 004ace10 f   guiShapeNameHud.obj
 0001:000abea0       ??_GGuiShapeNameHud@@UAEPAXI@Z 004acea0 f i guiShapeNameHud.obj
 0001:000abea0       ??_EGuiShapeNameHud@@UAEPAXI@Z 004acea0 f i guiShapeNameHud.obj
 0001:000abec0       ??1GuiShapeNameHud@@UAE@XZ 004acec0 f i guiShapeNameHud.obj
 0001:000abed0       ?drawName@GuiShapeNameHud@@IAEXVPoint2I@@PBDM@Z 004aced0 f   guiShapeNameHud.obj
 0001:000abf60       ?onRender@GuiShapeNameHud@@UAEXVPoint2I@@ABVRectI@@@Z 004acf60 f   guiShapeNameHud.obj
 0001:000ac3c0       ??0?$ConcreteClassRep@VGuiShapeNameHud@@@@QAE@PBDHHH@Z 004ad3c0 f i guiShapeNameHud.obj
 0001:000ac440       ?init@?$ConcreteClassRep@VGuiShapeNameHud@@@@UBEXXZ 004ad440 f i guiShapeNameHud.obj
 0001:000ac470       ?create@?$ConcreteClassRep@VGuiShapeNameHud@@@@UBEPAVConsoleObject@@XZ 004ad470 f i guiShapeNameHud.obj
 0001:000ac4a0       ??_E?$ConcreteClassRep@VGuiShapeNameHud@@@@UAEPAXI@Z 004ad4a0 f i guiShapeNameHud.obj
 0001:000ac4a0       ??_G?$ConcreteClassRep@VGuiShapeNameHud@@@@UAEPAXI@Z 004ad4a0 f i guiShapeNameHud.obj
 0001:000ac4c0       ?update@CameraFX@@UAEXM@Z  004ad4c0 f   cameraFXMgr.obj
 0001:000ac4d0       ?reset@?$LList@PAVCameraFX@@@@QAEXXZ 004ad4d0 f i cameraFXMgr.obj
 0001:000ac4e0       ?first@?$LList@PAVCameraFX@@@@QBEPAPAVCameraFX@@XZ 004ad4e0 f i cameraFXMgr.obj
 0001:000ac4f0       ?last@?$LList@PAVCameraFX@@@@QBEPAPAVCameraFX@@XZ 004ad4f0 f i cameraFXMgr.obj
 0001:000ac500       ?iterate@?$LList@PAVCameraFX@@@@QAEPAV?$LListNode@PAVCameraFX@@@@PAV2@@Z 004ad500 f i cameraFXMgr.obj
 0001:000ac520       ??0?$LListNode@PAVCameraFX@@@@QAE@XZ 004ad520 f i cameraFXMgr.obj
 0001:000ac530       ?zero@Point3F@@QAEXXZ      004ad530 f i cameraFXMgr.obj
 0001:000ac540       ?randF@MRandomGenerator@@UAEMXZ 004ad540 f i cameraFXMgr.obj
 0001:000ac560       ?getTrans@CameraFX@@QAEAAVMatrixF@@XZ 004ad560 f i cameraFXMgr.obj
 0001:000ac570       ?isExpired@CameraFX@@QAE_NXZ 004ad570 f i cameraFXMgr.obj
 0001:000ac590       ?fadeAmplitude@CameraShake@@QAEXXZ 004ad590 f   cameraFXMgr.obj
 0001:000ac600       ?init@CameraShake@@QAEXXZ  004ad600 f   cameraFXMgr.obj
 0001:000ac660       ??0?$LList@PAVCameraFX@@@@QAE@XZ 004ad660 f i cameraFXMgr.obj
 0001:000ac670       ?findNode@?$LList@PAVCameraFX@@@@QAEPAV?$LListNode@PAVCameraFX@@@@PAPAVCameraFX@@@Z 004ad670 f i cameraFXMgr.obj
 0001:000ac6a0       ??0CameraFX@@QAE@XZ        004ad6a0 f   cameraFXMgr.obj
 0001:000ac6c0       ??0CameraShake@@QAE@XZ     004ad6c0 f   cameraFXMgr.obj
 0001:000ac740       ?update@CameraShake@@UAEXM@Z 004ad740 f   cameraFXMgr.obj
 0001:000ac810       ??0CameraFXManager@@QAE@XZ 004ad810 f   cameraFXMgr.obj
 0001:000ac860       ?next@?$LList@PAVCameraFX@@@@QAEPAPAVCameraFX@@PAPAV2@@Z 004ad860 f i cameraFXMgr.obj
 0001:000ac8a0       ?prev@?$LList@PAVCameraFX@@@@QAEPAPAVCameraFX@@PAPAV2@@Z 004ad8a0 f i cameraFXMgr.obj
 0001:000ac8e0       ?link@?$LList@PAVCameraFX@@@@QAEPAPAVCameraFX@@PAPAV2@0@Z 004ad8e0 f i cameraFXMgr.obj
 0001:000ac980       ?unlink@?$LList@PAVCameraFX@@@@QAEXPAPAVCameraFX@@@Z 004ad980 f i cameraFXMgr.obj
 0001:000ac9f0       ?link@?$LList@PAVCameraFX@@@@QAEPAPAVCameraFX@@AAPAV2@PAPAV2@@Z 004ad9f0 f i cameraFXMgr.obj
 0001:000aca20       ?free@?$LList@PAVCameraFX@@@@QAEXPAPAVCameraFX@@@Z 004ada20 f i cameraFXMgr.obj
 0001:000aca40       ?free@?$LList@PAVCameraFX@@@@QAEXXZ 004ada40 f i cameraFXMgr.obj
 0001:000aca80       ?addFX@CameraFXManager@@QAEXPAVCameraFX@@@Z 004ada80 f   cameraFXMgr.obj
 0001:000acab0       ?clear@CameraFXManager@@QAEXXZ 004adab0 f   cameraFXMgr.obj
 0001:000acac0       ?update@CameraFXManager@@QAEXM@Z 004adac0 f   cameraFXMgr.obj
 0001:000acc20       ??1CameraFXManager@@QAE@XZ 004adc20 f   cameraFXMgr.obj
 0001:000acc30       ?getClassRep@Explosion@@UBEPAVAbstractClassRep@@XZ 004adc30 f   explosion.obj
 0001:000acc40       ?getStaticClassRep@Explosion@@SAPAVAbstractClassRep@@XZ 004adc40 f   explosion.obj
 0001:000acc50       ?getParentStaticClassRep@Explosion@@SAPAVAbstractClassRep@@XZ 004adc50 f   explosion.obj
 0001:000acc60       ?getClassRep@ExplosionData@@UBEPAVAbstractClassRep@@XZ 004adc60 f   explosion.obj
 0001:000acc70       ?getStaticClassRep@ExplosionData@@SAPAVAbstractClassRep@@XZ 004adc70 f   explosion.obj
 0001:000acc80       ?getParentStaticClassRep@ExplosionData@@SAPAVAbstractClassRep@@XZ 004adc80 f   explosion.obj
 0001:000acc90       ??1Explosion@@UAE@XZ       004adc90 f   explosion.obj
 0001:000acd10       ?setInitialState@Explosion@@QAEXABVPoint3F@@0M@Z 004add10 f   explosion.obj
 0001:000acd50       ?initPersistFields@Explosion@@SAXXZ 004add50 f   explosion.obj
 0001:000acd60       ?onNewDataBlock@Explosion@@UAE_NPAUGameBaseData@@@Z 004add60 f   explosion.obj
 0001:000acdb0       ??$findObject@VSceneObject@@@Sim@@YA_NIAAPAVSceneObject@@@Z 004addb0 f i explosion.obj
 0001:000acdf0       ??$findObject@VExplosionData@@@Sim@@YA_NPBDAAPAVExplosionData@@@Z 004addf0 f i explosion.obj
 0001:000ace30       ??HColorF@@QBE?AV0@ABV0@@Z 004ade30 f i explosion.obj
 0001:000ace60       ??GColorF@@QBE?AV0@ABV0@@Z 004ade60 f i explosion.obj
 0001:000ace90       ?setDataTypeDataBlockPtrExplosionData@@YAXPAXHPAPBDPAUEnumTable@@VBitSet32@@@Z 004ade90 f   explosion.obj
 0001:000acef0       ?getDataTypeDataBlockPtrExplosionData@@YAPBDPAXPAUEnumTable@@VBitSet32@@@Z 004adef0 f   explosion.obj
 0001:000acf10       ?onAdd@ExplosionData@@UAE_NXZ 004adf10 f   explosion.obj
 0001:000ad3d0       ?packData@ExplosionData@@UAEXPAVBitStream@@@Z 004ae3d0 f   explosion.obj
 0001:000ada30       ?unpackData@ExplosionData@@UAEXPAVBitStream@@@Z 004aea30 f   explosion.obj
 0001:000ae220       ??_GExplosion@@UAEPAXI@Z   004af220 f i explosion.obj
 0001:000ae220       ??_EExplosion@@UAEPAXI@Z   004af220 f i explosion.obj
 0001:000ae240       ?onRemove@Explosion@@MAEXXZ 004af240 f   explosion.obj
 0001:000ae2a0       ?setCurrentScale@Explosion@@IAEXXZ 004af2a0 f   explosion.obj
 0001:000ae3a0       ?registerLights@Explosion@@MAEXPAVLightManager@@_N@Z 004af3a0 f   explosion.obj
 0001:000ae4f0       ?updateEmitters@Explosion@@IAEXM@Z 004af4f0 f   explosion.obj
 0001:000ae570       ?launchDebris@Explosion@@IAEXAAVPoint3F@@@Z 004af570 f   explosion.obj
 0001:000ae7c0       ??1?$ConcreteClassRep@VExplosion@@@@UAE@XZ 004af7c0 f i explosion.obj
 0001:000ae7e0       ??1?$ConcreteClassRep@VExplosionData@@@@UAE@XZ 004af7e0 f i explosion.obj
 0001:000ae800       ??0ExplosionData@@QAE@XZ   004af800 f   explosion.obj
 0001:000aea30       ?initPersistFields@ExplosionData@@SAXXZ 004afa30 f   explosion.obj
 0001:000aedf0       ?preload@ExplosionData@@UAE_N_NQAD@Z 004afdf0 f   explosion.obj
 0001:000aef00       ??0Explosion@@QAE@XZ       004aff00 f   explosion.obj
 0001:000aefd0       ?prepRenderImage@Explosion@@MAE_NPAVSceneState@@II_N@Z 004affd0 f   explosion.obj
 0001:000af100       ?prepModelView@Explosion@@IAEXPAVSceneState@@@Z 004b0100 f   explosion.obj
 0001:000af2e0       ?renderObject@Explosion@@MAEXPAVSceneState@@PAVSceneRenderImage@@@Z 004b02e0 f   explosion.obj
 0001:000af450       ?advanceTime@Explosion@@MAEXM@Z 004b0450 f   explosion.obj
 0001:000af4a0       ?spawnSubExplosions@Explosion@@IAEXXZ 004b04a0 f   explosion.obj
 0001:000af5b0       ?explode@Explosion@@IAE_NXZ 004b05b0 f   explosion.obj
 0001:000afa90       ??_GExplosionData@@UAEPAXI@Z 004b0a90 f i explosion.obj
 0001:000afa90       ??_EExplosionData@@UAEPAXI@Z 004b0a90 f i explosion.obj
 0001:000afab0       ??1ExplosionData@@UAE@XZ   004b0ab0 f i explosion.obj
 0001:000afb10       ?onAdd@Explosion@@MAE_NXZ  004b0b10 f   explosion.obj
 0001:000aff70       ?processTick@Explosion@@MAEXPBUMove@@@Z 004b0f70 f   explosion.obj
 0001:000affc0       ??0?$ConcreteClassRep@VExplosionData@@@@QAE@PBDHHH@Z 004b0fc0 f i explosion.obj
 0001:000b0040       ?init@?$ConcreteClassRep@VExplosionData@@@@UBEXXZ 004b1040 f i explosion.obj
 0001:000b0070       ?create@?$ConcreteClassRep@VExplosionData@@@@UBEPAVConsoleObject@@XZ 004b1070 f i explosion.obj
 0001:000b00a0       ??_G?$ConcreteClassRep@VExplosionData@@@@UAEPAXI@Z 004b10a0 f i explosion.obj
 0001:000b00a0       ??_E?$ConcreteClassRep@VExplosionData@@@@UAEPAXI@Z 004b10a0 f i explosion.obj
 0001:000b00c0       ??0?$ConcreteClassRep@VExplosion@@@@QAE@PBDHHH@Z 004b10c0 f i explosion.obj
 0001:000b0140       ?init@?$ConcreteClassRep@VExplosion@@@@UBEXXZ 004b1140 f i explosion.obj
 0001:000b0170       ?create@?$ConcreteClassRep@VExplosion@@@@UBEPAVConsoleObject@@XZ 004b1170 f i explosion.obj
 0001:000b01a0       ??_G?$ConcreteClassRep@VExplosion@@@@UAEPAXI@Z 004b11a0 f i explosion.obj
 0001:000b01a0       ??_E?$ConcreteClassRep@VExplosion@@@@UAEPAXI@Z 004b11a0 f i explosion.obj
 0001:000b01c0       ?getClassRep@fxFoliageReplicator@@UBEPAVAbstractClassRep@@XZ 004b11c0 f   fxFoliageReplicator.obj
 0001:000b01d0       ?getStaticClassRep@fxFoliageReplicator@@SAPAVAbstractClassRep@@XZ 004b11d0 f   fxFoliageReplicator.obj
 0001:000b01e0       ?getParentStaticClassRep@fxFoliageReplicator@@SAPAVAbstractClassRep@@XZ 004b11e0 f   fxFoliageReplicator.obj
 0001:000b01f0       ?initPersistFields@fxFoliageReplicator@@SAXXZ 004b11f0 f   fxFoliageReplicator.obj
 0001:000b0710       _logf                      004b1710 f i fxFoliageReplicator.obj
 0001:000b0720       ?log@@YAMM@Z               004b1720 f i fxFoliageReplicator.obj
 0001:000b0730       ?mLog@@YAMM@Z              004b1730 f i fxFoliageReplicator.obj
 0001:000b0740       ?inspectPostApply@fxFoliageReplicator@@UAEXXZ 004b1740 f   fxFoliageReplicator.obj
 0001:000b0760       ?onEditorEnable@fxFoliageReplicator@@UAEXXZ 004b1760 f   fxFoliageReplicator.obj
 0001:000b0770       ?onEditorDisable@fxFoliageReplicator@@UAEXXZ 004b1770 f   fxFoliageReplicator.obj
 0001:000b0780       ?packUpdate@fxFoliageReplicator@@UAEIPAVNetConnection@@IPAVBitStream@@@Z 004b1780 f   fxFoliageReplicator.obj
 0001:000b0be0       ?set@Point3F@@QAEXABV1@@Z  004b1be0 f i fxFoliageReplicator.obj
 0001:000b0c00       ??0Point4F@@QAE@XZ         004b1c00 f i fxFoliageReplicator.obj
 0001:000b0c10       ??1?$Vector@PAVfxFoliageItem@@@@QAE@XZ 004b1c10 f i fxFoliageReplicator.obj
 0001:000b0c20       ?size@?$Vector@PAVfxFoliageItem@@@@QBEHXZ 004b1c20 f i fxFoliageReplicator.obj
 0001:000b0c30       ??A?$Vector@PAVfxFoliageItem@@@@QAEAAPAVfxFoliageItem@@I@Z 004b1c30 f i fxFoliageReplicator.obj
 0001:000b0c40       ?clear@?$Vector@PAVfxFoliageItem@@@@QAEXXZ 004b1c40 f i fxFoliageReplicator.obj
 0001:000b0c50       ??1?$Vector@PAVfxFoliageQuadrantNode@@@@QAE@XZ 004b1c50 f i fxFoliageReplicator.obj
 0001:000b0c60       ?begin@?$Vector@PAVfxFoliageQuadrantNode@@@@QAEPAPAVfxFoliageQuadrantNode@@XZ 004b1c60 f i fxFoliageReplicator.obj
 0001:000b0c70       ?end@?$Vector@PAVfxFoliageQuadrantNode@@@@QAEPAPAVfxFoliageQuadrantNode@@XZ 004b1c70 f i fxFoliageReplicator.obj
 0001:000b0c80       ??A?$Vector@PAVfxFoliageQuadrantNode@@@@QAEAAPAVfxFoliageQuadrantNode@@I@Z 004b1c80 f i fxFoliageReplicator.obj
 0001:000b0c90       ?clear@?$Vector@PAVfxFoliageQuadrantNode@@@@QAEXXZ 004b1c90 f i fxFoliageReplicator.obj
 0001:000b0ca0       ?resize@?$Vector@PAVfxFoliageItem@@@@IAE_NI@Z 004b1ca0 f i fxFoliageReplicator.obj
 0001:000b0cc0       ?reserve@?$Vector@PAVfxFoliageItem@@@@QAEXI@Z 004b1cc0 f i fxFoliageReplicator.obj
 0001:000b0cf0       ?address@?$Vector@PAVfxFoliageItem@@@@QBEPAPAVfxFoliageItem@@XZ 004b1cf0 f i fxFoliageReplicator.obj
 0001:000b0d00       ?increment@?$Vector@PAVfxFoliageItem@@@@QAEXI@Z 004b1d00 f i fxFoliageReplicator.obj
 0001:000b0d30       ?resize@?$Vector@PAVfxFoliageQuadrantNode@@@@IAE_NI@Z 004b1d30 f i fxFoliageReplicator.obj
 0001:000b0d50       ?whichSideBox@PlaneF@@QBE?AW4Side@1@ABVPoint3F@@0000@Z 004b1d50 f i fxFoliageReplicator.obj
 0001:000b0e00       ?setColumn@MatrixF@@QAEXHABVPoint4F@@@Z 004b1e00 f i fxFoliageReplicator.obj
 0001:000b0e30       ?getNearPlane@SceneState@@QBENXZ 004b1e30 f i fxFoliageReplicator.obj
 0001:000b0e40       ?getFarPlane@SceneState@@QBENXZ 004b1e40 f i fxFoliageReplicator.obj
 0001:000b0e50       ?getVisibleDistance@SceneState@@QAEMXZ 004b1e50 f i fxFoliageReplicator.obj
 0001:000b0e60       ?getBaseZoneState@SceneState@@QBEABUZoneState@1@XZ 004b1e60 f i fxFoliageReplicator.obj
 0001:000b0e70       ??1fxFoliageCulledList@@QAE@XZ 004b1e70 f i fxFoliageReplicator.obj
 0001:000b0e80       ?GetListCount@fxFoliageCulledList@@QAEIXZ 004b1e80 f i fxFoliageReplicator.obj
 0001:000b0e90       ?GetElement@fxFoliageCulledList@@QAEPAVfxFoliageItem@@I@Z 004b1e90 f i fxFoliageReplicator.obj
 0001:000b0ea0       ??0tagFieldData@fxFoliageReplicator@@QAE@XZ 004b1ea0 f i fxFoliageReplicator.obj
 0001:000b1030       ??1?$ConcreteClassRep@VfxFoliageReplicator@@@@UAE@XZ 004b2030 f i fxFoliageReplicator.obj
 0001:000b1050       ?SetupClipPlanes@fxFoliageRenderList@@QAEXPAVSceneState@@M@Z 004b2050 f   fxFoliageReplicator.obj
 0001:000b1450       ?DrawQuadBox@fxFoliageRenderList@@QAEXABVBox3F@@VColorF@@@Z 004b2450 f i fxFoliageReplicator.obj
 0001:000b1a50       ?IsQuadrantVisible@fxFoliageRenderList@@QAE_NVBox3F@@ABVMatrixF@@@Z 004b2a50 f   fxFoliageReplicator.obj
 0001:000b1c20       ??1fxFoliageRenderList@@QAE@XZ 004b2c20 f i fxFoliageReplicator.obj
 0001:000b1c30       ??1tagFieldData@fxFoliageReplicator@@QAE@XZ 004b2c30 f i fxFoliageReplicator.obj
 0001:000b1c40       ??1fxFoliageReplicator@@UAE@XZ 004b2c40 f   fxFoliageReplicator.obj
 0001:000b1cd0       ?FetchQuadrant@fxFoliageReplicator@@IAE?AVBox3F@@V2@I@Z 004b2cd0 f   fxFoliageReplicator.obj
 0001:000b1f50       ??1fxFoliageQuadrantNode@@QAE@XZ 004b2f50 f i fxFoliageReplicator.obj
 0001:000b1f60       ?onAdd@fxFoliageReplicator@@UAE_NXZ 004b2f60 f   fxFoliageReplicator.obj
 0001:000b2090       ?prepRenderImage@fxFoliageReplicator@@UAE_NPAVSceneState@@II_N@Z 004b3090 f   fxFoliageReplicator.obj
 0001:000b2150       ??A?$Vector@PAVfxFoliageQuadrantNode@@@@QAEAAPAVfxFoliageQuadrantNode@@H@Z 004b3150 f i fxFoliageReplicator.obj
 0001:000b2160       ??0?$Vector@PAVfxFoliageItem@@@@QAE@I@Z 004b3160 f i fxFoliageReplicator.obj
 0001:000b21b0       ??4?$Vector@PAVfxFoliageItem@@@@QAEAAV0@ABV0@@Z 004b31b0 f i fxFoliageReplicator.obj
 0001:000b2200       ?push_back@?$Vector@PAVfxFoliageItem@@@@QAEXABQAVfxFoliageItem@@@Z 004b3200 f i fxFoliageReplicator.obj
 0001:000b2240       ?merge@?$Vector@PAVfxFoliageItem@@@@QAEXABV1@@Z 004b3240 f i fxFoliageReplicator.obj
 0001:000b2280       ?reserve@?$Vector@PAVfxFoliageQuadrantNode@@@@QAEXI@Z 004b3280 f i fxFoliageReplicator.obj
 0001:000b22b0       ?increment@?$Vector@PAVfxFoliageQuadrantNode@@@@QAEXI@Z 004b32b0 f i fxFoliageReplicator.obj
 0001:000b22e0       ??0fxFoliageCulledList@@QAE@XZ 004b32e0 f i fxFoliageReplicator.obj
 0001:000b22f0       ??0fxFoliageQuadrantNode@@QAE@XZ 004b32f0 f i fxFoliageReplicator.obj
 0001:000b2300       ?CompileVisibleSet@fxFoliageRenderList@@QAEXPBVfxFoliageQuadrantNode@@ABVMatrixF@@_N@Z 004b3300 f   fxFoliageReplicator.obj
 0001:000b23f0       ?FindCandidates@fxFoliageCulledList@@QAEXVBox3F@@PAV1@@Z 004b33f0 f   fxFoliageReplicator.obj
 0001:000b24a0       ??_GfxFoliageReplicator@@UAEPAXI@Z 004b34a0 f i fxFoliageReplicator.obj
 0001:000b24a0       ??_EfxFoliageReplicator@@UAEPAXI@Z 004b34a0 f i fxFoliageReplicator.obj
 0001:000b24c0       ??0fxFoliageRenderList@@QAE@XZ 004b34c0 f i fxFoliageReplicator.obj
 0001:000b24e0       ??0fxFoliageItem@@QAE@XZ   004b34e0 f i fxFoliageReplicator.obj
 0001:000b24f0       ?SyncFoliageReplicators@fxFoliageReplicator@@IAEXXZ 004b34f0 f   fxFoliageReplicator.obj
 0001:000b25d0       ??_GfxFoliageQuadrantNode@@QAEPAXI@Z 004b35d0 f i fxFoliageReplicator.obj
 0001:000b25f0       ?renderObject@fxFoliageReplicator@@UAEXPAVSceneState@@PAVSceneRenderImage@@@Z 004b35f0 f   fxFoliageReplicator.obj
 0001:000b30a0       ??0?$Vector@PAVfxFoliageQuadrantNode@@@@QAE@I@Z 004b40a0 f i fxFoliageReplicator.obj
 0001:000b30f0       ?push_back@?$Vector@PAVfxFoliageQuadrantNode@@@@QAEXABQAVfxFoliageQuadrantNode@@@Z 004b40f0 f i fxFoliageReplicator.obj
 0001:000b3130       ??0fxFoliageCulledList@@QAE@VBox3F@@PAV0@@Z 004b4130 f   fxFoliageReplicator.obj
 0001:000b31b0       ??0fxFoliageReplicator@@QAE@XZ 004b41b0 f   fxFoliageReplicator.obj
 0001:000b3290       ?ProcessQuadrant@fxFoliageReplicator@@IAEXPAVfxFoliageQuadrantNode@@PAVfxFoliageCulledList@@I@Z 004b4290 f   fxFoliageReplicator.obj
 0001:000b3460       ?DestroyFoliage@fxFoliageReplicator@@IAEXXZ 004b4460 f   fxFoliageReplicator.obj
 0001:000b3510       ?onRemove@fxFoliageReplicator@@UAEXXZ 004b4510 f   fxFoliageReplicator.obj
 0001:000b35d0       ??0?$ConcreteClassRep@VfxFoliageReplicator@@@@QAE@PBDHHH@Z 004b45d0 f i fxFoliageReplicator.obj
 0001:000b3650       ?init@?$ConcreteClassRep@VfxFoliageReplicator@@@@UBEXXZ 004b4650 f i fxFoliageReplicator.obj
 0001:000b3680       ??_G?$ConcreteClassRep@VfxFoliageReplicator@@@@UAEPAXI@Z 004b4680 f i fxFoliageReplicator.obj
 0001:000b3680       ??_E?$ConcreteClassRep@VfxFoliageReplicator@@@@UAEPAXI@Z 004b4680 f i fxFoliageReplicator.obj
 0001:000b36a0       ?create@?$ConcreteClassRep@VfxFoliageReplicator@@@@UBEPAVConsoleObject@@XZ 004b46a0 f i fxFoliageReplicator.obj
 0001:000b36d0       ?ProcessNodeChildren@fxFoliageReplicator@@IAEXPAVfxFoliageQuadrantNode@@PAVfxFoliageCulledList@@@Z 004b46d0 f   fxFoliageReplicator.obj
 0001:000b3700       ?CreateFoliage@fxFoliageReplicator@@IAEXXZ 004b4700 f   fxFoliageReplicator.obj
 0001:000b43f0       ?StartUp@fxFoliageReplicator@@QAEXXZ 004b53f0 f   fxFoliageReplicator.obj
 0001:000b44e0       ?unpackUpdate@fxFoliageReplicator@@UAEXPAVNetConnection@@PAVBitStream@@@Z 004b54e0 f   fxFoliageReplicator.obj
 0001:000b4bc0       ?getClassRep@fxLightData@@UBEPAVAbstractClassRep@@XZ 004b5bc0 f   fxLight.obj
 0001:000b4bd0       ?getStaticClassRep@fxLightData@@SAPAVAbstractClassRep@@XZ 004b5bd0 f   fxLight.obj
 0001:000b4be0       ?getParentStaticClassRep@fxLightData@@SAPAVAbstractClassRep@@XZ 004b5be0 f   fxLight.obj
 0001:000b4bf0       ?getClassRep@fxLight@@UBEPAVAbstractClassRep@@XZ 004b5bf0 f   fxLight.obj
 0001:000b4c00       ?getStaticClassRep@fxLight@@SAPAVAbstractClassRep@@XZ 004b5c00 f   fxLight.obj
 0001:000b4c10       ?getParentStaticClassRep@fxLight@@SAPAVAbstractClassRep@@XZ 004b5c10 f   fxLight.obj
 0001:000b4c20       ?onAdd@fxLightData@@UAE_NXZ 004b5c20 f   fxLight.obj
 0001:000b4c30       ?initPersistFields@fxLight@@SAXXZ 004b5c30 f   fxLight.obj
 0001:000b4c70       ?GetLerpKey@fxLight@@AAEMPBDIIMMM@Z 004b5c70 f   fxLight.obj
 0001:000b4cd0       ?CheckKeySyntax@fxLight@@AAEIPBD@Z 004b5cd0 f   fxLight.obj
 0001:000b4d30       ?CheckAnimationKeys@fxLight@@AAEXXZ 004b5d30 f   fxLight.obj
